
main:     file format elf64-x86-64


Disassembly of section .init:

0000000000003000 <_init>:
    3000:	f3 0f 1e fa          	endbr64
    3004:	48 83 ec 08          	sub    $0x8,%rsp
    3008:	48 8b 05 e1 0f 02 00 	mov    0x20fe1(%rip),%rax        # 23ff0 <__gmon_start__@Base>
    300f:	48 85 c0             	test   %rax,%rax
    3012:	74 02                	je     3016 <_init+0x16>
    3014:	ff d0                	call   *%rax
    3016:	48 83 c4 08          	add    $0x8,%rsp
    301a:	c3                   	ret

Disassembly of section .plt:

0000000000003020 <.plt>:
    3020:	ff 35 ba 0d 02 00    	push   0x20dba(%rip)        # 23de0 <_GLOBAL_OFFSET_TABLE_+0x8>
    3026:	ff 25 bc 0d 02 00    	jmp    *0x20dbc(%rip)        # 23de8 <_GLOBAL_OFFSET_TABLE_+0x10>
    302c:	0f 1f 40 00          	nopl   0x0(%rax)
    3030:	f3 0f 1e fa          	endbr64
    3034:	68 00 00 00 00       	push   $0x0
    3039:	e9 e2 ff ff ff       	jmp    3020 <_init+0x20>
    303e:	66 90                	xchg   %ax,%ax
    3040:	f3 0f 1e fa          	endbr64
    3044:	68 01 00 00 00       	push   $0x1
    3049:	e9 d2 ff ff ff       	jmp    3020 <_init+0x20>
    304e:	66 90                	xchg   %ax,%ax
    3050:	f3 0f 1e fa          	endbr64
    3054:	68 02 00 00 00       	push   $0x2
    3059:	e9 c2 ff ff ff       	jmp    3020 <_init+0x20>
    305e:	66 90                	xchg   %ax,%ax
    3060:	f3 0f 1e fa          	endbr64
    3064:	68 03 00 00 00       	push   $0x3
    3069:	e9 b2 ff ff ff       	jmp    3020 <_init+0x20>
    306e:	66 90                	xchg   %ax,%ax
    3070:	f3 0f 1e fa          	endbr64
    3074:	68 04 00 00 00       	push   $0x4
    3079:	e9 a2 ff ff ff       	jmp    3020 <_init+0x20>
    307e:	66 90                	xchg   %ax,%ax
    3080:	f3 0f 1e fa          	endbr64
    3084:	68 05 00 00 00       	push   $0x5
    3089:	e9 92 ff ff ff       	jmp    3020 <_init+0x20>
    308e:	66 90                	xchg   %ax,%ax
    3090:	f3 0f 1e fa          	endbr64
    3094:	68 06 00 00 00       	push   $0x6
    3099:	e9 82 ff ff ff       	jmp    3020 <_init+0x20>
    309e:	66 90                	xchg   %ax,%ax
    30a0:	f3 0f 1e fa          	endbr64
    30a4:	68 07 00 00 00       	push   $0x7
    30a9:	e9 72 ff ff ff       	jmp    3020 <_init+0x20>
    30ae:	66 90                	xchg   %ax,%ax
    30b0:	f3 0f 1e fa          	endbr64
    30b4:	68 08 00 00 00       	push   $0x8
    30b9:	e9 62 ff ff ff       	jmp    3020 <_init+0x20>
    30be:	66 90                	xchg   %ax,%ax
    30c0:	f3 0f 1e fa          	endbr64
    30c4:	68 09 00 00 00       	push   $0x9
    30c9:	e9 52 ff ff ff       	jmp    3020 <_init+0x20>
    30ce:	66 90                	xchg   %ax,%ax
    30d0:	f3 0f 1e fa          	endbr64
    30d4:	68 0a 00 00 00       	push   $0xa
    30d9:	e9 42 ff ff ff       	jmp    3020 <_init+0x20>
    30de:	66 90                	xchg   %ax,%ax
    30e0:	f3 0f 1e fa          	endbr64
    30e4:	68 0b 00 00 00       	push   $0xb
    30e9:	e9 32 ff ff ff       	jmp    3020 <_init+0x20>
    30ee:	66 90                	xchg   %ax,%ax
    30f0:	f3 0f 1e fa          	endbr64
    30f4:	68 0c 00 00 00       	push   $0xc
    30f9:	e9 22 ff ff ff       	jmp    3020 <_init+0x20>
    30fe:	66 90                	xchg   %ax,%ax
    3100:	f3 0f 1e fa          	endbr64
    3104:	68 0d 00 00 00       	push   $0xd
    3109:	e9 12 ff ff ff       	jmp    3020 <_init+0x20>
    310e:	66 90                	xchg   %ax,%ax
    3110:	f3 0f 1e fa          	endbr64
    3114:	68 0e 00 00 00       	push   $0xe
    3119:	e9 02 ff ff ff       	jmp    3020 <_init+0x20>
    311e:	66 90                	xchg   %ax,%ax
    3120:	f3 0f 1e fa          	endbr64
    3124:	68 0f 00 00 00       	push   $0xf
    3129:	e9 f2 fe ff ff       	jmp    3020 <_init+0x20>
    312e:	66 90                	xchg   %ax,%ax
    3130:	f3 0f 1e fa          	endbr64
    3134:	68 10 00 00 00       	push   $0x10
    3139:	e9 e2 fe ff ff       	jmp    3020 <_init+0x20>
    313e:	66 90                	xchg   %ax,%ax
    3140:	f3 0f 1e fa          	endbr64
    3144:	68 11 00 00 00       	push   $0x11
    3149:	e9 d2 fe ff ff       	jmp    3020 <_init+0x20>
    314e:	66 90                	xchg   %ax,%ax
    3150:	f3 0f 1e fa          	endbr64
    3154:	68 12 00 00 00       	push   $0x12
    3159:	e9 c2 fe ff ff       	jmp    3020 <_init+0x20>
    315e:	66 90                	xchg   %ax,%ax
    3160:	f3 0f 1e fa          	endbr64
    3164:	68 13 00 00 00       	push   $0x13
    3169:	e9 b2 fe ff ff       	jmp    3020 <_init+0x20>
    316e:	66 90                	xchg   %ax,%ax
    3170:	f3 0f 1e fa          	endbr64
    3174:	68 14 00 00 00       	push   $0x14
    3179:	e9 a2 fe ff ff       	jmp    3020 <_init+0x20>
    317e:	66 90                	xchg   %ax,%ax
    3180:	f3 0f 1e fa          	endbr64
    3184:	68 15 00 00 00       	push   $0x15
    3189:	e9 92 fe ff ff       	jmp    3020 <_init+0x20>
    318e:	66 90                	xchg   %ax,%ax
    3190:	f3 0f 1e fa          	endbr64
    3194:	68 16 00 00 00       	push   $0x16
    3199:	e9 82 fe ff ff       	jmp    3020 <_init+0x20>
    319e:	66 90                	xchg   %ax,%ax
    31a0:	f3 0f 1e fa          	endbr64
    31a4:	68 17 00 00 00       	push   $0x17
    31a9:	e9 72 fe ff ff       	jmp    3020 <_init+0x20>
    31ae:	66 90                	xchg   %ax,%ax
    31b0:	f3 0f 1e fa          	endbr64
    31b4:	68 18 00 00 00       	push   $0x18
    31b9:	e9 62 fe ff ff       	jmp    3020 <_init+0x20>
    31be:	66 90                	xchg   %ax,%ax
    31c0:	f3 0f 1e fa          	endbr64
    31c4:	68 19 00 00 00       	push   $0x19
    31c9:	e9 52 fe ff ff       	jmp    3020 <_init+0x20>
    31ce:	66 90                	xchg   %ax,%ax
    31d0:	f3 0f 1e fa          	endbr64
    31d4:	68 1a 00 00 00       	push   $0x1a
    31d9:	e9 42 fe ff ff       	jmp    3020 <_init+0x20>
    31de:	66 90                	xchg   %ax,%ax
    31e0:	f3 0f 1e fa          	endbr64
    31e4:	68 1b 00 00 00       	push   $0x1b
    31e9:	e9 32 fe ff ff       	jmp    3020 <_init+0x20>
    31ee:	66 90                	xchg   %ax,%ax
    31f0:	f3 0f 1e fa          	endbr64
    31f4:	68 1c 00 00 00       	push   $0x1c
    31f9:	e9 22 fe ff ff       	jmp    3020 <_init+0x20>
    31fe:	66 90                	xchg   %ax,%ax
    3200:	f3 0f 1e fa          	endbr64
    3204:	68 1d 00 00 00       	push   $0x1d
    3209:	e9 12 fe ff ff       	jmp    3020 <_init+0x20>
    320e:	66 90                	xchg   %ax,%ax
    3210:	f3 0f 1e fa          	endbr64
    3214:	68 1e 00 00 00       	push   $0x1e
    3219:	e9 02 fe ff ff       	jmp    3020 <_init+0x20>
    321e:	66 90                	xchg   %ax,%ax
    3220:	f3 0f 1e fa          	endbr64
    3224:	68 1f 00 00 00       	push   $0x1f
    3229:	e9 f2 fd ff ff       	jmp    3020 <_init+0x20>
    322e:	66 90                	xchg   %ax,%ax
    3230:	f3 0f 1e fa          	endbr64
    3234:	68 20 00 00 00       	push   $0x20
    3239:	e9 e2 fd ff ff       	jmp    3020 <_init+0x20>
    323e:	66 90                	xchg   %ax,%ax
    3240:	f3 0f 1e fa          	endbr64
    3244:	68 21 00 00 00       	push   $0x21
    3249:	e9 d2 fd ff ff       	jmp    3020 <_init+0x20>
    324e:	66 90                	xchg   %ax,%ax
    3250:	f3 0f 1e fa          	endbr64
    3254:	68 22 00 00 00       	push   $0x22
    3259:	e9 c2 fd ff ff       	jmp    3020 <_init+0x20>
    325e:	66 90                	xchg   %ax,%ax
    3260:	f3 0f 1e fa          	endbr64
    3264:	68 23 00 00 00       	push   $0x23
    3269:	e9 b2 fd ff ff       	jmp    3020 <_init+0x20>
    326e:	66 90                	xchg   %ax,%ax
    3270:	f3 0f 1e fa          	endbr64
    3274:	68 24 00 00 00       	push   $0x24
    3279:	e9 a2 fd ff ff       	jmp    3020 <_init+0x20>
    327e:	66 90                	xchg   %ax,%ax
    3280:	f3 0f 1e fa          	endbr64
    3284:	68 25 00 00 00       	push   $0x25
    3289:	e9 92 fd ff ff       	jmp    3020 <_init+0x20>
    328e:	66 90                	xchg   %ax,%ax
    3290:	f3 0f 1e fa          	endbr64
    3294:	68 26 00 00 00       	push   $0x26
    3299:	e9 82 fd ff ff       	jmp    3020 <_init+0x20>
    329e:	66 90                	xchg   %ax,%ax
    32a0:	f3 0f 1e fa          	endbr64
    32a4:	68 27 00 00 00       	push   $0x27
    32a9:	e9 72 fd ff ff       	jmp    3020 <_init+0x20>
    32ae:	66 90                	xchg   %ax,%ax
    32b0:	f3 0f 1e fa          	endbr64
    32b4:	68 28 00 00 00       	push   $0x28
    32b9:	e9 62 fd ff ff       	jmp    3020 <_init+0x20>
    32be:	66 90                	xchg   %ax,%ax
    32c0:	f3 0f 1e fa          	endbr64
    32c4:	68 29 00 00 00       	push   $0x29
    32c9:	e9 52 fd ff ff       	jmp    3020 <_init+0x20>
    32ce:	66 90                	xchg   %ax,%ax
    32d0:	f3 0f 1e fa          	endbr64
    32d4:	68 2a 00 00 00       	push   $0x2a
    32d9:	e9 42 fd ff ff       	jmp    3020 <_init+0x20>
    32de:	66 90                	xchg   %ax,%ax
    32e0:	f3 0f 1e fa          	endbr64
    32e4:	68 2b 00 00 00       	push   $0x2b
    32e9:	e9 32 fd ff ff       	jmp    3020 <_init+0x20>
    32ee:	66 90                	xchg   %ax,%ax
    32f0:	f3 0f 1e fa          	endbr64
    32f4:	68 2c 00 00 00       	push   $0x2c
    32f9:	e9 22 fd ff ff       	jmp    3020 <_init+0x20>
    32fe:	66 90                	xchg   %ax,%ax
    3300:	f3 0f 1e fa          	endbr64
    3304:	68 2d 00 00 00       	push   $0x2d
    3309:	e9 12 fd ff ff       	jmp    3020 <_init+0x20>
    330e:	66 90                	xchg   %ax,%ax
    3310:	f3 0f 1e fa          	endbr64
    3314:	68 2e 00 00 00       	push   $0x2e
    3319:	e9 02 fd ff ff       	jmp    3020 <_init+0x20>
    331e:	66 90                	xchg   %ax,%ax
    3320:	f3 0f 1e fa          	endbr64
    3324:	68 2f 00 00 00       	push   $0x2f
    3329:	e9 f2 fc ff ff       	jmp    3020 <_init+0x20>
    332e:	66 90                	xchg   %ax,%ax
    3330:	f3 0f 1e fa          	endbr64
    3334:	68 30 00 00 00       	push   $0x30
    3339:	e9 e2 fc ff ff       	jmp    3020 <_init+0x20>
    333e:	66 90                	xchg   %ax,%ax
    3340:	f3 0f 1e fa          	endbr64
    3344:	68 31 00 00 00       	push   $0x31
    3349:	e9 d2 fc ff ff       	jmp    3020 <_init+0x20>
    334e:	66 90                	xchg   %ax,%ax
    3350:	f3 0f 1e fa          	endbr64
    3354:	68 32 00 00 00       	push   $0x32
    3359:	e9 c2 fc ff ff       	jmp    3020 <_init+0x20>
    335e:	66 90                	xchg   %ax,%ax
    3360:	f3 0f 1e fa          	endbr64
    3364:	68 33 00 00 00       	push   $0x33
    3369:	e9 b2 fc ff ff       	jmp    3020 <_init+0x20>
    336e:	66 90                	xchg   %ax,%ax
    3370:	f3 0f 1e fa          	endbr64
    3374:	68 34 00 00 00       	push   $0x34
    3379:	e9 a2 fc ff ff       	jmp    3020 <_init+0x20>
    337e:	66 90                	xchg   %ax,%ax
    3380:	f3 0f 1e fa          	endbr64
    3384:	68 35 00 00 00       	push   $0x35
    3389:	e9 92 fc ff ff       	jmp    3020 <_init+0x20>
    338e:	66 90                	xchg   %ax,%ax
    3390:	f3 0f 1e fa          	endbr64
    3394:	68 36 00 00 00       	push   $0x36
    3399:	e9 82 fc ff ff       	jmp    3020 <_init+0x20>
    339e:	66 90                	xchg   %ax,%ax
    33a0:	f3 0f 1e fa          	endbr64
    33a4:	68 37 00 00 00       	push   $0x37
    33a9:	e9 72 fc ff ff       	jmp    3020 <_init+0x20>
    33ae:	66 90                	xchg   %ax,%ax
    33b0:	f3 0f 1e fa          	endbr64
    33b4:	68 38 00 00 00       	push   $0x38
    33b9:	e9 62 fc ff ff       	jmp    3020 <_init+0x20>
    33be:	66 90                	xchg   %ax,%ax
    33c0:	f3 0f 1e fa          	endbr64
    33c4:	68 39 00 00 00       	push   $0x39
    33c9:	e9 52 fc ff ff       	jmp    3020 <_init+0x20>
    33ce:	66 90                	xchg   %ax,%ax
    33d0:	f3 0f 1e fa          	endbr64
    33d4:	68 3a 00 00 00       	push   $0x3a
    33d9:	e9 42 fc ff ff       	jmp    3020 <_init+0x20>
    33de:	66 90                	xchg   %ax,%ax
    33e0:	f3 0f 1e fa          	endbr64
    33e4:	68 3b 00 00 00       	push   $0x3b
    33e9:	e9 32 fc ff ff       	jmp    3020 <_init+0x20>
    33ee:	66 90                	xchg   %ax,%ax
    33f0:	f3 0f 1e fa          	endbr64
    33f4:	68 3c 00 00 00       	push   $0x3c
    33f9:	e9 22 fc ff ff       	jmp    3020 <_init+0x20>
    33fe:	66 90                	xchg   %ax,%ax

Disassembly of section .plt.got:

0000000000003400 <__cxa_finalize@plt>:
    3400:	f3 0f 1e fa          	endbr64
    3404:	ff 25 ce 0b 02 00    	jmp    *0x20bce(%rip)        # 23fd8 <__cxa_finalize@GLIBC_2.2.5>
    340a:	66 0f 1f 44 00 00    	nopw   0x0(%rax,%rax,1)

Disassembly of section .plt.sec:

0000000000003410 <__printf_chk@plt>:
    3410:	f3 0f 1e fa          	endbr64
    3414:	ff 25 d6 09 02 00    	jmp    *0x209d6(%rip)        # 23df0 <__printf_chk@GLIBC_2.3.4>
    341a:	66 0f 1f 44 00 00    	nopw   0x0(%rax,%rax,1)

0000000000003420 <_Znam@plt>:
    3420:	f3 0f 1e fa          	endbr64
    3424:	ff 25 ce 09 02 00    	jmp    *0x209ce(%rip)        # 23df8 <_Znam@GLIBCXX_3.4>
    342a:	66 0f 1f 44 00 00    	nopw   0x0(%rax,%rax,1)

0000000000003430 <_ZNSo3putEc@plt>:
    3430:	f3 0f 1e fa          	endbr64
    3434:	ff 25 c6 09 02 00    	jmp    *0x209c6(%rip)        # 23e00 <_ZNSo3putEc@GLIBCXX_3.4>
    343a:	66 0f 1f 44 00 00    	nopw   0x0(%rax,%rax,1)

0000000000003440 <_ZNSt6chrono3_V212system_clock3nowEv@plt>:
    3440:	f3 0f 1e fa          	endbr64
    3444:	ff 25 be 09 02 00    	jmp    *0x209be(%rip)        # 23e08 <_ZNSt6chrono3_V212system_clock3nowEv@GLIBCXX_3.4.19>
    344a:	66 0f 1f 44 00 00    	nopw   0x0(%rax,%rax,1)

0000000000003450 <_ZSt8to_charsPcS_f@plt>:
    3450:	f3 0f 1e fa          	endbr64
    3454:	ff 25 b6 09 02 00    	jmp    *0x209b6(%rip)        # 23e10 <_ZSt8to_charsPcS_f@GLIBCXX_3.4.29>
    345a:	66 0f 1f 44 00 00    	nopw   0x0(%rax,%rax,1)

0000000000003460 <frexpf@plt>:
    3460:	f3 0f 1e fa          	endbr64
    3464:	ff 25 ae 09 02 00    	jmp    *0x209ae(%rip)        # 23e18 <frexpf@GLIBC_2.2.5>
    346a:	66 0f 1f 44 00 00    	nopw   0x0(%rax,%rax,1)

0000000000003470 <_ZSt8to_charsPcS_eSt12chars_format@plt>:
    3470:	f3 0f 1e fa          	endbr64
    3474:	ff 25 a6 09 02 00    	jmp    *0x209a6(%rip)        # 23e20 <_ZSt8to_charsPcS_eSt12chars_format@GLIBCXX_3.4.29>
    347a:	66 0f 1f 44 00 00    	nopw   0x0(%rax,%rax,1)

0000000000003480 <__getf2@plt>:
    3480:	f3 0f 1e fa          	endbr64
    3484:	ff 25 9e 09 02 00    	jmp    *0x2099e(%rip)        # 23e28 <__getf2@GCC_4.3.0>
    348a:	66 0f 1f 44 00 00    	nopw   0x0(%rax,%rax,1)

0000000000003490 <_ZNKSt6localeeqERKS_@plt>:
    3490:	f3 0f 1e fa          	endbr64
    3494:	ff 25 96 09 02 00    	jmp    *0x20996(%rip)        # 23e30 <_ZNKSt6localeeqERKS_@GLIBCXX_3.4>
    349a:	66 0f 1f 44 00 00    	nopw   0x0(%rax,%rax,1)

00000000000034a0 <_ZSt8to_charsPcS_d@plt>:
    34a0:	f3 0f 1e fa          	endbr64
    34a4:	ff 25 8e 09 02 00    	jmp    *0x2098e(%rip)        # 23e38 <_ZSt8to_charsPcS_d@GLIBCXX_3.4.29>
    34aa:	66 0f 1f 44 00 00    	nopw   0x0(%rax,%rax,1)

00000000000034b0 <__udivti3@plt>:
    34b0:	f3 0f 1e fa          	endbr64
    34b4:	ff 25 86 09 02 00    	jmp    *0x20986(%rip)        # 23e40 <__udivti3@GCC_3.0>
    34ba:	66 0f 1f 44 00 00    	nopw   0x0(%rax,%rax,1)

00000000000034c0 <_ZSt17__throw_bad_allocv@plt>:
    34c0:	f3 0f 1e fa          	endbr64
    34c4:	ff 25 7e 09 02 00    	jmp    *0x2097e(%rip)        # 23e48 <_ZSt17__throw_bad_allocv@GLIBCXX_3.4>
    34ca:	66 0f 1f 44 00 00    	nopw   0x0(%rax,%rax,1)

00000000000034d0 <strlen@plt>:
    34d0:	f3 0f 1e fa          	endbr64
    34d4:	ff 25 76 09 02 00    	jmp    *0x20976(%rip)        # 23e50 <strlen@GLIBC_2.2.5>
    34da:	66 0f 1f 44 00 00    	nopw   0x0(%rax,%rax,1)

00000000000034e0 <GOMP_loop_end_nowait@plt>:
    34e0:	f3 0f 1e fa          	endbr64
    34e4:	ff 25 6e 09 02 00    	jmp    *0x2096e(%rip)        # 23e58 <GOMP_loop_end_nowait@GOMP_1.0>
    34ea:	66 0f 1f 44 00 00    	nopw   0x0(%rax,%rax,1)

00000000000034f0 <__cxa_allocate_exception@plt>:
    34f0:	f3 0f 1e fa          	endbr64
    34f4:	ff 25 66 09 02 00    	jmp    *0x20966(%rip)        # 23e60 <__cxa_allocate_exception@CXXABI_1.3>
    34fa:	66 0f 1f 44 00 00    	nopw   0x0(%rax,%rax,1)

0000000000003500 <_ZNKSt6locale2id5_M_idEv@plt>:
    3500:	f3 0f 1e fa          	endbr64
    3504:	ff 25 5e 09 02 00    	jmp    *0x2095e(%rip)        # 23e68 <_ZNKSt6locale2id5_M_idEv@GLIBCXX_3.4>
    350a:	66 0f 1f 44 00 00    	nopw   0x0(%rax,%rax,1)

0000000000003510 <_ZSt20__throw_length_errorPKc@plt>:
    3510:	f3 0f 1e fa          	endbr64
    3514:	ff 25 56 09 02 00    	jmp    *0x20956(%rip)        # 23e70 <_ZSt20__throw_length_errorPKc@GLIBCXX_3.4>
    351a:	66 0f 1f 44 00 00    	nopw   0x0(%rax,%rax,1)

0000000000003520 <memset@plt>:
    3520:	f3 0f 1e fa          	endbr64
    3524:	ff 25 4e 09 02 00    	jmp    *0x2094e(%rip)        # 23e78 <memset@GLIBC_2.2.5>
    352a:	66 0f 1f 44 00 00    	nopw   0x0(%rax,%rax,1)

0000000000003530 <_ZSt8to_charsPcS_e@plt>:
    3530:	f3 0f 1e fa          	endbr64
    3534:	ff 25 46 09 02 00    	jmp    *0x20946(%rip)        # 23e80 <_ZSt8to_charsPcS_e@GLIBCXX_3.4.29>
    353a:	66 0f 1f 44 00 00    	nopw   0x0(%rax,%rax,1)

0000000000003540 <_ZSt8to_charsPcS_dSt12chars_format@plt>:
    3540:	f3 0f 1e fa          	endbr64
    3544:	ff 25 3e 09 02 00    	jmp    *0x2093e(%rip)        # 23e88 <_ZSt8to_charsPcS_dSt12chars_format@GLIBCXX_3.4.29>
    354a:	66 0f 1f 44 00 00    	nopw   0x0(%rax,%rax,1)

0000000000003550 <_ZSt8to_charsPcS_dSt12chars_formati@plt>:
    3550:	f3 0f 1e fa          	endbr64
    3554:	ff 25 36 09 02 00    	jmp    *0x20936(%rip)        # 23e90 <_ZSt8to_charsPcS_dSt12chars_formati@GLIBCXX_3.4.29>
    355a:	66 0f 1f 44 00 00    	nopw   0x0(%rax,%rax,1)

0000000000003560 <_ZNSt6localeC1ERKS_@plt>:
    3560:	f3 0f 1e fa          	endbr64
    3564:	ff 25 2e 09 02 00    	jmp    *0x2092e(%rip)        # 23e98 <_ZNSt6localeC1ERKS_@GLIBCXX_3.4>
    356a:	66 0f 1f 44 00 00    	nopw   0x0(%rax,%rax,1)

0000000000003570 <_ZNSo5flushEv@plt>:
    3570:	f3 0f 1e fa          	endbr64
    3574:	ff 25 26 09 02 00    	jmp    *0x20926(%rip)        # 23ea0 <_ZNSo5flushEv@GLIBCXX_3.4>
    357a:	66 0f 1f 44 00 00    	nopw   0x0(%rax,%rax,1)

0000000000003580 <__cxa_free_exception@plt>:
    3580:	f3 0f 1e fa          	endbr64
    3584:	ff 25 1e 09 02 00    	jmp    *0x2091e(%rip)        # 23ea8 <__cxa_free_exception@CXXABI_1.3>
    358a:	66 0f 1f 44 00 00    	nopw   0x0(%rax,%rax,1)

0000000000003590 <_ZSt8to_charsPcS_DF128_St12chars_format@plt>:
    3590:	f3 0f 1e fa          	endbr64
    3594:	ff 25 16 09 02 00    	jmp    *0x20916(%rip)        # 23eb0 <_ZSt8to_charsPcS_DF128_St12chars_format@GLIBCXX_3.4.31>
    359a:	66 0f 1f 44 00 00    	nopw   0x0(%rax,%rax,1)

00000000000035a0 <memcpy@plt>:
    35a0:	f3 0f 1e fa          	endbr64
    35a4:	ff 25 0e 09 02 00    	jmp    *0x2090e(%rip)        # 23eb8 <memcpy@GLIBC_2.14>
    35aa:	66 0f 1f 44 00 00    	nopw   0x0(%rax,%rax,1)

00000000000035b0 <_ZSt8to_charsPcS_DF128_St12chars_formati@plt>:
    35b0:	f3 0f 1e fa          	endbr64
    35b4:	ff 25 06 09 02 00    	jmp    *0x20906(%rip)        # 23ec0 <_ZSt8to_charsPcS_DF128_St12chars_formati@GLIBCXX_3.4.31>
    35ba:	66 0f 1f 44 00 00    	nopw   0x0(%rax,%rax,1)

00000000000035c0 <_Znwm@plt>:
    35c0:	f3 0f 1e fa          	endbr64
    35c4:	ff 25 fe 08 02 00    	jmp    *0x208fe(%rip)        # 23ec8 <_Znwm@GLIBCXX_3.4>
    35ca:	66 0f 1f 44 00 00    	nopw   0x0(%rax,%rax,1)

00000000000035d0 <_ZSt8to_charsPcS_fSt12chars_format@plt>:
    35d0:	f3 0f 1e fa          	endbr64
    35d4:	ff 25 f6 08 02 00    	jmp    *0x208f6(%rip)        # 23ed0 <_ZSt8to_charsPcS_fSt12chars_format@GLIBCXX_3.4.29>
    35da:	66 0f 1f 44 00 00    	nopw   0x0(%rax,%rax,1)

00000000000035e0 <_ZdlPvm@plt>:
    35e0:	f3 0f 1e fa          	endbr64
    35e4:	ff 25 ee 08 02 00    	jmp    *0x208ee(%rip)        # 23ed8 <_ZdlPvm@CXXABI_1.3.9>
    35ea:	66 0f 1f 44 00 00    	nopw   0x0(%rax,%rax,1)

00000000000035f0 <_ZSt8to_charsPcS_eSt12chars_formati@plt>:
    35f0:	f3 0f 1e fa          	endbr64
    35f4:	ff 25 e6 08 02 00    	jmp    *0x208e6(%rip)        # 23ee0 <_ZSt8to_charsPcS_eSt12chars_formati@GLIBCXX_3.4.29>
    35fa:	66 0f 1f 44 00 00    	nopw   0x0(%rax,%rax,1)

0000000000003600 <_ZNSt6localeaSERKS_@plt>:
    3600:	f3 0f 1e fa          	endbr64
    3604:	ff 25 de 08 02 00    	jmp    *0x208de(%rip)        # 23ee8 <_ZNSt6localeaSERKS_@GLIBCXX_3.4>
    360a:	66 0f 1f 44 00 00    	nopw   0x0(%rax,%rax,1)

0000000000003610 <_ZNSt13runtime_errorD2Ev@plt>:
    3610:	f3 0f 1e fa          	endbr64
    3614:	ff 25 d6 08 02 00    	jmp    *0x208d6(%rip)        # 23ef0 <_ZNSt13runtime_errorD2Ev@GLIBCXX_3.4>
    361a:	66 0f 1f 44 00 00    	nopw   0x0(%rax,%rax,1)

0000000000003620 <memchr@plt>:
    3620:	f3 0f 1e fa          	endbr64
    3624:	ff 25 ce 08 02 00    	jmp    *0x208ce(%rip)        # 23ef8 <memchr@GLIBC_2.2.5>
    362a:	66 0f 1f 44 00 00    	nopw   0x0(%rax,%rax,1)

0000000000003630 <__stack_chk_fail@plt>:
    3630:	f3 0f 1e fa          	endbr64
    3634:	ff 25 c6 08 02 00    	jmp    *0x208c6(%rip)        # 23f00 <__stack_chk_fail@GLIBC_2.4>
    363a:	66 0f 1f 44 00 00    	nopw   0x0(%rax,%rax,1)

0000000000003640 <omp_set_num_threads@plt>:
    3640:	f3 0f 1e fa          	endbr64
    3644:	ff 25 be 08 02 00    	jmp    *0x208be(%rip)        # 23f08 <omp_set_num_threads@OMP_1.0>
    364a:	66 0f 1f 44 00 00    	nopw   0x0(%rax,%rax,1)

0000000000003650 <_ZSt16__ostream_insertIcSt11char_traitsIcEERSt13basic_ostreamIT_T0_ES6_PKS3_l@plt>:
    3650:	f3 0f 1e fa          	endbr64
    3654:	ff 25 b6 08 02 00    	jmp    *0x208b6(%rip)        # 23f10 <_ZSt16__ostream_insertIcSt11char_traitsIcEERSt13basic_ostreamIT_T0_ES6_PKS3_l@GLIBCXX_3.4.9>
    365a:	66 0f 1f 44 00 00    	nopw   0x0(%rax,%rax,1)

0000000000003660 <_ZNKSt5ctypeIcE13_M_widen_initEv@plt>:
    3660:	f3 0f 1e fa          	endbr64
    3664:	ff 25 ae 08 02 00    	jmp    *0x208ae(%rip)        # 23f18 <_ZNKSt5ctypeIcE13_M_widen_initEv@GLIBCXX_3.4.11>
    366a:	66 0f 1f 44 00 00    	nopw   0x0(%rax,%rax,1)

0000000000003670 <_ZSt8to_charsPcS_fSt12chars_formati@plt>:
    3670:	f3 0f 1e fa          	endbr64
    3674:	ff 25 a6 08 02 00    	jmp    *0x208a6(%rip)        # 23f20 <_ZSt8to_charsPcS_fSt12chars_formati@GLIBCXX_3.4.29>
    367a:	66 0f 1f 44 00 00    	nopw   0x0(%rax,%rax,1)

0000000000003680 <_ZSt16__throw_bad_castv@plt>:
    3680:	f3 0f 1e fa          	endbr64
    3684:	ff 25 9e 08 02 00    	jmp    *0x2089e(%rip)        # 23f28 <_ZSt16__throw_bad_castv@GLIBCXX_3.4>
    368a:	66 0f 1f 44 00 00    	nopw   0x0(%rax,%rax,1)

0000000000003690 <GOMP_loop_nonmonotonic_dynamic_next@plt>:
    3690:	f3 0f 1e fa          	endbr64
    3694:	ff 25 96 08 02 00    	jmp    *0x20896(%rip)        # 23f30 <GOMP_loop_nonmonotonic_dynamic_next@GOMP_4.5>
    369a:	66 0f 1f 44 00 00    	nopw   0x0(%rax,%rax,1)

00000000000036a0 <_ZdaPv@plt>:
    36a0:	f3 0f 1e fa          	endbr64
    36a4:	ff 25 8e 08 02 00    	jmp    *0x2088e(%rip)        # 23f38 <_ZdaPv@GLIBCXX_3.4>
    36aa:	66 0f 1f 44 00 00    	nopw   0x0(%rax,%rax,1)

00000000000036b0 <_ZNSt6locale7classicEv@plt>:
    36b0:	f3 0f 1e fa          	endbr64
    36b4:	ff 25 86 08 02 00    	jmp    *0x20886(%rip)        # 23f40 <_ZNSt6locale7classicEv@GLIBCXX_3.4>
    36ba:	66 0f 1f 44 00 00    	nopw   0x0(%rax,%rax,1)

00000000000036c0 <sched_getcpu@plt>:
    36c0:	f3 0f 1e fa          	endbr64
    36c4:	ff 25 7e 08 02 00    	jmp    *0x2087e(%rip)        # 23f48 <sched_getcpu@GLIBC_2.6>
    36ca:	66 0f 1f 44 00 00    	nopw   0x0(%rax,%rax,1)

00000000000036d0 <_ZNSt7__cxx1112basic_stringIcSt11char_traitsIcESaIcEE15_M_replace_coldEPcmPKcmm@plt>:
    36d0:	f3 0f 1e fa          	endbr64
    36d4:	ff 25 76 08 02 00    	jmp    *0x20876(%rip)        # 23f50 <_ZNSt7__cxx1112basic_stringIcSt11char_traitsIcESaIcEE15_M_replace_coldEPcmPKcmm@GLIBCXX_3.4.31>
    36da:	66 0f 1f 44 00 00    	nopw   0x0(%rax,%rax,1)

00000000000036e0 <_ZNSt6localeD1Ev@plt>:
    36e0:	f3 0f 1e fa          	endbr64
    36e4:	ff 25 6e 08 02 00    	jmp    *0x2086e(%rip)        # 23f58 <_ZNSt6localeD1Ev@GLIBCXX_3.4>
    36ea:	66 0f 1f 44 00 00    	nopw   0x0(%rax,%rax,1)

00000000000036f0 <GOMP_parallel@plt>:
    36f0:	f3 0f 1e fa          	endbr64
    36f4:	ff 25 66 08 02 00    	jmp    *0x20866(%rip)        # 23f60 <GOMP_parallel@GOMP_4.0>
    36fa:	66 0f 1f 44 00 00    	nopw   0x0(%rax,%rax,1)

0000000000003700 <_ZSt24__throw_out_of_range_fmtPKcz@plt>:
    3700:	f3 0f 1e fa          	endbr64
    3704:	ff 25 5e 08 02 00    	jmp    *0x2085e(%rip)        # 23f68 <_ZSt24__throw_out_of_range_fmtPKcz@GLIBCXX_3.4.20>
    370a:	66 0f 1f 44 00 00    	nopw   0x0(%rax,%rax,1)

0000000000003710 <frexpl@plt>:
    3710:	f3 0f 1e fa          	endbr64
    3714:	ff 25 56 08 02 00    	jmp    *0x20856(%rip)        # 23f70 <frexpl@GLIBC_2.2.5>
    371a:	66 0f 1f 44 00 00    	nopw   0x0(%rax,%rax,1)

0000000000003720 <_ZNKSt6locale4nameB5cxx11Ev@plt>:
    3720:	f3 0f 1e fa          	endbr64
    3724:	ff 25 4e 08 02 00    	jmp    *0x2084e(%rip)        # 23f78 <_ZNKSt6locale4nameB5cxx11Ev@GLIBCXX_3.4.21>
    372a:	66 0f 1f 44 00 00    	nopw   0x0(%rax,%rax,1)

0000000000003730 <memmove@plt>:
    3730:	f3 0f 1e fa          	endbr64
    3734:	ff 25 46 08 02 00    	jmp    *0x20846(%rip)        # 23f80 <memmove@GLIBC_2.2.5>
    373a:	66 0f 1f 44 00 00    	nopw   0x0(%rax,%rax,1)

0000000000003740 <GOMP_loop_nonmonotonic_dynamic_start@plt>:
    3740:	f3 0f 1e fa          	endbr64
    3744:	ff 25 3e 08 02 00    	jmp    *0x2083e(%rip)        # 23f88 <GOMP_loop_nonmonotonic_dynamic_start@GOMP_4.5>
    374a:	66 0f 1f 44 00 00    	nopw   0x0(%rax,%rax,1)

0000000000003750 <_ZSt8to_charsPcS_DF128_@plt>:
    3750:	f3 0f 1e fa          	endbr64
    3754:	ff 25 36 08 02 00    	jmp    *0x20836(%rip)        # 23f90 <_ZSt8to_charsPcS_DF128_@GLIBCXX_3.4.31>
    375a:	66 0f 1f 44 00 00    	nopw   0x0(%rax,%rax,1)

0000000000003760 <omp_get_max_threads@plt>:
    3760:	f3 0f 1e fa          	endbr64
    3764:	ff 25 2e 08 02 00    	jmp    *0x2082e(%rip)        # 23f98 <omp_get_max_threads@OMP_1.0>
    376a:	66 0f 1f 44 00 00    	nopw   0x0(%rax,%rax,1)

0000000000003770 <__cxa_throw@plt>:
    3770:	f3 0f 1e fa          	endbr64
    3774:	ff 25 26 08 02 00    	jmp    *0x20826(%rip)        # 23fa0 <__cxa_throw@CXXABI_1.3>
    377a:	66 0f 1f 44 00 00    	nopw   0x0(%rax,%rax,1)

0000000000003780 <_ZNSolsEi@plt>:
    3780:	f3 0f 1e fa          	endbr64
    3784:	ff 25 1e 08 02 00    	jmp    *0x2081e(%rip)        # 23fa8 <_ZNSolsEi@GLIBCXX_3.4>
    378a:	66 0f 1f 44 00 00    	nopw   0x0(%rax,%rax,1)

0000000000003790 <_Unwind_Resume@plt>:
    3790:	f3 0f 1e fa          	endbr64
    3794:	ff 25 16 08 02 00    	jmp    *0x20816(%rip)        # 23fb0 <_Unwind_Resume@GCC_3.0>
    379a:	66 0f 1f 44 00 00    	nopw   0x0(%rax,%rax,1)

00000000000037a0 <toupper@plt>:
    37a0:	f3 0f 1e fa          	endbr64
    37a4:	ff 25 0e 08 02 00    	jmp    *0x2080e(%rip)        # 23fb8 <toupper@GLIBC_2.2.5>
    37aa:	66 0f 1f 44 00 00    	nopw   0x0(%rax,%rax,1)

00000000000037b0 <frexp@plt>:
    37b0:	f3 0f 1e fa          	endbr64
    37b4:	ff 25 06 08 02 00    	jmp    *0x20806(%rip)        # 23fc0 <frexp@GLIBC_2.2.5>
    37ba:	66 0f 1f 44 00 00    	nopw   0x0(%rax,%rax,1)

00000000000037c0 <_ZNSt13runtime_errorC2EPKc@plt>:
    37c0:	f3 0f 1e fa          	endbr64
    37c4:	ff 25 fe 07 02 00    	jmp    *0x207fe(%rip)        # 23fc8 <_ZNSt13runtime_errorC2EPKc@GLIBCXX_3.4.21>
    37ca:	66 0f 1f 44 00 00    	nopw   0x0(%rax,%rax,1)

00000000000037d0 <_ZNSt6localeC1Ev@plt>:
    37d0:	f3 0f 1e fa          	endbr64
    37d4:	ff 25 f6 07 02 00    	jmp    *0x207f6(%rip)        # 23fd0 <_ZNSt6localeC1Ev@GLIBCXX_3.4>
    37da:	66 0f 1f 44 00 00    	nopw   0x0(%rax,%rax,1)

Disassembly of section .text:

00000000000037e0 <_ZNSt7__cxx1112basic_stringIcSt11char_traitsIcESaIcEE10_M_replaceEmmPKcm.isra.0.cold>:
    37e0:	49 89 d1             	mov    %rdx,%r9
    37e3:	49 89 e8             	mov    %rbp,%r8
    37e6:	48 89 c2             	mov    %rax,%rdx
    37e9:	4c 89 f6             	mov    %r14,%rsi
    37ec:	48 89 df             	mov    %rbx,%rdi
    37ef:	e8 dc fe ff ff       	call   36d0 <_ZNSt7__cxx1112basic_stringIcSt11char_traitsIcESaIcEE15_M_replace_coldEPcmPKcmm@plt>
    37f4:	4c 8b 23             	mov    (%rbx),%r12
    37f7:	e9 9d 0e 00 00       	jmp    4699 <_ZNSt7__cxx1112basic_stringIcSt11char_traitsIcESaIcEE10_M_replaceEmmPKcm.isra.0+0xc9>

00000000000037fc <_ZNKSt8__format5_SpecIcE16_M_get_precisionISt20basic_format_contextINS_10_Sink_iterIcEEcEEEmRT_.part.0.isra.0.cold>:
    37fc:	48 8d 3d a5 c9 01 00 	lea    0x1c9a5(%rip),%rdi        # 201a8 <_IO_stdin_used+0x1a8>
    3803:	c5 f8 77             	vzeroupper
    3806:	e8 aa 00 00 00       	call   38b5 <_ZSt20__throw_format_errorPKc>
    380b:	48 8d 3d 96 c9 01 00 	lea    0x1c996(%rip),%rdi        # 201a8 <_IO_stdin_used+0x1a8>
    3812:	c5 f8 77             	vzeroupper
    3815:	e8 9b 00 00 00       	call   38b5 <_ZSt20__throw_format_errorPKc>
    381a:	e8 18 01 00 00       	call   3937 <_ZNSt8__format33__invalid_arg_id_in_format_stringEv>
    381f:	90                   	nop

0000000000003820 <_ZNKSt8__format5_SpecIcE12_M_get_widthISt20basic_format_contextINS_10_Sink_iterIcEEcEEEmRT_.part.0.isra.0.cold>:
    3820:	48 8d 3d 81 c9 01 00 	lea    0x1c981(%rip),%rdi        # 201a8 <_IO_stdin_used+0x1a8>
    3827:	c5 f8 77             	vzeroupper
    382a:	e8 86 00 00 00       	call   38b5 <_ZSt20__throw_format_errorPKc>
    382f:	48 8d 3d 72 c9 01 00 	lea    0x1c972(%rip),%rdi        # 201a8 <_IO_stdin_used+0x1a8>
    3836:	c5 f8 77             	vzeroupper
    3839:	e8 77 00 00 00       	call   38b5 <_ZSt20__throw_format_errorPKc>
    383e:	e8 f4 00 00 00       	call   3937 <_ZNSt8__format33__invalid_arg_id_in_format_stringEv>

0000000000003843 <_ZNSt8__format22__write_padded_as_specIcNS_10_Sink_iterIcEEEET0_St17basic_string_viewINSt13type_identityIT_E4typeESt11char_traitsIS8_EEmRSt20basic_format_contextIS3_S6_ERKNS_5_SpecIS6_EENS_6_AlignE.constprop.0.cold>:
    3843:	48 8d 3d 5e c9 01 00 	lea    0x1c95e(%rip),%rdi        # 201a8 <_IO_stdin_used+0x1a8>
    384a:	c5 f8 77             	vzeroupper
    384d:	e8 63 00 00 00       	call   38b5 <_ZSt20__throw_format_errorPKc>
    3852:	e8 e0 00 00 00       	call   3937 <_ZNSt8__format33__invalid_arg_id_in_format_stringEv>
    3857:	90                   	nop

0000000000003858 <_ZNKSt8__format14__formatter_fpIcE11_M_localizeB5cxx11ESt17basic_string_viewIcSt11char_traitsIcEEcRKSt6locale.isra.0.cold>:
    3858:	48 8b 7c 24 28       	mov    0x28(%rsp),%rdi
    385d:	c5 f8 77             	vzeroupper
    3860:	e8 eb 93 00 00       	call   cc50 <_ZNSt7__cxx1112basic_stringIcSt11char_traitsIcESaIcEE10_M_disposeEv>
    3865:	48 89 df             	mov    %rbx,%rdi
    3868:	e8 e3 93 00 00       	call   cc50 <_ZNSt7__cxx1112basic_stringIcSt11char_traitsIcESaIcEE10_M_disposeEv>
    386d:	48 8b 44 24 58       	mov    0x58(%rsp),%rax
    3872:	64 48 2b 04 25 28 00 	sub    %fs:0x28,%rax
    3879:	00 00 
    387b:	75 08                	jne    3885 <_ZNKSt8__format14__formatter_fpIcE11_M_localizeB5cxx11ESt17basic_string_viewIcSt11char_traitsIcEEcRKSt6locale.isra.0.cold+0x2d>
    387d:	4c 89 e7             	mov    %r12,%rdi
    3880:	e8 0b ff ff ff       	call   3790 <_Unwind_Resume@plt>
    3885:	e8 a6 fd ff ff       	call   3630 <__stack_chk_fail@plt>

000000000000388a <main.cold>:
    388a:	4c 89 e7             	mov    %r12,%rdi
    388d:	c5 f8 77             	vzeroupper
    3890:	e8 bb 93 00 00       	call   cc50 <_ZNSt7__cxx1112basic_stringIcSt11char_traitsIcESaIcEE10_M_disposeEv>
    3895:	48 8b 84 24 38 02 00 	mov    0x238(%rsp),%rax
    389c:	00 
    389d:	64 48 2b 04 25 28 00 	sub    %fs:0x28,%rax
    38a4:	00 00 
    38a6:	75 08                	jne    38b0 <main.cold+0x26>
    38a8:	48 89 df             	mov    %rbx,%rdi
    38ab:	e8 e0 fe ff ff       	call   3790 <_Unwind_Resume@plt>
    38b0:	e8 7b fd ff ff       	call   3630 <__stack_chk_fail@plt>

00000000000038b5 <_ZSt20__throw_format_errorPKc>:
    38b5:	f3 0f 1e fa          	endbr64
    38b9:	55                   	push   %rbp
    38ba:	48 89 fd             	mov    %rdi,%rbp
    38bd:	bf 10 00 00 00       	mov    $0x10,%edi
    38c2:	53                   	push   %rbx
    38c3:	50                   	push   %rax
    38c4:	e8 27 fc ff ff       	call   34f0 <__cxa_allocate_exception@plt>
    38c9:	48 89 ee             	mov    %rbp,%rsi
    38cc:	48 89 c7             	mov    %rax,%rdi
    38cf:	48 89 c3             	mov    %rax,%rbx
    38d2:	e8 e9 fe ff ff       	call   37c0 <_ZNSt13runtime_errorC2EPKc@plt>
    38d7:	48 8d 05 b2 02 02 00 	lea    0x202b2(%rip),%rax        # 23b90 <_ZTVSt12format_error+0x10>
    38de:	48 8d 15 db 41 00 00 	lea    0x41db(%rip),%rdx        # 7ac0 <_ZNSt12format_errorD1Ev>
    38e5:	48 89 df             	mov    %rbx,%rdi
    38e8:	48 8d 35 f9 01 02 00 	lea    0x201f9(%rip),%rsi        # 23ae8 <_ZTVN10__cxxabiv120__si_class_type_infoE@CXXABI_1.3>
    38ef:	48 89 03             	mov    %rax,(%rbx)
    38f2:	e8 79 fe ff ff       	call   3770 <__cxa_throw@plt>
    38f7:	f3 0f 1e fa          	endbr64
    38fb:	48 89 c5             	mov    %rax,%rbp
    38fe:	48 89 df             	mov    %rbx,%rdi
    3901:	c5 f8 77             	vzeroupper
    3904:	e8 77 fc ff ff       	call   3580 <__cxa_free_exception@plt>
    3909:	48 89 ef             	mov    %rbp,%rdi
    390c:	e8 7f fe ff ff       	call   3790 <_Unwind_Resume@plt>

0000000000003911 <_ZNSt8__format39__unmatched_left_brace_in_format_stringEv>:
    3911:	f3 0f 1e fa          	endbr64
    3915:	50                   	push   %rax
    3916:	58                   	pop    %rax
    3917:	48 8d 3d 0a c9 01 00 	lea    0x1c90a(%rip),%rdi        # 20228 <_IO_stdin_used+0x228>
    391e:	50                   	push   %rax
    391f:	e8 91 ff ff ff       	call   38b5 <_ZSt20__throw_format_errorPKc>

0000000000003924 <_ZNSt8__format39__conflicting_indexing_in_format_stringEv>:
    3924:	f3 0f 1e fa          	endbr64
    3928:	50                   	push   %rax
    3929:	58                   	pop    %rax
    392a:	48 8d 3d 27 c9 01 00 	lea    0x1c927(%rip),%rdi        # 20258 <_IO_stdin_used+0x258>
    3931:	50                   	push   %rax
    3932:	e8 7e ff ff ff       	call   38b5 <_ZSt20__throw_format_errorPKc>

0000000000003937 <_ZNSt8__format33__invalid_arg_id_in_format_stringEv>:
    3937:	f3 0f 1e fa          	endbr64
    393b:	50                   	push   %rax
    393c:	58                   	pop    %rax
    393d:	48 8d 3d 54 c9 01 00 	lea    0x1c954(%rip),%rdi        # 20298 <_IO_stdin_used+0x298>
    3944:	50                   	push   %rax
    3945:	e8 6b ff ff ff       	call   38b5 <_ZSt20__throw_format_errorPKc>

000000000000394a <_ZNSt8__format29__failed_to_parse_format_specEv>:
    394a:	f3 0f 1e fa          	endbr64
    394e:	50                   	push   %rax
    394f:	58                   	pop    %rax
    3950:	48 8d 3d 71 c9 01 00 	lea    0x1c971(%rip),%rdi        # 202c8 <_IO_stdin_used+0x2c8>
    3957:	50                   	push   %rax
    3958:	e8 58 ff ff ff       	call   38b5 <_ZSt20__throw_format_errorPKc>
    395d:	0f 1f 00             	nopl   (%rax)

0000000000003960 <main>:
    3960:	f3 0f 1e fa          	endbr64
    3964:	55                   	push   %rbp
    3965:	bf 00 00 40 00       	mov    $0x400000,%edi
    396a:	48 89 e5             	mov    %rsp,%rbp
    396d:	41 55                	push   %r13
    396f:	41 54                	push   %r12
    3971:	53                   	push   %rbx
    3972:	48 83 e4 e0          	and    $0xffffffffffffffe0,%rsp
    3976:	48 81 ec 40 02 00 00 	sub    $0x240,%rsp
    397d:	64 48 8b 04 25 28 00 	mov    %fs:0x28,%rax
    3984:	00 00 
    3986:	48 89 84 24 38 02 00 	mov    %rax,0x238(%rsp)
    398d:	00 
    398e:	31 c0                	xor    %eax,%eax
    3990:	e8 8b fa ff ff       	call   3420 <_Znam@plt>
    3995:	bf 00 00 40 00       	mov    $0x400000,%edi
    399a:	48 89 c3             	mov    %rax,%rbx
    399d:	e8 7e fa ff ff       	call   3420 <_Znam@plt>
    39a2:	b9 08 00 00 00       	mov    $0x8,%ecx
    39a7:	c5 fd 6f 0d d1 d6 01 	vmovdqa 0x1d6d1(%rip),%ymm1        # 21080 <_ZNSt8__detail31__from_chars_alnum_to_val_tableILb0EE5valueE+0x1e0>
    39ae:	00 
    39af:	48 8d 93 00 00 40 00 	lea    0x400000(%rbx),%rdx
    39b6:	c5 f9 6e c1          	vmovd  %ecx,%xmm0
    39ba:	49 89 c5             	mov    %rax,%r13
    39bd:	48 89 d8             	mov    %rbx,%rax
    39c0:	c4 e2 7d 58 d8       	vpbroadcastd %xmm0,%ymm3
    39c5:	c5 f5 fe d3          	vpaddd %ymm3,%ymm1,%ymm2
    39c9:	48 05 00 01 00 00    	add    $0x100,%rax
    39cf:	c5 fc 5b c9          	vcvtdq2ps %ymm1,%ymm1
    39d3:	c5 fc 11 88 00 ff ff 	vmovups %ymm1,-0x100(%rax)
    39da:	ff 
    39db:	c5 ed fe e3          	vpaddd %ymm3,%ymm2,%ymm4
    39df:	c5 fc 5b ea          	vcvtdq2ps %ymm2,%ymm5
    39e3:	c5 fc 11 a8 20 ff ff 	vmovups %ymm5,-0xe0(%rax)
    39ea:	ff 
    39eb:	c5 dd fe f3          	vpaddd %ymm3,%ymm4,%ymm6
    39ef:	c5 fc 5b fc          	vcvtdq2ps %ymm4,%ymm7
    39f3:	c5 fc 11 b8 40 ff ff 	vmovups %ymm7,-0xc0(%rax)
    39fa:	ff 
    39fb:	c5 4d fe c3          	vpaddd %ymm3,%ymm6,%ymm8
    39ff:	c5 7c 5b ce          	vcvtdq2ps %ymm6,%ymm9
    3a03:	c5 7c 11 88 60 ff ff 	vmovups %ymm9,-0xa0(%rax)
    3a0a:	ff 
    3a0b:	c5 3d fe d3          	vpaddd %ymm3,%ymm8,%ymm10
    3a0f:	c4 41 7c 5b d8       	vcvtdq2ps %ymm8,%ymm11
    3a14:	c5 7c 11 58 80       	vmovups %ymm11,-0x80(%rax)
    3a19:	c5 2d fe e3          	vpaddd %ymm3,%ymm10,%ymm12
    3a1d:	c4 41 7c 5b ea       	vcvtdq2ps %ymm10,%ymm13
    3a22:	c5 7c 11 68 a0       	vmovups %ymm13,-0x60(%rax)
    3a27:	c5 1d fe f3          	vpaddd %ymm3,%ymm12,%ymm14
    3a2b:	c4 41 7c 5b fc       	vcvtdq2ps %ymm12,%ymm15
    3a30:	c5 7c 11 78 c0       	vmovups %ymm15,-0x40(%rax)
    3a35:	c4 c1 7c 5b c6       	vcvtdq2ps %ymm14,%ymm0
    3a3a:	c5 8d fe cb          	vpaddd %ymm3,%ymm14,%ymm1
    3a3e:	c5 fc 11 40 e0       	vmovups %ymm0,-0x20(%rax)
    3a43:	48 39 c2             	cmp    %rax,%rdx
    3a46:	0f 85 79 ff ff ff    	jne    39c5 <main+0x65>
    3a4c:	48 8d 35 48 c6 01 00 	lea    0x1c648(%rip),%rsi        # 2009b <_IO_stdin_used+0x9b>
    3a53:	48 8d 3d 48 c6 01 00 	lea    0x1c648(%rip),%rdi        # 200a2 <_IO_stdin_used+0xa2>
    3a5a:	48 b9 a6 94 52 4a 01 	movabs $0x14a5294a6,%rcx
    3a61:	00 00 00 
    3a64:	4c 8d 05 3c c6 01 00 	lea    0x1c63c(%rip),%r8        # 200a7 <_IO_stdin_used+0xa7>
    3a6b:	4c 8d 0d 38 c6 01 00 	lea    0x1c638(%rip),%r9        # 200aa <_IO_stdin_used+0xaa>
    3a72:	48 89 b4 24 d0 01 00 	mov    %rsi,0x1d0(%rsp)
    3a79:	00 
    3a7a:	be 26 00 00 00       	mov    $0x26,%esi
    3a7f:	4c 8d 15 29 c6 01 00 	lea    0x1c629(%rip),%r10        # 200af <_IO_stdin_used+0xaf>
    3a86:	4c 8d 1d 25 c6 01 00 	lea    0x1c625(%rip),%r11        # 200b2 <_IO_stdin_used+0xb2>
    3a8d:	48 89 bc 24 e0 01 00 	mov    %rdi,0x1e0(%rsp)
    3a94:	00 
    3a95:	4c 89 84 24 f0 01 00 	mov    %r8,0x1f0(%rsp)
    3a9c:	00 
    3a9d:	4c 8d a4 24 b0 01 00 	lea    0x1b0(%rsp),%r12
    3aa4:	00 
    3aa5:	48 8d 15 54 c7 01 00 	lea    0x1c754(%rip),%rdx        # 20200 <_IO_stdin_used+0x200>
    3aac:	4c 89 8c 24 00 02 00 	mov    %r9,0x200(%rsp)
    3ab3:	00 
    3ab4:	4c 89 e7             	mov    %r12,%rdi
    3ab7:	4c 8d 84 24 d0 01 00 	lea    0x1d0(%rsp),%r8
    3abe:	00 
    3abf:	4c 89 94 24 10 02 00 	mov    %r10,0x210(%rsp)
    3ac6:	00 
    3ac7:	4c 89 9c 24 20 02 00 	mov    %r11,0x220(%rsp)
    3ace:	00 
    3acf:	c5 f8 77             	vzeroupper
    3ad2:	e8 59 66 01 00       	call   1a130 <_ZSt7vformatB5cxx11St17basic_string_viewIcSt11char_traitsIcEESt17basic_format_argsISt20basic_format_contextINSt8__format10_Sink_iterIcEEcEE>
    3ad7:	48 8b 94 24 b8 01 00 	mov    0x1b8(%rsp),%rdx
    3ade:	00 
    3adf:	48 8b b4 24 b0 01 00 	mov    0x1b0(%rsp),%rsi
    3ae6:	00 
    3ae7:	48 8d 3d 92 05 02 00 	lea    0x20592(%rip),%rdi        # 24080 <_ZSt4cout@GLIBCXX_3.4>
    3aee:	e8 5d fb ff ff       	call   3650 <_ZSt16__ostream_insertIcSt11char_traitsIcEERSt13basic_ostreamIT_T0_ES6_PKS3_l@plt>
    3af3:	48 89 c7             	mov    %rax,%rdi
    3af6:	e8 c5 07 00 00       	call   42c0 <_ZSt4endlIcSt11char_traitsIcEERSt13basic_ostreamIT_T0_ES6_.isra.0>
    3afb:	48 8d 44 24 2c       	lea    0x2c(%rsp),%rax
    3b00:	48 8d 54 24 24       	lea    0x24(%rsp),%rdx
    3b05:	4c 89 e7             	mov    %r12,%rdi
    3b08:	c4 e1 f9 6e d8       	vmovq  %rax,%xmm3
    3b0d:	c4 e1 f9 6e d2       	vmovq  %rdx,%xmm2
    3b12:	48 8d 4c 24 28       	lea    0x28(%rsp),%rcx
    3b17:	48 8d 74 24 30       	lea    0x30(%rsp),%rsi
    3b1c:	c4 e3 e1 22 e9 01    	vpinsrq $0x1,%rcx,%xmm3,%xmm5
    3b22:	4c 8d 64 24 38       	lea    0x38(%rsp),%r12
    3b27:	c4 e3 e9 22 e6 01    	vpinsrq $0x1,%rsi,%xmm2,%xmm4
    3b2d:	c4 e3 55 38 f4 01    	vinserti128 $0x1,%xmm4,%ymm5,%ymm6
    3b33:	c5 fd 7f 34 24       	vmovdqa %ymm6,(%rsp)
    3b38:	c5 f8 77             	vzeroupper
    3b3b:	e8 10 91 00 00       	call   cc50 <_ZNSt7__cxx1112basic_stringIcSt11char_traitsIcESaIcEE10_M_disposeEv>
    3b40:	c5 fd 6f 3c 24       	vmovdqa (%rsp),%ymm7
    3b45:	48 89 5c 24 30       	mov    %rbx,0x30(%rsp)
    3b4a:	4c 89 6c 24 38       	mov    %r13,0x38(%rsp)
    3b4f:	48 8d bc 24 80 01 00 	lea    0x180(%rsp),%rdi
    3b56:	00 
    3b57:	c7 44 24 24 00 00 10 	movl   $0x100000,0x24(%rsp)
    3b5e:	00 
    3b5f:	c7 44 24 28 64 00 00 	movl   $0x64,0x28(%rsp)
    3b66:	00 
    3b67:	c7 44 24 2c 28 6b 6e 	movl   $0x4e6e6b28,0x2c(%rsp)
    3b6e:	4e 
    3b6f:	4c 89 a4 24 a0 01 00 	mov    %r12,0x1a0(%rsp)
    3b76:	00 
    3b77:	c5 fd 7f bc 24 80 01 	vmovdqa %ymm7,0x180(%rsp)
    3b7e:	00 00 
    3b80:	c5 f8 77             	vzeroupper
    3b83:	e8 88 83 01 00       	call   1bf10 <_ZZ15run_all_configsIJLi2ELi16ELi18ELi100ELi1000ELi10000EEEvPKfPfiifENKUlvE_clEv>
    3b88:	c5 7d 6f 04 24       	vmovdqa (%rsp),%ymm8
    3b8d:	4c 89 a4 24 60 01 00 	mov    %r12,0x160(%rsp)
    3b94:	00 
    3b95:	48 8d bc 24 40 01 00 	lea    0x140(%rsp),%rdi
    3b9c:	00 
    3b9d:	c5 7d 7f 84 24 40 01 	vmovdqa %ymm8,0x140(%rsp)
    3ba4:	00 00 
    3ba6:	c5 f8 77             	vzeroupper
    3ba9:	e8 12 7c 01 00       	call   1b7c0 <_ZZ15run_all_configsIJLi2ELi16ELi18ELi100ELi1000ELi10000EEEvPKfPfiifENKUlvE0_clEv>
    3bae:	c5 7d 6f 0c 24       	vmovdqa (%rsp),%ymm9
    3bb3:	4c 89 a4 24 20 01 00 	mov    %r12,0x120(%rsp)
    3bba:	00 
    3bbb:	48 8d bc 24 00 01 00 	lea    0x100(%rsp),%rdi
    3bc2:	00 
    3bc3:	c5 7d 7f 8c 24 00 01 	vmovdqa %ymm9,0x100(%rsp)
    3bca:	00 00 
    3bcc:	c5 f8 77             	vzeroupper
    3bcf:	e8 2c 99 01 00       	call   1d500 <_ZZ15run_all_configsIJLi2ELi16ELi18ELi100ELi1000ELi10000EEEvPKfPfiifENKUlvE1_clEv>
    3bd4:	c5 7d 6f 14 24       	vmovdqa (%rsp),%ymm10
    3bd9:	4c 89 a4 24 e0 00 00 	mov    %r12,0xe0(%rsp)
    3be0:	00 
    3be1:	48 8d bc 24 c0 00 00 	lea    0xc0(%rsp),%rdi
    3be8:	00 
    3be9:	c5 7d 7f 94 24 c0 00 	vmovdqa %ymm10,0xc0(%rsp)
    3bf0:	00 00 
    3bf2:	c5 f8 77             	vzeroupper
    3bf5:	e8 b6 91 01 00       	call   1cdb0 <_ZZ15run_all_configsIJLi2ELi16ELi18ELi100ELi1000ELi10000EEEvPKfPfiifENKUlvE2_clEv>
    3bfa:	c5 7d 6f 1c 24       	vmovdqa (%rsp),%ymm11
    3bff:	4c 89 a4 24 a0 00 00 	mov    %r12,0xa0(%rsp)
    3c06:	00 
    3c07:	48 8d bc 24 80 00 00 	lea    0x80(%rsp),%rdi
    3c0e:	00 
    3c0f:	c5 7d 7f 9c 24 80 00 	vmovdqa %ymm11,0x80(%rsp)
    3c16:	00 00 
    3c18:	c5 f8 77             	vzeroupper
    3c1b:	e8 40 8a 01 00       	call   1c660 <_ZZ15run_all_configsIJLi2ELi16ELi18ELi100ELi1000ELi10000EEEvPKfPfiifENKUlvE3_clEv>
    3c20:	c5 7d 6f 24 24       	vmovdqa (%rsp),%ymm12
    3c25:	4c 89 64 24 60       	mov    %r12,0x60(%rsp)
    3c2a:	48 8d 7c 24 40       	lea    0x40(%rsp),%rdi
    3c2f:	c5 7d 7f 64 24 40    	vmovdqa %ymm12,0x40(%rsp)
    3c35:	c5 f8 77             	vzeroupper
    3c38:	e8 33 74 01 00       	call   1b070 <_ZZ15run_all_configsIJLi2ELi16ELi18ELi100ELi1000ELi10000EEEvPKfPfiifENKUlvE4_clEv>
    3c3d:	48 89 df             	mov    %rbx,%rdi
    3c40:	e8 5b fa ff ff       	call   36a0 <_ZdaPv@plt>
    3c45:	4c 89 ef             	mov    %r13,%rdi
    3c48:	e8 53 fa ff ff       	call   36a0 <_ZdaPv@plt>
    3c4d:	48 8b 84 24 38 02 00 	mov    0x238(%rsp),%rax
    3c54:	00 
    3c55:	64 48 2b 04 25 28 00 	sub    %fs:0x28,%rax
    3c5c:	00 00 
    3c5e:	75 0d                	jne    3c6d <main+0x30d>
    3c60:	48 8d 65 e8          	lea    -0x18(%rbp),%rsp
    3c64:	31 c0                	xor    %eax,%eax
    3c66:	5b                   	pop    %rbx
    3c67:	41 5c                	pop    %r12
    3c69:	41 5d                	pop    %r13
    3c6b:	5d                   	pop    %rbp
    3c6c:	c3                   	ret
    3c6d:	e8 be f9 ff ff       	call   3630 <__stack_chk_fail@plt>
    3c72:	f3 0f 1e fa          	endbr64
    3c76:	48 89 c3             	mov    %rax,%rbx
    3c79:	e9 0c fc ff ff       	jmp    388a <main.cold>
    3c7e:	66 90                	xchg   %ax,%ax

0000000000003c80 <set_fast_math>:
    3c80:	f3 0f 1e fa          	endbr64
    3c84:	55                   	push   %rbp
    3c85:	48 89 e5             	mov    %rsp,%rbp
    3c88:	0f ae 5d fc          	stmxcsr -0x4(%rbp)
    3c8c:	81 4d fc 40 80 00 00 	orl    $0x8040,-0x4(%rbp)
    3c93:	0f ae 55 fc          	ldmxcsr -0x4(%rbp)
    3c97:	5d                   	pop    %rbp
    3c98:	c3                   	ret
    3c99:	0f 1f 80 00 00 00 00 	nopl   0x0(%rax)

0000000000003ca0 <_start>:
    3ca0:	f3 0f 1e fa          	endbr64
    3ca4:	31 ed                	xor    %ebp,%ebp
    3ca6:	49 89 d1             	mov    %rdx,%r9
    3ca9:	5e                   	pop    %rsi
    3caa:	48 89 e2             	mov    %rsp,%rdx
    3cad:	48 83 e4 f0          	and    $0xfffffffffffffff0,%rsp
    3cb1:	50                   	push   %rax
    3cb2:	54                   	push   %rsp
    3cb3:	45 31 c0             	xor    %r8d,%r8d
    3cb6:	31 c9                	xor    %ecx,%ecx
    3cb8:	48 8d 3d a1 fc ff ff 	lea    -0x35f(%rip),%rdi        # 3960 <main>
    3cbf:	ff 15 1b 03 02 00    	call   *0x2031b(%rip)        # 23fe0 <__libc_start_main@GLIBC_2.34>
    3cc5:	f4                   	hlt
    3cc6:	66 2e 0f 1f 84 00 00 	cs nopw 0x0(%rax,%rax,1)
    3ccd:	00 00 00 

0000000000003cd0 <deregister_tm_clones>:
    3cd0:	48 8d 3d 49 03 02 00 	lea    0x20349(%rip),%rdi        # 24020 <__TMC_END__>
    3cd7:	48 8d 05 42 03 02 00 	lea    0x20342(%rip),%rax        # 24020 <__TMC_END__>
    3cde:	48 39 f8             	cmp    %rdi,%rax
    3ce1:	74 15                	je     3cf8 <deregister_tm_clones+0x28>
    3ce3:	48 8b 05 fe 02 02 00 	mov    0x202fe(%rip),%rax        # 23fe8 <_ITM_deregisterTMCloneTable@Base>
    3cea:	48 85 c0             	test   %rax,%rax
    3ced:	74 09                	je     3cf8 <deregister_tm_clones+0x28>
    3cef:	ff e0                	jmp    *%rax
    3cf1:	0f 1f 80 00 00 00 00 	nopl   0x0(%rax)
    3cf8:	c3                   	ret
    3cf9:	0f 1f 80 00 00 00 00 	nopl   0x0(%rax)

0000000000003d00 <register_tm_clones>:
    3d00:	48 8d 3d 19 03 02 00 	lea    0x20319(%rip),%rdi        # 24020 <__TMC_END__>
    3d07:	48 8d 35 12 03 02 00 	lea    0x20312(%rip),%rsi        # 24020 <__TMC_END__>
    3d0e:	48 29 fe             	sub    %rdi,%rsi
    3d11:	48 89 f0             	mov    %rsi,%rax
    3d14:	48 c1 ee 3f          	shr    $0x3f,%rsi
    3d18:	48 c1 f8 03          	sar    $0x3,%rax
    3d1c:	48 01 c6             	add    %rax,%rsi
    3d1f:	48 d1 fe             	sar    $1,%rsi
    3d22:	74 14                	je     3d38 <register_tm_clones+0x38>
    3d24:	48 8b 05 cd 02 02 00 	mov    0x202cd(%rip),%rax        # 23ff8 <_ITM_registerTMCloneTable@Base>
    3d2b:	48 85 c0             	test   %rax,%rax
    3d2e:	74 08                	je     3d38 <register_tm_clones+0x38>
    3d30:	ff e0                	jmp    *%rax
    3d32:	66 0f 1f 44 00 00    	nopw   0x0(%rax,%rax,1)
    3d38:	c3                   	ret
    3d39:	0f 1f 80 00 00 00 00 	nopl   0x0(%rax)

0000000000003d40 <__do_global_dtors_aux>:
    3d40:	f3 0f 1e fa          	endbr64
    3d44:	80 3d 45 04 02 00 00 	cmpb   $0x0,0x20445(%rip)        # 24190 <completed.0>
    3d4b:	75 2b                	jne    3d78 <__do_global_dtors_aux+0x38>
    3d4d:	55                   	push   %rbp
    3d4e:	48 83 3d 82 02 02 00 	cmpq   $0x0,0x20282(%rip)        # 23fd8 <__cxa_finalize@GLIBC_2.2.5>
    3d55:	00 
    3d56:	48 89 e5             	mov    %rsp,%rbp
    3d59:	74 0c                	je     3d67 <__do_global_dtors_aux+0x27>
    3d5b:	48 8b 3d a6 02 02 00 	mov    0x202a6(%rip),%rdi        # 24008 <__dso_handle>
    3d62:	e8 99 f6 ff ff       	call   3400 <__cxa_finalize@plt>
    3d67:	e8 64 ff ff ff       	call   3cd0 <deregister_tm_clones>
    3d6c:	c6 05 1d 04 02 00 01 	movb   $0x1,0x2041d(%rip)        # 24190 <completed.0>
    3d73:	5d                   	pop    %rbp
    3d74:	c3                   	ret
    3d75:	0f 1f 00             	nopl   (%rax)
    3d78:	c3                   	ret
    3d79:	0f 1f 80 00 00 00 00 	nopl   0x0(%rax)

0000000000003d80 <frame_dummy>:
    3d80:	f3 0f 1e fa          	endbr64
    3d84:	e9 77 ff ff ff       	jmp    3d00 <register_tm_clones>
    3d89:	0f 1f 80 00 00 00 00 	nopl   0x0(%rax)

0000000000003d90 <_Z32parallel_avx2_cube_root_templateILi2EEvPKfPfi._omp_fn.0.constprop.0>:
    3d90:	c3                   	ret
    3d91:	66 66 2e 0f 1f 84 00 	data16 cs nopw 0x0(%rax,%rax,1)
    3d98:	00 00 00 00 
    3d9c:	0f 1f 40 00          	nopl   0x0(%rax)

0000000000003da0 <_Z39manual_avx2_parallel_cube_root_templateILi2EEvPKfPfi._omp_fn.0.constprop.0>:
    3da0:	e9 1b f9 ff ff       	jmp    36c0 <sched_getcpu@plt>
    3da5:	66 66 2e 0f 1f 84 00 	data16 cs nopw 0x0(%rax,%rax,1)
    3dac:	00 00 00 00 

0000000000003db0 <_Z9benchmarkPFvPKfPfiES0_S1_iii.constprop.0>:
    3db0:	41 57                	push   %r15
    3db2:	4d 63 f8             	movslq %r8d,%r15
    3db5:	41 56                	push   %r14
    3db7:	44 89 f8             	mov    %r15d,%eax
    3dba:	4d 89 fe             	mov    %r15,%r14
    3dbd:	41 55                	push   %r13
    3dbf:	c1 f8 1f             	sar    $0x1f,%eax
    3dc2:	41 89 cd             	mov    %ecx,%r13d
    3dc5:	41 54                	push   %r12
    3dc7:	49 89 f4             	mov    %rsi,%r12
    3dca:	55                   	push   %rbp
    3dcb:	48 89 fd             	mov    %rdi,%rbp
    3dce:	53                   	push   %rbx
    3dcf:	48 89 d3             	mov    %rdx,%rbx
    3dd2:	49 69 d7 67 66 66 66 	imul   $0x66666667,%r15,%rdx
    3dd9:	48 c1 fa 22          	sar    $0x22,%rdx
    3ddd:	48 83 ec 28          	sub    $0x28,%rsp
    3de1:	29 c2                	sub    %eax,%edx
    3de3:	89 14 24             	mov    %edx,(%rsp)
    3de6:	41 83 ff 09          	cmp    $0x9,%r15d
    3dea:	0f 8e a0 03 00 00    	jle    4190 <_Z9benchmarkPFvPKfPfiES0_S1_iii.constprop.0+0x3e0>
    3df0:	8d 4a ff             	lea    -0x1(%rdx),%ecx
    3df3:	48 89 de             	mov    %rbx,%rsi
    3df6:	4c 89 e7             	mov    %r12,%rdi
    3df9:	44 89 ea             	mov    %r13d,%edx
    3dfc:	83 e1 07             	and    $0x7,%ecx
    3dff:	41 bf 01 00 00 00    	mov    $0x1,%r15d
    3e05:	89 4c 24 0c          	mov    %ecx,0xc(%rsp)
    3e09:	ff d5                	call   *%rbp
    3e0b:	8b 34 24             	mov    (%rsp),%esi
    3e0e:	8b 7c 24 0c          	mov    0xc(%rsp),%edi
    3e12:	41 39 f7             	cmp    %esi,%r15d
    3e15:	0f 8d ff 00 00 00    	jge    3f1a <_Z9benchmarkPFvPKfPfiES0_S1_iii.constprop.0+0x16a>
    3e1b:	85 ff                	test   %edi,%edi
    3e1d:	0f 84 92 00 00 00    	je     3eb5 <_Z9benchmarkPFvPKfPfiES0_S1_iii.constprop.0+0x105>
    3e23:	83 ff 01             	cmp    $0x1,%edi
    3e26:	74 75                	je     3e9d <_Z9benchmarkPFvPKfPfiES0_S1_iii.constprop.0+0xed>
    3e28:	83 ff 02             	cmp    $0x2,%edi
    3e2b:	74 61                	je     3e8e <_Z9benchmarkPFvPKfPfiES0_S1_iii.constprop.0+0xde>
    3e2d:	83 ff 03             	cmp    $0x3,%edi
    3e30:	74 4d                	je     3e7f <_Z9benchmarkPFvPKfPfiES0_S1_iii.constprop.0+0xcf>
    3e32:	83 ff 04             	cmp    $0x4,%edi
    3e35:	74 39                	je     3e70 <_Z9benchmarkPFvPKfPfiES0_S1_iii.constprop.0+0xc0>
    3e37:	83 ff 05             	cmp    $0x5,%edi
    3e3a:	74 25                	je     3e61 <_Z9benchmarkPFvPKfPfiES0_S1_iii.constprop.0+0xb1>
    3e3c:	83 ff 06             	cmp    $0x6,%edi
    3e3f:	74 11                	je     3e52 <_Z9benchmarkPFvPKfPfiES0_S1_iii.constprop.0+0xa2>
    3e41:	44 89 ea             	mov    %r13d,%edx
    3e44:	48 89 de             	mov    %rbx,%rsi
    3e47:	4c 89 e7             	mov    %r12,%rdi
    3e4a:	41 bf 02 00 00 00    	mov    $0x2,%r15d
    3e50:	ff d5                	call   *%rbp
    3e52:	44 89 ea             	mov    %r13d,%edx
    3e55:	48 89 de             	mov    %rbx,%rsi
    3e58:	4c 89 e7             	mov    %r12,%rdi
    3e5b:	41 83 c7 01          	add    $0x1,%r15d
    3e5f:	ff d5                	call   *%rbp
    3e61:	44 89 ea             	mov    %r13d,%edx
    3e64:	48 89 de             	mov    %rbx,%rsi
    3e67:	4c 89 e7             	mov    %r12,%rdi
    3e6a:	41 83 c7 01          	add    $0x1,%r15d
    3e6e:	ff d5                	call   *%rbp
    3e70:	44 89 ea             	mov    %r13d,%edx
    3e73:	48 89 de             	mov    %rbx,%rsi
    3e76:	4c 89 e7             	mov    %r12,%rdi
    3e79:	41 83 c7 01          	add    $0x1,%r15d
    3e7d:	ff d5                	call   *%rbp
    3e7f:	44 89 ea             	mov    %r13d,%edx
    3e82:	48 89 de             	mov    %rbx,%rsi
    3e85:	4c 89 e7             	mov    %r12,%rdi
    3e88:	41 83 c7 01          	add    $0x1,%r15d
    3e8c:	ff d5                	call   *%rbp
    3e8e:	44 89 ea             	mov    %r13d,%edx
    3e91:	48 89 de             	mov    %rbx,%rsi
    3e94:	4c 89 e7             	mov    %r12,%rdi
    3e97:	41 83 c7 01          	add    $0x1,%r15d
    3e9b:	ff d5                	call   *%rbp
    3e9d:	44 89 ea             	mov    %r13d,%edx
    3ea0:	48 89 de             	mov    %rbx,%rsi
    3ea3:	4c 89 e7             	mov    %r12,%rdi
    3ea6:	41 83 c7 01          	add    $0x1,%r15d
    3eaa:	ff d5                	call   *%rbp
    3eac:	44 8b 04 24          	mov    (%rsp),%r8d
    3eb0:	45 39 c7             	cmp    %r8d,%r15d
    3eb3:	7d 65                	jge    3f1a <_Z9benchmarkPFvPKfPfiES0_S1_iii.constprop.0+0x16a>
    3eb5:	44 89 ea             	mov    %r13d,%edx
    3eb8:	48 89 de             	mov    %rbx,%rsi
    3ebb:	4c 89 e7             	mov    %r12,%rdi
    3ebe:	41 83 c7 08          	add    $0x8,%r15d
    3ec2:	ff d5                	call   *%rbp
    3ec4:	44 89 ea             	mov    %r13d,%edx
    3ec7:	48 89 de             	mov    %rbx,%rsi
    3eca:	4c 89 e7             	mov    %r12,%rdi
    3ecd:	ff d5                	call   *%rbp
    3ecf:	44 89 ea             	mov    %r13d,%edx
    3ed2:	48 89 de             	mov    %rbx,%rsi
    3ed5:	4c 89 e7             	mov    %r12,%rdi
    3ed8:	ff d5                	call   *%rbp
    3eda:	44 89 ea             	mov    %r13d,%edx
    3edd:	48 89 de             	mov    %rbx,%rsi
    3ee0:	4c 89 e7             	mov    %r12,%rdi
    3ee3:	ff d5                	call   *%rbp
    3ee5:	44 89 ea             	mov    %r13d,%edx
    3ee8:	48 89 de             	mov    %rbx,%rsi
    3eeb:	4c 89 e7             	mov    %r12,%rdi
    3eee:	ff d5                	call   *%rbp
    3ef0:	44 89 ea             	mov    %r13d,%edx
    3ef3:	48 89 de             	mov    %rbx,%rsi
    3ef6:	4c 89 e7             	mov    %r12,%rdi
    3ef9:	ff d5                	call   *%rbp
    3efb:	44 89 ea             	mov    %r13d,%edx
    3efe:	48 89 de             	mov    %rbx,%rsi
    3f01:	4c 89 e7             	mov    %r12,%rdi
    3f04:	ff d5                	call   *%rbp
    3f06:	44 89 ea             	mov    %r13d,%edx
    3f09:	48 89 de             	mov    %rbx,%rsi
    3f0c:	4c 89 e7             	mov    %r12,%rdi
    3f0f:	ff d5                	call   *%rbp
    3f11:	44 8b 0c 24          	mov    (%rsp),%r9d
    3f15:	45 39 cf             	cmp    %r9d,%r15d
    3f18:	7c 9b                	jl     3eb5 <_Z9benchmarkPFvPKfPfiES0_S1_iii.constprop.0+0x105>
    3f1a:	e8 21 f5 ff ff       	call   3440 <_ZNSt6chrono3_V212system_clock3nowEv@plt>
    3f1f:	c7 44 24 1c 00 00 00 	movl   $0x0,0x1c(%rsp)
    3f26:	00 
    3f27:	48 89 04 24          	mov    %rax,(%rsp)
    3f2b:	45 89 f2             	mov    %r14d,%r10d
    3f2e:	45 31 ff             	xor    %r15d,%r15d
    3f31:	41 83 e2 07          	and    $0x7,%r10d
    3f35:	0f 84 f3 00 00 00    	je     402e <_Z9benchmarkPFvPKfPfiES0_S1_iii.constprop.0+0x27e>
    3f3b:	41 83 fa 01          	cmp    $0x1,%r10d
    3f3f:	0f 84 c1 00 00 00    	je     4006 <_Z9benchmarkPFvPKfPfiES0_S1_iii.constprop.0+0x256>
    3f45:	41 83 fa 02          	cmp    $0x2,%r10d
    3f49:	0f 84 98 00 00 00    	je     3fe7 <_Z9benchmarkPFvPKfPfiES0_S1_iii.constprop.0+0x237>
    3f4f:	41 83 fa 03          	cmp    $0x3,%r10d
    3f53:	74 73                	je     3fc8 <_Z9benchmarkPFvPKfPfiES0_S1_iii.constprop.0+0x218>
    3f55:	41 83 fa 04          	cmp    $0x4,%r10d
    3f59:	74 4e                	je     3fa9 <_Z9benchmarkPFvPKfPfiES0_S1_iii.constprop.0+0x1f9>
    3f5b:	41 83 fa 05          	cmp    $0x5,%r10d
    3f5f:	74 29                	je     3f8a <_Z9benchmarkPFvPKfPfiES0_S1_iii.constprop.0+0x1da>
    3f61:	41 83 fa 06          	cmp    $0x6,%r10d
    3f65:	0f 85 fd 01 00 00    	jne    4168 <_Z9benchmarkPFvPKfPfiES0_S1_iii.constprop.0+0x3b8>
    3f6b:	44 89 ea             	mov    %r13d,%edx
    3f6e:	48 89 de             	mov    %rbx,%rsi
    3f71:	4c 89 e7             	mov    %r12,%rdi
    3f74:	41 83 c7 01          	add    $0x1,%r15d
    3f78:	ff d5                	call   *%rbp
    3f7a:	c5 fa 10 54 24 1c    	vmovss 0x1c(%rsp),%xmm2
    3f80:	c5 ea 58 1b          	vaddss (%rbx),%xmm2,%xmm3
    3f84:	c5 fa 11 5c 24 1c    	vmovss %xmm3,0x1c(%rsp)
    3f8a:	44 89 ea             	mov    %r13d,%edx
    3f8d:	48 89 de             	mov    %rbx,%rsi
    3f90:	4c 89 e7             	mov    %r12,%rdi
    3f93:	41 83 c7 01          	add    $0x1,%r15d
    3f97:	ff d5                	call   *%rbp
    3f99:	c5 fa 10 64 24 1c    	vmovss 0x1c(%rsp),%xmm4
    3f9f:	c5 da 58 2b          	vaddss (%rbx),%xmm4,%xmm5
    3fa3:	c5 fa 11 6c 24 1c    	vmovss %xmm5,0x1c(%rsp)
    3fa9:	44 89 ea             	mov    %r13d,%edx
    3fac:	48 89 de             	mov    %rbx,%rsi
    3faf:	4c 89 e7             	mov    %r12,%rdi
    3fb2:	41 83 c7 01          	add    $0x1,%r15d
    3fb6:	ff d5                	call   *%rbp
    3fb8:	c5 fa 10 74 24 1c    	vmovss 0x1c(%rsp),%xmm6
    3fbe:	c5 ca 58 3b          	vaddss (%rbx),%xmm6,%xmm7
    3fc2:	c5 fa 11 7c 24 1c    	vmovss %xmm7,0x1c(%rsp)
    3fc8:	44 89 ea             	mov    %r13d,%edx
    3fcb:	48 89 de             	mov    %rbx,%rsi
    3fce:	4c 89 e7             	mov    %r12,%rdi
    3fd1:	41 83 c7 01          	add    $0x1,%r15d
    3fd5:	ff d5                	call   *%rbp
    3fd7:	c5 7a 10 44 24 1c    	vmovss 0x1c(%rsp),%xmm8
    3fdd:	c5 3a 58 0b          	vaddss (%rbx),%xmm8,%xmm9
    3fe1:	c5 7a 11 4c 24 1c    	vmovss %xmm9,0x1c(%rsp)
    3fe7:	44 89 ea             	mov    %r13d,%edx
    3fea:	48 89 de             	mov    %rbx,%rsi
    3fed:	4c 89 e7             	mov    %r12,%rdi
    3ff0:	41 83 c7 01          	add    $0x1,%r15d
    3ff4:	ff d5                	call   *%rbp
    3ff6:	c5 7a 10 54 24 1c    	vmovss 0x1c(%rsp),%xmm10
    3ffc:	c5 2a 58 1b          	vaddss (%rbx),%xmm10,%xmm11
    4000:	c5 7a 11 5c 24 1c    	vmovss %xmm11,0x1c(%rsp)
    4006:	44 89 ea             	mov    %r13d,%edx
    4009:	48 89 de             	mov    %rbx,%rsi
    400c:	4c 89 e7             	mov    %r12,%rdi
    400f:	41 83 c7 01          	add    $0x1,%r15d
    4013:	ff d5                	call   *%rbp
    4015:	c5 7a 10 64 24 1c    	vmovss 0x1c(%rsp),%xmm12
    401b:	c5 1a 58 2b          	vaddss (%rbx),%xmm12,%xmm13
    401f:	c5 7a 11 6c 24 1c    	vmovss %xmm13,0x1c(%rsp)
    4025:	45 39 fe             	cmp    %r15d,%r14d
    4028:	0f 84 e5 00 00 00    	je     4113 <_Z9benchmarkPFvPKfPfiES0_S1_iii.constprop.0+0x363>
    402e:	44 89 ea             	mov    %r13d,%edx
    4031:	48 89 de             	mov    %rbx,%rsi
    4034:	4c 89 e7             	mov    %r12,%rdi
    4037:	41 83 c7 08          	add    $0x8,%r15d
    403b:	ff d5                	call   *%rbp
    403d:	c5 7a 10 74 24 1c    	vmovss 0x1c(%rsp),%xmm14
    4043:	c5 0a 58 3b          	vaddss (%rbx),%xmm14,%xmm15
    4047:	44 89 ea             	mov    %r13d,%edx
    404a:	48 89 de             	mov    %rbx,%rsi
    404d:	4c 89 e7             	mov    %r12,%rdi
    4050:	c5 7a 11 7c 24 1c    	vmovss %xmm15,0x1c(%rsp)
    4056:	ff d5                	call   *%rbp
    4058:	c5 fa 10 44 24 1c    	vmovss 0x1c(%rsp),%xmm0
    405e:	c5 fa 58 0b          	vaddss (%rbx),%xmm0,%xmm1
    4062:	44 89 ea             	mov    %r13d,%edx
    4065:	48 89 de             	mov    %rbx,%rsi
    4068:	4c 89 e7             	mov    %r12,%rdi
    406b:	c5 fa 11 4c 24 1c    	vmovss %xmm1,0x1c(%rsp)
    4071:	ff d5                	call   *%rbp
    4073:	c5 fa 10 54 24 1c    	vmovss 0x1c(%rsp),%xmm2
    4079:	c5 ea 58 1b          	vaddss (%rbx),%xmm2,%xmm3
    407d:	44 89 ea             	mov    %r13d,%edx
    4080:	48 89 de             	mov    %rbx,%rsi
    4083:	4c 89 e7             	mov    %r12,%rdi
    4086:	c5 fa 11 5c 24 1c    	vmovss %xmm3,0x1c(%rsp)
    408c:	ff d5                	call   *%rbp
    408e:	c5 fa 10 64 24 1c    	vmovss 0x1c(%rsp),%xmm4
    4094:	c5 da 58 2b          	vaddss (%rbx),%xmm4,%xmm5
    4098:	44 89 ea             	mov    %r13d,%edx
    409b:	48 89 de             	mov    %rbx,%rsi
    409e:	4c 89 e7             	mov    %r12,%rdi
    40a1:	c5 fa 11 6c 24 1c    	vmovss %xmm5,0x1c(%rsp)
    40a7:	ff d5                	call   *%rbp
    40a9:	c5 fa 10 74 24 1c    	vmovss 0x1c(%rsp),%xmm6
    40af:	c5 ca 58 3b          	vaddss (%rbx),%xmm6,%xmm7
    40b3:	44 89 ea             	mov    %r13d,%edx
    40b6:	48 89 de             	mov    %rbx,%rsi
    40b9:	4c 89 e7             	mov    %r12,%rdi
    40bc:	c5 fa 11 7c 24 1c    	vmovss %xmm7,0x1c(%rsp)
    40c2:	ff d5                	call   *%rbp
    40c4:	c5 7a 10 44 24 1c    	vmovss 0x1c(%rsp),%xmm8
    40ca:	c5 3a 58 0b          	vaddss (%rbx),%xmm8,%xmm9
    40ce:	44 89 ea             	mov    %r13d,%edx
    40d1:	48 89 de             	mov    %rbx,%rsi
    40d4:	4c 89 e7             	mov    %r12,%rdi
    40d7:	c5 7a 11 4c 24 1c    	vmovss %xmm9,0x1c(%rsp)
    40dd:	ff d5                	call   *%rbp
    40df:	c5 7a 10 54 24 1c    	vmovss 0x1c(%rsp),%xmm10
    40e5:	c5 2a 58 1b          	vaddss (%rbx),%xmm10,%xmm11
    40e9:	44 89 ea             	mov    %r13d,%edx
    40ec:	48 89 de             	mov    %rbx,%rsi
    40ef:	4c 89 e7             	mov    %r12,%rdi
    40f2:	c5 7a 11 5c 24 1c    	vmovss %xmm11,0x1c(%rsp)
    40f8:	ff d5                	call   *%rbp
    40fa:	c5 7a 10 64 24 1c    	vmovss 0x1c(%rsp),%xmm12
    4100:	c5 1a 58 2b          	vaddss (%rbx),%xmm12,%xmm13
    4104:	c5 7a 11 6c 24 1c    	vmovss %xmm13,0x1c(%rsp)
    410a:	45 39 fe             	cmp    %r15d,%r14d
    410d:	0f 85 1b ff ff ff    	jne    402e <_Z9benchmarkPFvPKfPfiES0_S1_iii.constprop.0+0x27e>
    4113:	e8 28 f3 ff ff       	call   3440 <_ZNSt6chrono3_V212system_clock3nowEv@plt>
    4118:	4c 8b 1c 24          	mov    (%rsp),%r11
    411c:	c4 41 09 57 f6       	vxorpd %xmm14,%xmm14,%xmm14
    4121:	4c 29 d8             	sub    %r11,%rax
    4124:	c4 61 8b 2a f8       	vcvtsi2sd %rax,%xmm14,%xmm15
    4129:	c5 83 59 05 77 cf 01 	vmulsd 0x1cf77(%rip),%xmm15,%xmm0        # 210a8 <_ZNSt8__detail31__from_chars_alnum_to_val_tableILb0EE5valueE+0x208>
    4130:	00 
    4131:	c5 fb 11 04 24       	vmovsd %xmm0,(%rsp)
    4136:	e8 25 f6 ff ff       	call   3760 <omp_get_max_threads@plt>
    413b:	89 c7                	mov    %eax,%edi
    413d:	e8 fe f4 ff ff       	call   3640 <omp_set_num_threads@plt>
    4142:	c5 f1 57 c9          	vxorpd %xmm1,%xmm1,%xmm1
    4146:	c5 fb 10 1c 24       	vmovsd (%rsp),%xmm3
    414b:	48 83 c4 28          	add    $0x28,%rsp
    414f:	c4 c1 73 2a d6       	vcvtsi2sd %r14d,%xmm1,%xmm2
    4154:	5b                   	pop    %rbx
    4155:	5d                   	pop    %rbp
    4156:	41 5c                	pop    %r12
    4158:	41 5d                	pop    %r13
    415a:	41 5e                	pop    %r14
    415c:	41 5f                	pop    %r15
    415e:	c5 e3 5e c2          	vdivsd %xmm2,%xmm3,%xmm0
    4162:	c3                   	ret
    4163:	0f 1f 44 00 00       	nopl   0x0(%rax,%rax,1)
    4168:	44 89 ea             	mov    %r13d,%edx
    416b:	48 89 de             	mov    %rbx,%rsi
    416e:	4c 89 e7             	mov    %r12,%rdi
    4171:	41 bf 01 00 00 00    	mov    $0x1,%r15d
    4177:	ff d5                	call   *%rbp
    4179:	c5 fa 10 44 24 1c    	vmovss 0x1c(%rsp),%xmm0
    417f:	c5 fa 58 0b          	vaddss (%rbx),%xmm0,%xmm1
    4183:	c5 fa 11 4c 24 1c    	vmovss %xmm1,0x1c(%rsp)
    4189:	e9 dd fd ff ff       	jmp    3f6b <_Z9benchmarkPFvPKfPfiES0_S1_iii.constprop.0+0x1bb>
    418e:	66 90                	xchg   %ax,%ax
    4190:	e8 ab f2 ff ff       	call   3440 <_ZNSt6chrono3_V212system_clock3nowEv@plt>
    4195:	c7 44 24 1c 00 00 00 	movl   $0x0,0x1c(%rsp)
    419c:	00 
    419d:	48 89 04 24          	mov    %rax,(%rsp)
    41a1:	45 85 ff             	test   %r15d,%r15d
    41a4:	0f 8e 69 ff ff ff    	jle    4113 <_Z9benchmarkPFvPKfPfiES0_S1_iii.constprop.0+0x363>
    41aa:	e9 7c fd ff ff       	jmp    3f2b <_Z9benchmarkPFvPKfPfiES0_S1_iii.constprop.0+0x17b>
    41af:	90                   	nop

00000000000041b0 <_ZNSt7__cxx1112basic_stringIcSt11char_traitsIcESaIcEEaSEOS4_.isra.0>:
    41b0:	55                   	push   %rbp
    41b1:	48 89 fd             	mov    %rdi,%rbp
    41b4:	53                   	push   %rbx
    41b5:	48 8d 45 10          	lea    0x10(%rbp),%rax
    41b9:	48 89 f3             	mov    %rsi,%rbx
    41bc:	4c 8d 43 10          	lea    0x10(%rbx),%r8
    41c0:	48 83 ec 08          	sub    $0x8,%rsp
    41c4:	48 8b 3f             	mov    (%rdi),%rdi
    41c7:	48 8b 36             	mov    (%rsi),%rsi
    41ca:	48 8b 53 08          	mov    0x8(%rbx),%rdx
    41ce:	48 39 c7             	cmp    %rax,%rdi
    41d1:	74 3d                	je     4210 <_ZNSt7__cxx1112basic_stringIcSt11char_traitsIcESaIcEEaSEOS4_.isra.0+0x60>
    41d3:	49 39 f0             	cmp    %rsi,%r8
    41d6:	74 58                	je     4230 <_ZNSt7__cxx1112basic_stringIcSt11char_traitsIcESaIcEEaSEOS4_.isra.0+0x80>
    41d8:	48 89 75 00          	mov    %rsi,0x0(%rbp)
    41dc:	48 8b 4d 10          	mov    0x10(%rbp),%rcx
    41e0:	48 89 55 08          	mov    %rdx,0x8(%rbp)
    41e4:	48 8b 53 10          	mov    0x10(%rbx),%rdx
    41e8:	48 89 55 10          	mov    %rdx,0x10(%rbp)
    41ec:	48 85 ff             	test   %rdi,%rdi
    41ef:	74 6f                	je     4260 <_ZNSt7__cxx1112basic_stringIcSt11char_traitsIcESaIcEEaSEOS4_.isra.0+0xb0>
    41f1:	48 89 3b             	mov    %rdi,(%rbx)
    41f4:	48 89 4b 10          	mov    %rcx,0x10(%rbx)
    41f8:	48 c7 43 08 00 00 00 	movq   $0x0,0x8(%rbx)
    41ff:	00 
    4200:	c6 07 00             	movb   $0x0,(%rdi)
    4203:	48 83 c4 08          	add    $0x8,%rsp
    4207:	5b                   	pop    %rbx
    4208:	5d                   	pop    %rbp
    4209:	c3                   	ret
    420a:	66 0f 1f 44 00 00    	nopw   0x0(%rax,%rax,1)
    4210:	49 39 f0             	cmp    %rsi,%r8
    4213:	74 1b                	je     4230 <_ZNSt7__cxx1112basic_stringIcSt11char_traitsIcESaIcEEaSEOS4_.isra.0+0x80>
    4215:	48 89 75 00          	mov    %rsi,0x0(%rbp)
    4219:	4c 89 c7             	mov    %r8,%rdi
    421c:	48 89 55 08          	mov    %rdx,0x8(%rbp)
    4220:	48 8b 73 10          	mov    0x10(%rbx),%rsi
    4224:	48 89 75 10          	mov    %rsi,0x10(%rbp)
    4228:	48 89 3b             	mov    %rdi,(%rbx)
    422b:	eb cb                	jmp    41f8 <_ZNSt7__cxx1112basic_stringIcSt11char_traitsIcESaIcEEaSEOS4_.isra.0+0x48>
    422d:	0f 1f 00             	nopl   (%rax)
    4230:	48 39 dd             	cmp    %rbx,%rbp
    4233:	74 4b                	je     4280 <_ZNSt7__cxx1112basic_stringIcSt11char_traitsIcESaIcEEaSEOS4_.isra.0+0xd0>
    4235:	48 85 d2             	test   %rdx,%rdx
    4238:	74 13                	je     424d <_ZNSt7__cxx1112basic_stringIcSt11char_traitsIcESaIcEEaSEOS4_.isra.0+0x9d>
    423a:	48 83 fa 01          	cmp    $0x1,%rdx
    423e:	74 28                	je     4268 <_ZNSt7__cxx1112basic_stringIcSt11char_traitsIcESaIcEEaSEOS4_.isra.0+0xb8>
    4240:	e8 5b f3 ff ff       	call   35a0 <memcpy@plt>
    4245:	48 8b 53 08          	mov    0x8(%rbx),%rdx
    4249:	48 8b 7d 00          	mov    0x0(%rbp),%rdi
    424d:	48 89 55 08          	mov    %rdx,0x8(%rbp)
    4251:	c6 04 17 00          	movb   $0x0,(%rdi,%rdx,1)
    4255:	48 8b 3b             	mov    (%rbx),%rdi
    4258:	eb 9e                	jmp    41f8 <_ZNSt7__cxx1112basic_stringIcSt11char_traitsIcESaIcEEaSEOS4_.isra.0+0x48>
    425a:	66 0f 1f 44 00 00    	nopw   0x0(%rax,%rax,1)
    4260:	4c 89 c7             	mov    %r8,%rdi
    4263:	eb c3                	jmp    4228 <_ZNSt7__cxx1112basic_stringIcSt11char_traitsIcESaIcEEaSEOS4_.isra.0+0x78>
    4265:	0f 1f 00             	nopl   (%rax)
    4268:	44 0f b6 0e          	movzbl (%rsi),%r9d
    426c:	44 88 0f             	mov    %r9b,(%rdi)
    426f:	48 8b 53 08          	mov    0x8(%rbx),%rdx
    4273:	48 8b 7d 00          	mov    0x0(%rbp),%rdi
    4277:	eb d4                	jmp    424d <_ZNSt7__cxx1112basic_stringIcSt11char_traitsIcESaIcEEaSEOS4_.isra.0+0x9d>
    4279:	0f 1f 80 00 00 00 00 	nopl   0x0(%rax)
    4280:	48 89 f7             	mov    %rsi,%rdi
    4283:	e9 70 ff ff ff       	jmp    41f8 <_ZNSt7__cxx1112basic_stringIcSt11char_traitsIcESaIcEEaSEOS4_.isra.0+0x48>
    4288:	0f 1f 84 00 00 00 00 	nopl   0x0(%rax,%rax,1)
    428f:	00 

0000000000004290 <_ZNKSt17basic_string_viewIcSt11char_traitsIcEE6substrEmm.isra.0>:
    4290:	48 39 d7             	cmp    %rdx,%rdi
    4293:	72 11                	jb     42a6 <_ZNKSt17basic_string_viewIcSt11char_traitsIcEE6substrEmm.isra.0+0x16>
    4295:	48 29 d7             	sub    %rdx,%rdi
    4298:	48 89 c8             	mov    %rcx,%rax
    429b:	48 39 cf             	cmp    %rcx,%rdi
    429e:	48 0f 46 c7          	cmovbe %rdi,%rax
    42a2:	48 01 f2             	add    %rsi,%rdx
    42a5:	c3                   	ret
    42a6:	50                   	push   %rax
    42a7:	48 89 f9             	mov    %rdi,%rcx
    42aa:	48 8d 35 6a bd 01 00 	lea    0x1bd6a(%rip),%rsi        # 2001b <_IO_stdin_used+0x1b>
    42b1:	31 c0                	xor    %eax,%eax
    42b3:	48 8d 3d b6 be 01 00 	lea    0x1beb6(%rip),%rdi        # 20170 <_IO_stdin_used+0x170>
    42ba:	e8 41 f4 ff ff       	call   3700 <_ZSt24__throw_out_of_range_fmtPKcz@plt>
    42bf:	90                   	nop

00000000000042c0 <_ZSt4endlIcSt11char_traitsIcEERSt13basic_ostreamIT_T0_ES6_.isra.0>:
    42c0:	55                   	push   %rbp
    42c1:	53                   	push   %rbx
    42c2:	48 83 ec 08          	sub    $0x8,%rsp
    42c6:	48 8b 07             	mov    (%rdi),%rax
    42c9:	48 8b 50 e8          	mov    -0x18(%rax),%rdx
    42cd:	48 8b ac 17 f0 00 00 	mov    0xf0(%rdi,%rdx,1),%rbp
    42d4:	00 
    42d5:	48 85 ed             	test   %rbp,%rbp
    42d8:	74 51                	je     432b <_ZSt4endlIcSt11char_traitsIcEERSt13basic_ostreamIT_T0_ES6_.isra.0+0x6b>
    42da:	80 7d 38 00          	cmpb   $0x0,0x38(%rbp)
    42de:	48 89 fb             	mov    %rdi,%rbx
    42e1:	74 1d                	je     4300 <_ZSt4endlIcSt11char_traitsIcEERSt13basic_ostreamIT_T0_ES6_.isra.0+0x40>
    42e3:	0f be 75 43          	movsbl 0x43(%rbp),%esi
    42e7:	48 89 df             	mov    %rbx,%rdi
    42ea:	e8 41 f1 ff ff       	call   3430 <_ZNSo3putEc@plt>
    42ef:	48 83 c4 08          	add    $0x8,%rsp
    42f3:	5b                   	pop    %rbx
    42f4:	48 89 c7             	mov    %rax,%rdi
    42f7:	5d                   	pop    %rbp
    42f8:	e9 73 f2 ff ff       	jmp    3570 <_ZNSo5flushEv@plt>
    42fd:	0f 1f 00             	nopl   (%rax)
    4300:	48 89 ef             	mov    %rbp,%rdi
    4303:	e8 58 f3 ff ff       	call   3660 <_ZNKSt5ctypeIcE13_M_widen_initEv@plt>
    4308:	48 8b 4d 00          	mov    0x0(%rbp),%rcx
    430c:	be 0a 00 00 00       	mov    $0xa,%esi
    4311:	48 8d 3d 68 11 00 00 	lea    0x1168(%rip),%rdi        # 5480 <_ZNKSt5ctypeIcE8do_widenEc>
    4318:	48 8b 41 30          	mov    0x30(%rcx),%rax
    431c:	48 39 f8             	cmp    %rdi,%rax
    431f:	74 c6                	je     42e7 <_ZSt4endlIcSt11char_traitsIcEERSt13basic_ostreamIT_T0_ES6_.isra.0+0x27>
    4321:	48 89 ef             	mov    %rbp,%rdi
    4324:	ff d0                	call   *%rax
    4326:	0f be f0             	movsbl %al,%esi
    4329:	eb bc                	jmp    42e7 <_ZSt4endlIcSt11char_traitsIcEERSt13basic_ostreamIT_T0_ES6_.isra.0+0x27>
    432b:	e8 50 f3 ff ff       	call   3680 <_ZSt16__throw_bad_castv@plt>

0000000000004330 <_ZNSt7__cxx1112basic_stringIcSt11char_traitsIcESaIcEE14_M_replace_auxEmmmc.isra.0>:
    4330:	48 b8 ff ff ff ff ff 	movabs $0x7fffffffffffffff,%rax
    4337:	ff ff 7f 
    433a:	41 57                	push   %r15
    433c:	41 56                	push   %r14
    433e:	48 01 d0             	add    %rdx,%rax
    4341:	41 55                	push   %r13
    4343:	41 54                	push   %r12
    4345:	55                   	push   %rbp
    4346:	53                   	push   %rbx
    4347:	48 83 ec 28          	sub    $0x28,%rsp
    434b:	4c 8b 6f 08          	mov    0x8(%rdi),%r13
    434f:	44 89 44 24 04       	mov    %r8d,0x4(%rsp)
    4354:	4c 29 e8             	sub    %r13,%rax
    4357:	48 39 c8             	cmp    %rcx,%rax
    435a:	0f 82 4b 02 00 00    	jb     45ab <_ZNSt7__cxx1112basic_stringIcSt11char_traitsIcESaIcEE14_M_replace_auxEmmmc.isra.0+0x27b>
    4360:	49 89 c8             	mov    %rcx,%r8
    4363:	48 8b 07             	mov    (%rdi),%rax
    4366:	4c 8d 57 10          	lea    0x10(%rdi),%r10
    436a:	48 89 fb             	mov    %rdi,%rbx
    436d:	49 29 d0             	sub    %rdx,%r8
    4370:	49 89 f1             	mov    %rsi,%r9
    4373:	48 89 d5             	mov    %rdx,%rbp
    4376:	49 89 cc             	mov    %rcx,%r12
    4379:	4f 8d 34 28          	lea    (%r8,%r13,1),%r14
    437d:	4c 39 d0             	cmp    %r10,%rax
    4380:	0f 84 aa 01 00 00    	je     4530 <_ZNSt7__cxx1112basic_stringIcSt11char_traitsIcESaIcEE14_M_replace_auxEmmmc.isra.0+0x200>
    4386:	4c 8b 7f 10          	mov    0x10(%rdi),%r15
    438a:	4d 39 f7             	cmp    %r14,%r15
    438d:	72 79                	jb     4408 <_ZNSt7__cxx1112basic_stringIcSt11char_traitsIcESaIcEE14_M_replace_auxEmmmc.isra.0+0xd8>
    438f:	4a 8d 7c 0d 00       	lea    0x0(%rbp,%r9,1),%rdi
    4394:	49 29 fd             	sub    %rdi,%r13
    4397:	74 2f                	je     43c8 <_ZNSt7__cxx1112basic_stringIcSt11char_traitsIcESaIcEE14_M_replace_auxEmmmc.isra.0+0x98>
    4399:	4c 39 e5             	cmp    %r12,%rbp
    439c:	74 2a                	je     43c8 <_ZNSt7__cxx1112basic_stringIcSt11char_traitsIcESaIcEE14_M_replace_auxEmmmc.isra.0+0x98>
    439e:	4c 01 c8             	add    %r9,%rax
    43a1:	48 8d 34 28          	lea    (%rax,%rbp,1),%rsi
    43a5:	4a 8d 3c 20          	lea    (%rax,%r12,1),%rdi
    43a9:	49 83 fd 01          	cmp    $0x1,%r13
    43ad:	0f 84 bd 01 00 00    	je     4570 <_ZNSt7__cxx1112basic_stringIcSt11char_traitsIcESaIcEE14_M_replace_auxEmmmc.isra.0+0x240>
    43b3:	4c 89 ea             	mov    %r13,%rdx
    43b6:	4c 89 4c 24 08       	mov    %r9,0x8(%rsp)
    43bb:	e8 70 f3 ff ff       	call   3730 <memmove@plt>
    43c0:	48 8b 03             	mov    (%rbx),%rax
    43c3:	4c 8b 4c 24 08       	mov    0x8(%rsp),%r9
    43c8:	4d 85 e4             	test   %r12,%r12
    43cb:	74 1e                	je     43eb <_ZNSt7__cxx1112basic_stringIcSt11char_traitsIcESaIcEE14_M_replace_auxEmmmc.isra.0+0xbb>
    43cd:	4a 8d 3c 08          	lea    (%rax,%r9,1),%rdi
    43d1:	49 83 fc 01          	cmp    $0x1,%r12
    43d5:	0f 84 85 01 00 00    	je     4560 <_ZNSt7__cxx1112basic_stringIcSt11char_traitsIcESaIcEE14_M_replace_auxEmmmc.isra.0+0x230>
    43db:	0f be 74 24 04       	movsbl 0x4(%rsp),%esi
    43e0:	4c 89 e2             	mov    %r12,%rdx
    43e3:	e8 38 f1 ff ff       	call   3520 <memset@plt>
    43e8:	48 8b 03             	mov    (%rbx),%rax
    43eb:	4c 89 73 08          	mov    %r14,0x8(%rbx)
    43ef:	42 c6 04 30 00       	movb   $0x0,(%rax,%r14,1)
    43f4:	48 83 c4 28          	add    $0x28,%rsp
    43f8:	5b                   	pop    %rbx
    43f9:	5d                   	pop    %rbp
    43fa:	41 5c                	pop    %r12
    43fc:	41 5d                	pop    %r13
    43fe:	41 5e                	pop    %r14
    4400:	41 5f                	pop    %r15
    4402:	c3                   	ret
    4403:	0f 1f 44 00 00       	nopl   0x0(%rax,%rax,1)
    4408:	4d 85 f6             	test   %r14,%r14
    440b:	0f 88 a6 01 00 00    	js     45b7 <_ZNSt7__cxx1112basic_stringIcSt11char_traitsIcESaIcEE14_M_replace_auxEmmmc.isra.0+0x287>
    4411:	48 01 f5             	add    %rsi,%rbp
    4414:	4d 01 ff             	add    %r15,%r15
    4417:	49 29 ed             	sub    %rbp,%r13
    441a:	4d 39 fe             	cmp    %r15,%r14
    441d:	0f 82 f5 00 00 00    	jb     4518 <_ZNSt7__cxx1112basic_stringIcSt11char_traitsIcESaIcEE14_M_replace_auxEmmmc.isra.0+0x1e8>
    4423:	4c 89 f7             	mov    %r14,%rdi
    4426:	4d 89 f7             	mov    %r14,%r15
    4429:	48 83 c7 01          	add    $0x1,%rdi
    442d:	0f 88 f2 00 00 00    	js     4525 <_ZNSt7__cxx1112basic_stringIcSt11char_traitsIcESaIcEE14_M_replace_auxEmmmc.isra.0+0x1f5>
    4433:	4c 89 4c 24 10       	mov    %r9,0x10(%rsp)
    4438:	4c 89 54 24 08       	mov    %r10,0x8(%rsp)
    443d:	e8 7e f1 ff ff       	call   35c0 <_Znwm@plt>
    4442:	4c 8b 4c 24 10       	mov    0x10(%rsp),%r9
    4447:	4c 8b 1b             	mov    (%rbx),%r11
    444a:	4c 8b 44 24 08       	mov    0x8(%rsp),%r8
    444f:	4d 85 c9             	test   %r9,%r9
    4452:	74 36                	je     448a <_ZNSt7__cxx1112basic_stringIcSt11char_traitsIcESaIcEE14_M_replace_auxEmmmc.isra.0+0x15a>
    4454:	49 83 f9 01          	cmp    $0x1,%r9
    4458:	0f 84 42 01 00 00    	je     45a0 <_ZNSt7__cxx1112basic_stringIcSt11char_traitsIcESaIcEE14_M_replace_auxEmmmc.isra.0+0x270>
    445e:	4c 89 ca             	mov    %r9,%rdx
    4461:	4c 89 de             	mov    %r11,%rsi
    4464:	48 89 c7             	mov    %rax,%rdi
    4467:	4c 89 44 24 18       	mov    %r8,0x18(%rsp)
    446c:	4c 89 4c 24 10       	mov    %r9,0x10(%rsp)
    4471:	4c 89 5c 24 08       	mov    %r11,0x8(%rsp)
    4476:	e8 25 f1 ff ff       	call   35a0 <memcpy@plt>
    447b:	4c 8b 44 24 18       	mov    0x18(%rsp),%r8
    4480:	4c 8b 4c 24 10       	mov    0x10(%rsp),%r9
    4485:	4c 8b 5c 24 08       	mov    0x8(%rsp),%r11
    448a:	4d 85 ed             	test   %r13,%r13
    448d:	75 41                	jne    44d0 <_ZNSt7__cxx1112basic_stringIcSt11char_traitsIcESaIcEE14_M_replace_auxEmmmc.isra.0+0x1a0>
    448f:	4d 39 d8             	cmp    %r11,%r8
    4492:	74 24                	je     44b8 <_ZNSt7__cxx1112basic_stringIcSt11char_traitsIcESaIcEE14_M_replace_auxEmmmc.isra.0+0x188>
    4494:	48 8b 4b 10          	mov    0x10(%rbx),%rcx
    4498:	4c 89 df             	mov    %r11,%rdi
    449b:	4c 89 4c 24 10       	mov    %r9,0x10(%rsp)
    44a0:	48 89 44 24 08       	mov    %rax,0x8(%rsp)
    44a5:	48 8d 71 01          	lea    0x1(%rcx),%rsi
    44a9:	e8 32 f1 ff ff       	call   35e0 <_ZdlPvm@plt>
    44ae:	4c 8b 4c 24 10       	mov    0x10(%rsp),%r9
    44b3:	48 8b 44 24 08       	mov    0x8(%rsp),%rax
    44b8:	48 89 03             	mov    %rax,(%rbx)
    44bb:	4c 89 7b 10          	mov    %r15,0x10(%rbx)
    44bf:	4d 85 e4             	test   %r12,%r12
    44c2:	0f 84 23 ff ff ff    	je     43eb <_ZNSt7__cxx1112basic_stringIcSt11char_traitsIcESaIcEE14_M_replace_auxEmmmc.isra.0+0xbb>
    44c8:	e9 00 ff ff ff       	jmp    43cd <_ZNSt7__cxx1112basic_stringIcSt11char_traitsIcESaIcEE14_M_replace_auxEmmmc.isra.0+0x9d>
    44cd:	0f 1f 00             	nopl   (%rax)
    44d0:	4b 8d 3c 0c          	lea    (%r12,%r9,1),%rdi
    44d4:	49 8d 34 2b          	lea    (%r11,%rbp,1),%rsi
    44d8:	48 01 c7             	add    %rax,%rdi
    44db:	49 83 fd 01          	cmp    $0x1,%r13
    44df:	0f 84 ab 00 00 00    	je     4590 <_ZNSt7__cxx1112basic_stringIcSt11char_traitsIcESaIcEE14_M_replace_auxEmmmc.isra.0+0x260>
    44e5:	4c 89 ea             	mov    %r13,%rdx
    44e8:	4c 89 4c 24 18       	mov    %r9,0x18(%rsp)
    44ed:	4c 89 44 24 08       	mov    %r8,0x8(%rsp)
    44f2:	48 89 44 24 10       	mov    %rax,0x10(%rsp)
    44f7:	e8 a4 f0 ff ff       	call   35a0 <memcpy@plt>
    44fc:	4c 8b 1b             	mov    (%rbx),%r11
    44ff:	4c 8b 4c 24 18       	mov    0x18(%rsp),%r9
    4504:	48 8b 44 24 10       	mov    0x10(%rsp),%rax
    4509:	4c 8b 44 24 08       	mov    0x8(%rsp),%r8
    450e:	e9 7c ff ff ff       	jmp    448f <_ZNSt7__cxx1112basic_stringIcSt11char_traitsIcESaIcEE14_M_replace_auxEmmmc.isra.0+0x15f>
    4513:	0f 1f 44 00 00       	nopl   0x0(%rax,%rax,1)
    4518:	49 8d 7f 01          	lea    0x1(%r15),%rdi
    451c:	4d 85 ff             	test   %r15,%r15
    451f:	0f 89 0e ff ff ff    	jns    4433 <_ZNSt7__cxx1112basic_stringIcSt11char_traitsIcESaIcEE14_M_replace_auxEmmmc.isra.0+0x103>
    4525:	e8 96 ef ff ff       	call   34c0 <_ZSt17__throw_bad_allocv@plt>
    452a:	66 0f 1f 44 00 00    	nopw   0x0(%rax,%rax,1)
    4530:	49 83 fe 0f          	cmp    $0xf,%r14
    4534:	0f 86 55 fe ff ff    	jbe    438f <_ZNSt7__cxx1112basic_stringIcSt11char_traitsIcESaIcEE14_M_replace_auxEmmmc.isra.0+0x5f>
    453a:	4d 85 f6             	test   %r14,%r14
    453d:	78 78                	js     45b7 <_ZNSt7__cxx1112basic_stringIcSt11char_traitsIcESaIcEE14_M_replace_auxEmmmc.isra.0+0x287>
    453f:	48 01 f5             	add    %rsi,%rbp
    4542:	49 29 ed             	sub    %rbp,%r13
    4545:	49 83 fe 1d          	cmp    $0x1d,%r14
    4549:	0f 87 d4 fe ff ff    	ja     4423 <_ZNSt7__cxx1112basic_stringIcSt11char_traitsIcESaIcEE14_M_replace_auxEmmmc.isra.0+0xf3>
    454f:	bf 1f 00 00 00       	mov    $0x1f,%edi
    4554:	41 bf 1e 00 00 00    	mov    $0x1e,%r15d
    455a:	e9 d4 fe ff ff       	jmp    4433 <_ZNSt7__cxx1112basic_stringIcSt11char_traitsIcESaIcEE14_M_replace_auxEmmmc.isra.0+0x103>
    455f:	90                   	nop
    4560:	0f b6 6c 24 04       	movzbl 0x4(%rsp),%ebp
    4565:	40 88 2f             	mov    %bpl,(%rdi)
    4568:	48 8b 03             	mov    (%rbx),%rax
    456b:	e9 7b fe ff ff       	jmp    43eb <_ZNSt7__cxx1112basic_stringIcSt11char_traitsIcESaIcEE14_M_replace_auxEmmmc.isra.0+0xbb>
    4570:	44 0f b6 2e          	movzbl (%rsi),%r13d
    4574:	44 88 2f             	mov    %r13b,(%rdi)
    4577:	48 8b 03             	mov    (%rbx),%rax
    457a:	4d 85 e4             	test   %r12,%r12
    457d:	0f 84 68 fe ff ff    	je     43eb <_ZNSt7__cxx1112basic_stringIcSt11char_traitsIcESaIcEE14_M_replace_auxEmmmc.isra.0+0xbb>
    4583:	e9 45 fe ff ff       	jmp    43cd <_ZNSt7__cxx1112basic_stringIcSt11char_traitsIcESaIcEE14_M_replace_auxEmmmc.isra.0+0x9d>
    4588:	0f 1f 84 00 00 00 00 	nopl   0x0(%rax,%rax,1)
    458f:	00 
    4590:	0f b6 36             	movzbl (%rsi),%esi
    4593:	40 88 37             	mov    %sil,(%rdi)
    4596:	4c 8b 1b             	mov    (%rbx),%r11
    4599:	e9 f1 fe ff ff       	jmp    448f <_ZNSt7__cxx1112basic_stringIcSt11char_traitsIcESaIcEE14_M_replace_auxEmmmc.isra.0+0x15f>
    459e:	66 90                	xchg   %ax,%ax
    45a0:	41 0f b6 13          	movzbl (%r11),%edx
    45a4:	88 10                	mov    %dl,(%rax)
    45a6:	e9 df fe ff ff       	jmp    448a <_ZNSt7__cxx1112basic_stringIcSt11char_traitsIcESaIcEE14_M_replace_auxEmmmc.isra.0+0x15a>
    45ab:	48 8d 3d 83 ba 01 00 	lea    0x1ba83(%rip),%rdi        # 20035 <_IO_stdin_used+0x35>
    45b2:	e8 59 ef ff ff       	call   3510 <_ZSt20__throw_length_errorPKc@plt>
    45b7:	48 8d 3d 94 ba 01 00 	lea    0x1ba94(%rip),%rdi        # 20052 <_IO_stdin_used+0x52>
    45be:	e8 4d ef ff ff       	call   3510 <_ZSt20__throw_length_errorPKc@plt>
    45c3:	90                   	nop
    45c4:	66 66 2e 0f 1f 84 00 	data16 cs nopw 0x0(%rax,%rax,1)
    45cb:	00 00 00 00 
    45cf:	90                   	nop

00000000000045d0 <_ZNSt7__cxx1112basic_stringIcSt11char_traitsIcESaIcEE10_M_replaceEmmPKcm.isra.0>:
    45d0:	41 57                	push   %r15
    45d2:	48 89 d0             	mov    %rdx,%rax
    45d5:	48 ba ff ff ff ff ff 	movabs $0x7fffffffffffffff,%rdx
    45dc:	ff ff 7f 
    45df:	41 56                	push   %r14
    45e1:	48 01 c2             	add    %rax,%rdx
    45e4:	41 55                	push   %r13
    45e6:	41 54                	push   %r12
    45e8:	55                   	push   %rbp
    45e9:	53                   	push   %rbx
    45ea:	48 83 ec 28          	sub    $0x28,%rsp
    45ee:	4c 8b 6f 08          	mov    0x8(%rdi),%r13
    45f2:	4c 29 ea             	sub    %r13,%rdx
    45f5:	4c 39 c2             	cmp    %r8,%rdx
    45f8:	0f 82 8d 02 00 00    	jb     488b <_ZNSt7__cxx1112basic_stringIcSt11char_traitsIcESaIcEE10_M_replaceEmmPKcm.isra.0+0x2bb>
    45fe:	4d 89 c7             	mov    %r8,%r15
    4601:	49 89 f1             	mov    %rsi,%r9
    4604:	48 8b 37             	mov    (%rdi),%rsi
    4607:	4c 89 c5             	mov    %r8,%rbp
    460a:	49 29 c7             	sub    %rax,%r15
    460d:	4c 8d 47 10          	lea    0x10(%rdi),%r8
    4611:	48 89 fb             	mov    %rdi,%rbx
    4614:	4d 01 ef             	add    %r13,%r15
    4617:	4c 39 c6             	cmp    %r8,%rsi
    461a:	0f 84 f0 01 00 00    	je     4810 <_ZNSt7__cxx1112basic_stringIcSt11char_traitsIcESaIcEE10_M_replaceEmmPKcm.isra.0+0x240>
    4620:	4c 8b 77 10          	mov    0x10(%rdi),%r14
    4624:	4d 39 fe             	cmp    %r15,%r14
    4627:	0f 82 a3 00 00 00    	jb     46d0 <_ZNSt7__cxx1112basic_stringIcSt11char_traitsIcESaIcEE10_M_replaceEmmPKcm.isra.0+0x100>
    462d:	4e 8d 34 0e          	lea    (%rsi,%r9,1),%r14
    4631:	4c 89 ea             	mov    %r13,%rdx
    4634:	49 01 c1             	add    %rax,%r9
    4637:	4c 29 ca             	sub    %r9,%rdx
    463a:	48 39 f1             	cmp    %rsi,%rcx
    463d:	73 79                	jae    46b8 <_ZNSt7__cxx1112basic_stringIcSt11char_traitsIcESaIcEE10_M_replaceEmmPKcm.isra.0+0xe8>
    463f:	48 85 d2             	test   %rdx,%rdx
    4642:	74 24                	je     4668 <_ZNSt7__cxx1112basic_stringIcSt11char_traitsIcESaIcEE10_M_replaceEmmPKcm.isra.0+0x98>
    4644:	48 39 e8             	cmp    %rbp,%rax
    4647:	74 1f                	je     4668 <_ZNSt7__cxx1112basic_stringIcSt11char_traitsIcESaIcEE10_M_replaceEmmPKcm.isra.0+0x98>
    4649:	49 8d 34 06          	lea    (%r14,%rax,1),%rsi
    464d:	49 8d 3c 2e          	lea    (%r14,%rbp,1),%rdi
    4651:	48 83 fa 01          	cmp    $0x1,%rdx
    4655:	0f 84 ed 01 00 00    	je     4848 <_ZNSt7__cxx1112basic_stringIcSt11char_traitsIcESaIcEE10_M_replaceEmmPKcm.isra.0+0x278>
    465b:	48 89 0c 24          	mov    %rcx,(%rsp)
    465f:	e8 cc f0 ff ff       	call   3730 <memmove@plt>
    4664:	48 8b 0c 24          	mov    (%rsp),%rcx
    4668:	48 85 ed             	test   %rbp,%rbp
    466b:	74 29                	je     4696 <_ZNSt7__cxx1112basic_stringIcSt11char_traitsIcESaIcEE10_M_replaceEmmPKcm.isra.0+0xc6>
    466d:	48 83 fd 01          	cmp    $0x1,%rbp
    4671:	74 1d                	je     4690 <_ZNSt7__cxx1112basic_stringIcSt11char_traitsIcESaIcEE10_M_replaceEmmPKcm.isra.0+0xc0>
    4673:	48 89 ea             	mov    %rbp,%rdx
    4676:	48 89 ce             	mov    %rcx,%rsi
    4679:	4c 89 f7             	mov    %r14,%rdi
    467c:	e8 1f ef ff ff       	call   35a0 <memcpy@plt>
    4681:	4c 8b 23             	mov    (%rbx),%r12
    4684:	eb 13                	jmp    4699 <_ZNSt7__cxx1112basic_stringIcSt11char_traitsIcESaIcEE10_M_replaceEmmPKcm.isra.0+0xc9>
    4686:	66 2e 0f 1f 84 00 00 	cs nopw 0x0(%rax,%rax,1)
    468d:	00 00 00 
    4690:	0f b6 29             	movzbl (%rcx),%ebp
    4693:	41 88 2e             	mov    %bpl,(%r14)
    4696:	4c 8b 23             	mov    (%rbx),%r12
    4699:	4c 89 7b 08          	mov    %r15,0x8(%rbx)
    469d:	43 c6 04 3c 00       	movb   $0x0,(%r12,%r15,1)
    46a2:	48 83 c4 28          	add    $0x28,%rsp
    46a6:	5b                   	pop    %rbx
    46a7:	5d                   	pop    %rbp
    46a8:	41 5c                	pop    %r12
    46aa:	41 5d                	pop    %r13
    46ac:	41 5e                	pop    %r14
    46ae:	41 5f                	pop    %r15
    46b0:	c3                   	ret
    46b1:	0f 1f 80 00 00 00 00 	nopl   0x0(%rax)
    46b8:	4c 01 ee             	add    %r13,%rsi
    46bb:	48 39 ce             	cmp    %rcx,%rsi
    46be:	0f 83 1c f1 ff ff    	jae    37e0 <_ZNSt7__cxx1112basic_stringIcSt11char_traitsIcESaIcEE10_M_replaceEmmPKcm.isra.0.cold>
    46c4:	e9 76 ff ff ff       	jmp    463f <_ZNSt7__cxx1112basic_stringIcSt11char_traitsIcESaIcEE10_M_replaceEmmPKcm.isra.0+0x6f>
    46c9:	0f 1f 80 00 00 00 00 	nopl   0x0(%rax)
    46d0:	4d 85 ff             	test   %r15,%r15
    46d3:	0f 88 be 01 00 00    	js     4897 <_ZNSt7__cxx1112basic_stringIcSt11char_traitsIcESaIcEE10_M_replaceEmmPKcm.isra.0+0x2c7>
    46d9:	4c 01 c8             	add    %r9,%rax
    46dc:	4d 01 f6             	add    %r14,%r14
    46df:	48 89 44 24 18       	mov    %rax,0x18(%rsp)
    46e4:	49 29 c5             	sub    %rax,%r13
    46e7:	4d 39 f7             	cmp    %r14,%r15
    46ea:	0f 82 08 01 00 00    	jb     47f8 <_ZNSt7__cxx1112basic_stringIcSt11char_traitsIcESaIcEE10_M_replaceEmmPKcm.isra.0+0x228>
    46f0:	4c 89 ff             	mov    %r15,%rdi
    46f3:	4d 89 fe             	mov    %r15,%r14
    46f6:	48 83 c7 01          	add    $0x1,%rdi
    46fa:	0f 88 05 01 00 00    	js     4805 <_ZNSt7__cxx1112basic_stringIcSt11char_traitsIcESaIcEE10_M_replaceEmmPKcm.isra.0+0x235>
    4700:	48 89 4c 24 10       	mov    %rcx,0x10(%rsp)
    4705:	4c 89 4c 24 08       	mov    %r9,0x8(%rsp)
    470a:	4c 89 04 24          	mov    %r8,(%rsp)
    470e:	e8 ad ee ff ff       	call   35c0 <_Znwm@plt>
    4713:	4c 8b 54 24 08       	mov    0x8(%rsp),%r10
    4718:	4c 8b 0c 24          	mov    (%rsp),%r9
    471c:	48 8b 4c 24 10       	mov    0x10(%rsp),%rcx
    4721:	49 89 c4             	mov    %rax,%r12
    4724:	4d 85 d2             	test   %r10,%r10
    4727:	74 34                	je     475d <_ZNSt7__cxx1112basic_stringIcSt11char_traitsIcESaIcEE10_M_replaceEmmPKcm.isra.0+0x18d>
    4729:	48 8b 33             	mov    (%rbx),%rsi
    472c:	49 83 fa 01          	cmp    $0x1,%r10
    4730:	0f 84 4a 01 00 00    	je     4880 <_ZNSt7__cxx1112basic_stringIcSt11char_traitsIcESaIcEE10_M_replaceEmmPKcm.isra.0+0x2b0>
    4736:	4c 89 d2             	mov    %r10,%rdx
    4739:	48 89 c7             	mov    %rax,%rdi
    473c:	48 89 4c 24 10       	mov    %rcx,0x10(%rsp)
    4741:	4c 89 4c 24 08       	mov    %r9,0x8(%rsp)
    4746:	4c 89 14 24          	mov    %r10,(%rsp)
    474a:	e8 51 ee ff ff       	call   35a0 <memcpy@plt>
    474f:	48 8b 4c 24 10       	mov    0x10(%rsp),%rcx
    4754:	4c 8b 4c 24 08       	mov    0x8(%rsp),%r9
    4759:	4c 8b 14 24          	mov    (%rsp),%r10
    475d:	48 85 c9             	test   %rcx,%rcx
    4760:	74 30                	je     4792 <_ZNSt7__cxx1112basic_stringIcSt11char_traitsIcESaIcEE10_M_replaceEmmPKcm.isra.0+0x1c2>
    4762:	48 85 ed             	test   %rbp,%rbp
    4765:	74 2b                	je     4792 <_ZNSt7__cxx1112basic_stringIcSt11char_traitsIcESaIcEE10_M_replaceEmmPKcm.isra.0+0x1c2>
    4767:	4b 8d 3c 14          	lea    (%r12,%r10,1),%rdi
    476b:	48 83 fd 01          	cmp    $0x1,%rbp
    476f:	0f 84 fb 00 00 00    	je     4870 <_ZNSt7__cxx1112basic_stringIcSt11char_traitsIcESaIcEE10_M_replaceEmmPKcm.isra.0+0x2a0>
    4775:	48 89 ea             	mov    %rbp,%rdx
    4778:	48 89 ce             	mov    %rcx,%rsi
    477b:	4c 89 54 24 08       	mov    %r10,0x8(%rsp)
    4780:	4c 89 0c 24          	mov    %r9,(%rsp)
    4784:	e8 17 ee ff ff       	call   35a0 <memcpy@plt>
    4789:	4c 8b 54 24 08       	mov    0x8(%rsp),%r10
    478e:	4c 8b 0c 24          	mov    (%rsp),%r9
    4792:	48 8b 13             	mov    (%rbx),%rdx
    4795:	4d 85 ed             	test   %r13,%r13
    4798:	75 26                	jne    47c0 <_ZNSt7__cxx1112basic_stringIcSt11char_traitsIcESaIcEE10_M_replaceEmmPKcm.isra.0+0x1f0>
    479a:	49 39 d1             	cmp    %rdx,%r9
    479d:	74 10                	je     47af <_ZNSt7__cxx1112basic_stringIcSt11char_traitsIcESaIcEE10_M_replaceEmmPKcm.isra.0+0x1df>
    479f:	4c 8b 6b 10          	mov    0x10(%rbx),%r13
    47a3:	48 89 d7             	mov    %rdx,%rdi
    47a6:	49 8d 75 01          	lea    0x1(%r13),%rsi
    47aa:	e8 31 ee ff ff       	call   35e0 <_ZdlPvm@plt>
    47af:	4c 89 23             	mov    %r12,(%rbx)
    47b2:	4c 89 73 10          	mov    %r14,0x10(%rbx)
    47b6:	e9 de fe ff ff       	jmp    4699 <_ZNSt7__cxx1112basic_stringIcSt11char_traitsIcESaIcEE10_M_replaceEmmPKcm.isra.0+0xc9>
    47bb:	0f 1f 44 00 00       	nopl   0x0(%rax,%rax,1)
    47c0:	48 8b 74 24 18       	mov    0x18(%rsp),%rsi
    47c5:	4c 01 d5             	add    %r10,%rbp
    47c8:	49 8d 3c 2c          	lea    (%r12,%rbp,1),%rdi
    47cc:	48 01 d6             	add    %rdx,%rsi
    47cf:	49 83 fd 01          	cmp    $0x1,%r13
    47d3:	0f 84 87 00 00 00    	je     4860 <_ZNSt7__cxx1112basic_stringIcSt11char_traitsIcESaIcEE10_M_replaceEmmPKcm.isra.0+0x290>
    47d9:	48 89 54 24 08       	mov    %rdx,0x8(%rsp)
    47de:	4c 89 ea             	mov    %r13,%rdx
    47e1:	4c 89 0c 24          	mov    %r9,(%rsp)
    47e5:	e8 b6 ed ff ff       	call   35a0 <memcpy@plt>
    47ea:	48 8b 54 24 08       	mov    0x8(%rsp),%rdx
    47ef:	4c 8b 0c 24          	mov    (%rsp),%r9
    47f3:	eb a5                	jmp    479a <_ZNSt7__cxx1112basic_stringIcSt11char_traitsIcESaIcEE10_M_replaceEmmPKcm.isra.0+0x1ca>
    47f5:	0f 1f 00             	nopl   (%rax)
    47f8:	49 8d 7e 01          	lea    0x1(%r14),%rdi
    47fc:	4d 85 f6             	test   %r14,%r14
    47ff:	0f 89 fb fe ff ff    	jns    4700 <_ZNSt7__cxx1112basic_stringIcSt11char_traitsIcESaIcEE10_M_replaceEmmPKcm.isra.0+0x130>
    4805:	e8 b6 ec ff ff       	call   34c0 <_ZSt17__throw_bad_allocv@plt>
    480a:	66 0f 1f 44 00 00    	nopw   0x0(%rax,%rax,1)
    4810:	49 83 ff 0f          	cmp    $0xf,%r15
    4814:	0f 86 13 fe ff ff    	jbe    462d <_ZNSt7__cxx1112basic_stringIcSt11char_traitsIcESaIcEE10_M_replaceEmmPKcm.isra.0+0x5d>
    481a:	4d 85 ff             	test   %r15,%r15
    481d:	78 78                	js     4897 <_ZNSt7__cxx1112basic_stringIcSt11char_traitsIcESaIcEE10_M_replaceEmmPKcm.isra.0+0x2c7>
    481f:	4c 01 c8             	add    %r9,%rax
    4822:	48 89 44 24 18       	mov    %rax,0x18(%rsp)
    4827:	49 29 c5             	sub    %rax,%r13
    482a:	49 83 ff 1d          	cmp    $0x1d,%r15
    482e:	0f 87 bc fe ff ff    	ja     46f0 <_ZNSt7__cxx1112basic_stringIcSt11char_traitsIcESaIcEE10_M_replaceEmmPKcm.isra.0+0x120>
    4834:	bf 1f 00 00 00       	mov    $0x1f,%edi
    4839:	41 be 1e 00 00 00    	mov    $0x1e,%r14d
    483f:	e9 bc fe ff ff       	jmp    4700 <_ZNSt7__cxx1112basic_stringIcSt11char_traitsIcESaIcEE10_M_replaceEmmPKcm.isra.0+0x130>
    4844:	0f 1f 40 00          	nopl   0x0(%rax)
    4848:	0f b6 36             	movzbl (%rsi),%esi
    484b:	40 88 37             	mov    %sil,(%rdi)
    484e:	48 85 ed             	test   %rbp,%rbp
    4851:	0f 85 16 fe ff ff    	jne    466d <_ZNSt7__cxx1112basic_stringIcSt11char_traitsIcESaIcEE10_M_replaceEmmPKcm.isra.0+0x9d>
    4857:	e9 3a fe ff ff       	jmp    4696 <_ZNSt7__cxx1112basic_stringIcSt11char_traitsIcESaIcEE10_M_replaceEmmPKcm.isra.0+0xc6>
    485c:	0f 1f 40 00          	nopl   0x0(%rax)
    4860:	0f b6 06             	movzbl (%rsi),%eax
    4863:	88 07                	mov    %al,(%rdi)
    4865:	e9 30 ff ff ff       	jmp    479a <_ZNSt7__cxx1112basic_stringIcSt11char_traitsIcESaIcEE10_M_replaceEmmPKcm.isra.0+0x1ca>
    486a:	66 0f 1f 44 00 00    	nopw   0x0(%rax,%rax,1)
    4870:	44 0f b6 19          	movzbl (%rcx),%r11d
    4874:	44 88 1f             	mov    %r11b,(%rdi)
    4877:	e9 16 ff ff ff       	jmp    4792 <_ZNSt7__cxx1112basic_stringIcSt11char_traitsIcESaIcEE10_M_replaceEmmPKcm.isra.0+0x1c2>
    487c:	0f 1f 40 00          	nopl   0x0(%rax)
    4880:	0f b6 3e             	movzbl (%rsi),%edi
    4883:	40 88 38             	mov    %dil,(%rax)
    4886:	e9 d2 fe ff ff       	jmp    475d <_ZNSt7__cxx1112basic_stringIcSt11char_traitsIcESaIcEE10_M_replaceEmmPKcm.isra.0+0x18d>
    488b:	48 8d 3d d8 b7 01 00 	lea    0x1b7d8(%rip),%rdi        # 2006a <_IO_stdin_used+0x6a>
    4892:	e8 79 ec ff ff       	call   3510 <_ZSt20__throw_length_errorPKc@plt>
    4897:	48 8d 3d b4 b7 01 00 	lea    0x1b7b4(%rip),%rdi        # 20052 <_IO_stdin_used+0x52>
    489e:	e8 6d ec ff ff       	call   3510 <_ZSt20__throw_length_errorPKc@plt>
    48a3:	90                   	nop
    48a4:	66 66 2e 0f 1f 84 00 	data16 cs nopw 0x0(%rax,%rax,1)
    48ab:	00 00 00 00 
    48af:	90                   	nop

00000000000048b0 <_ZNKSt8__format5_SpecIcE16_M_get_precisionISt20basic_format_contextINS_10_Sink_iterIcEEcEEEmRT_.part.0.isra.0>:
    48b0:	55                   	push   %rbp
    48b1:	0f b7 ff             	movzwl %di,%edi
    48b4:	48 89 e5             	mov    %rsp,%rbp
    48b7:	48 83 ec 40          	sub    $0x40,%rsp
    48bb:	0f b6 06             	movzbl (%rsi),%eax
    48be:	89 c2                	mov    %eax,%edx
    48c0:	83 e0 0f             	and    $0xf,%eax
    48c3:	83 e2 0f             	and    $0xf,%edx
    48c6:	48 39 c7             	cmp    %rax,%rdi
    48c9:	72 35                	jb     4900 <_ZNKSt8__format5_SpecIcE16_M_get_precisionISt20basic_format_contextINS_10_Sink_iterIcEEcEEEmRT_.part.0.isra.0+0x50>
    48cb:	84 d2                	test   %dl,%dl
    48cd:	0f 85 47 ef ff ff    	jne    381a <_ZNKSt8__format5_SpecIcE16_M_get_precisionISt20basic_format_contextINS_10_Sink_iterIcEEcEEEmRT_.part.0.isra.0.cold+0x1e>
    48d3:	48 8b 0e             	mov    (%rsi),%rcx
    48d6:	48 c1 e9 04          	shr    $0x4,%rcx
    48da:	48 39 cf             	cmp    %rcx,%rdi
    48dd:	0f 83 37 ef ff ff    	jae    381a <_ZNKSt8__format5_SpecIcE16_M_get_precisionISt20basic_format_contextINS_10_Sink_iterIcEEcEEEmRT_.part.0.isra.0.cold+0x1e>
    48e3:	48 c1 e7 05          	shl    $0x5,%rdi
    48e7:	48 03 7e 08          	add    0x8(%rsi),%rdi
    48eb:	c5 fa 6f 17          	vmovdqu (%rdi),%xmm2
    48ef:	44 0f b6 47 10       	movzbl 0x10(%rdi),%r8d
    48f4:	c5 f9 7f 54 24 20    	vmovdqa %xmm2,0x20(%rsp)
    48fa:	eb 28                	jmp    4924 <_ZNKSt8__format5_SpecIcE16_M_get_precisionISt20basic_format_contextINS_10_Sink_iterIcEEcEEEmRT_.part.0.isra.0+0x74>
    48fc:	0f 1f 40 00          	nopl   0x0(%rax)
    4900:	4c 8b 06             	mov    (%rsi),%r8
    4903:	48 8d 0c bf          	lea    (%rdi,%rdi,4),%rcx
    4907:	48 c1 e7 04          	shl    $0x4,%rdi
    490b:	48 03 7e 08          	add    0x8(%rsi),%rdi
    490f:	c5 f9 6f 0f          	vmovdqa (%rdi),%xmm1
    4913:	49 c1 e8 04          	shr    $0x4,%r8
    4917:	49 d3 e8             	shr    %cl,%r8
    491a:	c5 f9 7f 4c 24 20    	vmovdqa %xmm1,0x20(%rsp)
    4920:	41 83 e0 1f          	and    $0x1f,%r8d
    4924:	4c 8d 0d d5 bc 01 00 	lea    0x1bcd5(%rip),%r9        # 20600 <_IO_stdin_used+0x600>
    492b:	41 0f b6 f0          	movzbl %r8b,%esi
    492f:	44 88 44 24 30       	mov    %r8b,0x30(%rsp)
    4934:	c5 fe 6f 44 24 20    	vmovdqu 0x20(%rsp),%ymm0
    493a:	4d 63 14 b1          	movslq (%r9,%rsi,4),%r10
    493e:	c5 fe 7f 04 24       	vmovdqu %ymm0,(%rsp)
    4943:	4d 01 ca             	add    %r9,%r10
    4946:	3e 41 ff e2          	notrack jmp *%r10
    494a:	66 0f 1f 44 00 00    	nopw   0x0(%rax,%rax,1)
    4950:	48 8b 04 24          	mov    (%rsp),%rax
    4954:	48 85 c0             	test   %rax,%rax
    4957:	0f 88 ae ee ff ff    	js     380b <_ZNKSt8__format5_SpecIcE16_M_get_precisionISt20basic_format_contextINS_10_Sink_iterIcEEcEEEmRT_.part.0.isra.0.cold+0xf>
    495d:	c5 f8 77             	vzeroupper
    4960:	c9                   	leave
    4961:	c3                   	ret
    4962:	66 0f 1f 44 00 00    	nopw   0x0(%rax,%rax,1)
    4968:	8b 04 24             	mov    (%rsp),%eax
    496b:	c5 f8 77             	vzeroupper
    496e:	c9                   	leave
    496f:	c3                   	ret
    4970:	48 63 04 24          	movslq (%rsp),%rax
    4974:	85 c0                	test   %eax,%eax
    4976:	0f 88 8f ee ff ff    	js     380b <_ZNKSt8__format5_SpecIcE16_M_get_precisionISt20basic_format_contextINS_10_Sink_iterIcEEcEEEmRT_.part.0.isra.0.cold+0xf>
    497c:	c5 f8 77             	vzeroupper
    497f:	c9                   	leave
    4980:	c3                   	ret
    4981:	0f 1f 80 00 00 00 00 	nopl   0x0(%rax)
    4988:	48 8b 04 24          	mov    (%rsp),%rax
    498c:	c5 f8 77             	vzeroupper
    498f:	c9                   	leave
    4990:	c3                   	ret
    4991:	0f 1f 80 00 00 00 00 	nopl   0x0(%rax)
    4998:	c5 f8 77             	vzeroupper
    499b:	e9 7a ee ff ff       	jmp    381a <_ZNKSt8__format5_SpecIcE16_M_get_precisionISt20basic_format_contextINS_10_Sink_iterIcEEcEEEmRT_.part.0.isra.0.cold+0x1e>

00000000000049a0 <_ZNKSt8__format5_SpecIcE12_M_get_widthISt20basic_format_contextINS_10_Sink_iterIcEEcEEEmRT_.part.0.isra.0>:
    49a0:	55                   	push   %rbp
    49a1:	0f b7 ff             	movzwl %di,%edi
    49a4:	48 89 e5             	mov    %rsp,%rbp
    49a7:	48 83 ec 40          	sub    $0x40,%rsp
    49ab:	0f b6 06             	movzbl (%rsi),%eax
    49ae:	89 c2                	mov    %eax,%edx
    49b0:	83 e0 0f             	and    $0xf,%eax
    49b3:	83 e2 0f             	and    $0xf,%edx
    49b6:	48 39 c7             	cmp    %rax,%rdi
    49b9:	72 35                	jb     49f0 <_ZNKSt8__format5_SpecIcE12_M_get_widthISt20basic_format_contextINS_10_Sink_iterIcEEcEEEmRT_.part.0.isra.0+0x50>
    49bb:	84 d2                	test   %dl,%dl
    49bd:	0f 85 7b ee ff ff    	jne    383e <_ZNKSt8__format5_SpecIcE12_M_get_widthISt20basic_format_contextINS_10_Sink_iterIcEEcEEEmRT_.part.0.isra.0.cold+0x1e>
    49c3:	48 8b 0e             	mov    (%rsi),%rcx
    49c6:	48 c1 e9 04          	shr    $0x4,%rcx
    49ca:	48 39 cf             	cmp    %rcx,%rdi
    49cd:	0f 83 6b ee ff ff    	jae    383e <_ZNKSt8__format5_SpecIcE12_M_get_widthISt20basic_format_contextINS_10_Sink_iterIcEEcEEEmRT_.part.0.isra.0.cold+0x1e>
    49d3:	48 c1 e7 05          	shl    $0x5,%rdi
    49d7:	48 03 7e 08          	add    0x8(%rsi),%rdi
    49db:	c5 fa 6f 17          	vmovdqu (%rdi),%xmm2
    49df:	44 0f b6 47 10       	movzbl 0x10(%rdi),%r8d
    49e4:	c5 f9 7f 54 24 20    	vmovdqa %xmm2,0x20(%rsp)
    49ea:	eb 28                	jmp    4a14 <_ZNKSt8__format5_SpecIcE12_M_get_widthISt20basic_format_contextINS_10_Sink_iterIcEEcEEEmRT_.part.0.isra.0+0x74>
    49ec:	0f 1f 40 00          	nopl   0x0(%rax)
    49f0:	4c 8b 06             	mov    (%rsi),%r8
    49f3:	48 8d 0c bf          	lea    (%rdi,%rdi,4),%rcx
    49f7:	48 c1 e7 04          	shl    $0x4,%rdi
    49fb:	48 03 7e 08          	add    0x8(%rsi),%rdi
    49ff:	c5 f9 6f 0f          	vmovdqa (%rdi),%xmm1
    4a03:	49 c1 e8 04          	shr    $0x4,%r8
    4a07:	49 d3 e8             	shr    %cl,%r8
    4a0a:	c5 f9 7f 4c 24 20    	vmovdqa %xmm1,0x20(%rsp)
    4a10:	41 83 e0 1f          	and    $0x1f,%r8d
    4a14:	4c 8d 0d 39 bc 01 00 	lea    0x1bc39(%rip),%r9        # 20654 <_IO_stdin_used+0x654>
    4a1b:	41 0f b6 f0          	movzbl %r8b,%esi
    4a1f:	44 88 44 24 30       	mov    %r8b,0x30(%rsp)
    4a24:	c5 fe 6f 44 24 20    	vmovdqu 0x20(%rsp),%ymm0
    4a2a:	4d 63 14 b1          	movslq (%r9,%rsi,4),%r10
    4a2e:	c5 fe 7f 04 24       	vmovdqu %ymm0,(%rsp)
    4a33:	4d 01 ca             	add    %r9,%r10
    4a36:	3e 41 ff e2          	notrack jmp *%r10
    4a3a:	66 0f 1f 44 00 00    	nopw   0x0(%rax,%rax,1)
    4a40:	48 8b 04 24          	mov    (%rsp),%rax
    4a44:	48 85 c0             	test   %rax,%rax
    4a47:	0f 88 e2 ed ff ff    	js     382f <_ZNKSt8__format5_SpecIcE12_M_get_widthISt20basic_format_contextINS_10_Sink_iterIcEEcEEEmRT_.part.0.isra.0.cold+0xf>
    4a4d:	c5 f8 77             	vzeroupper
    4a50:	c9                   	leave
    4a51:	c3                   	ret
    4a52:	66 0f 1f 44 00 00    	nopw   0x0(%rax,%rax,1)
    4a58:	8b 04 24             	mov    (%rsp),%eax
    4a5b:	c5 f8 77             	vzeroupper
    4a5e:	c9                   	leave
    4a5f:	c3                   	ret
    4a60:	48 63 04 24          	movslq (%rsp),%rax
    4a64:	85 c0                	test   %eax,%eax
    4a66:	0f 88 c3 ed ff ff    	js     382f <_ZNKSt8__format5_SpecIcE12_M_get_widthISt20basic_format_contextINS_10_Sink_iterIcEEcEEEmRT_.part.0.isra.0.cold+0xf>
    4a6c:	c5 f8 77             	vzeroupper
    4a6f:	c9                   	leave
    4a70:	c3                   	ret
    4a71:	0f 1f 80 00 00 00 00 	nopl   0x0(%rax)
    4a78:	48 8b 04 24          	mov    (%rsp),%rax
    4a7c:	c5 f8 77             	vzeroupper
    4a7f:	c9                   	leave
    4a80:	c3                   	ret
    4a81:	0f 1f 80 00 00 00 00 	nopl   0x0(%rax)
    4a88:	c5 f8 77             	vzeroupper
    4a8b:	e9 ae ed ff ff       	jmp    383e <_ZNKSt8__format5_SpecIcE12_M_get_widthISt20basic_format_contextINS_10_Sink_iterIcEEcEEEmRT_.part.0.isra.0.cold+0x1e>

0000000000004a90 <_Z9benchmarkPFvPKfPfiES0_S1_iii>:
    4a90:	f3 0f 1e fa          	endbr64
    4a94:	41 57                	push   %r15
    4a96:	41 56                	push   %r14
    4a98:	45 89 c6             	mov    %r8d,%r14d
    4a9b:	41 55                	push   %r13
    4a9d:	41 89 cd             	mov    %ecx,%r13d
    4aa0:	41 54                	push   %r12
    4aa2:	49 89 f4             	mov    %rsi,%r12
    4aa5:	55                   	push   %rbp
    4aa6:	48 89 fd             	mov    %rdi,%rbp
    4aa9:	53                   	push   %rbx
    4aaa:	48 89 d3             	mov    %rdx,%rbx
    4aad:	48 83 ec 28          	sub    $0x28,%rsp
    4ab1:	45 85 c9             	test   %r9d,%r9d
    4ab4:	7e 08                	jle    4abe <_Z9benchmarkPFvPKfPfiES0_S1_iii+0x2e>
    4ab6:	44 89 cf             	mov    %r9d,%edi
    4ab9:	e8 82 eb ff ff       	call   3640 <omp_set_num_threads@plt>
    4abe:	4d 63 fe             	movslq %r14d,%r15
    4ac1:	44 89 f0             	mov    %r14d,%eax
    4ac4:	49 69 d7 67 66 66 66 	imul   $0x66666667,%r15,%rdx
    4acb:	c1 f8 1f             	sar    $0x1f,%eax
    4ace:	48 c1 fa 22          	sar    $0x22,%rdx
    4ad2:	29 c2                	sub    %eax,%edx
    4ad4:	89 14 24             	mov    %edx,(%rsp)
    4ad7:	41 83 fe 09          	cmp    $0x9,%r14d
    4adb:	0f 8e af 03 00 00    	jle    4e90 <_Z9benchmarkPFvPKfPfiES0_S1_iii+0x400>
    4ae1:	8d 72 ff             	lea    -0x1(%rdx),%esi
    4ae4:	4c 89 e7             	mov    %r12,%rdi
    4ae7:	44 89 ea             	mov    %r13d,%edx
    4aea:	41 bf 01 00 00 00    	mov    $0x1,%r15d
    4af0:	83 e6 07             	and    $0x7,%esi
    4af3:	89 74 24 0c          	mov    %esi,0xc(%rsp)
    4af7:	48 89 de             	mov    %rbx,%rsi
    4afa:	ff d5                	call   *%rbp
    4afc:	8b 3c 24             	mov    (%rsp),%edi
    4aff:	44 8b 44 24 0c       	mov    0xc(%rsp),%r8d
    4b04:	41 39 ff             	cmp    %edi,%r15d
    4b07:	0f 8d 06 01 00 00    	jge    4c13 <_Z9benchmarkPFvPKfPfiES0_S1_iii+0x183>
    4b0d:	45 85 c0             	test   %r8d,%r8d
    4b10:	0f 84 98 00 00 00    	je     4bae <_Z9benchmarkPFvPKfPfiES0_S1_iii+0x11e>
    4b16:	41 83 f8 01          	cmp    $0x1,%r8d
    4b1a:	74 7a                	je     4b96 <_Z9benchmarkPFvPKfPfiES0_S1_iii+0x106>
    4b1c:	41 83 f8 02          	cmp    $0x2,%r8d
    4b20:	74 65                	je     4b87 <_Z9benchmarkPFvPKfPfiES0_S1_iii+0xf7>
    4b22:	41 83 f8 03          	cmp    $0x3,%r8d
    4b26:	74 50                	je     4b78 <_Z9benchmarkPFvPKfPfiES0_S1_iii+0xe8>
    4b28:	41 83 f8 04          	cmp    $0x4,%r8d
    4b2c:	74 3b                	je     4b69 <_Z9benchmarkPFvPKfPfiES0_S1_iii+0xd9>
    4b2e:	41 83 f8 05          	cmp    $0x5,%r8d
    4b32:	74 26                	je     4b5a <_Z9benchmarkPFvPKfPfiES0_S1_iii+0xca>
    4b34:	41 83 f8 06          	cmp    $0x6,%r8d
    4b38:	74 11                	je     4b4b <_Z9benchmarkPFvPKfPfiES0_S1_iii+0xbb>
    4b3a:	44 89 ea             	mov    %r13d,%edx
    4b3d:	48 89 de             	mov    %rbx,%rsi
    4b40:	4c 89 e7             	mov    %r12,%rdi
    4b43:	41 bf 02 00 00 00    	mov    $0x2,%r15d
    4b49:	ff d5                	call   *%rbp
    4b4b:	44 89 ea             	mov    %r13d,%edx
    4b4e:	48 89 de             	mov    %rbx,%rsi
    4b51:	4c 89 e7             	mov    %r12,%rdi
    4b54:	41 83 c7 01          	add    $0x1,%r15d
    4b58:	ff d5                	call   *%rbp
    4b5a:	44 89 ea             	mov    %r13d,%edx
    4b5d:	48 89 de             	mov    %rbx,%rsi
    4b60:	4c 89 e7             	mov    %r12,%rdi
    4b63:	41 83 c7 01          	add    $0x1,%r15d
    4b67:	ff d5                	call   *%rbp
    4b69:	44 89 ea             	mov    %r13d,%edx
    4b6c:	48 89 de             	mov    %rbx,%rsi
    4b6f:	4c 89 e7             	mov    %r12,%rdi
    4b72:	41 83 c7 01          	add    $0x1,%r15d
    4b76:	ff d5                	call   *%rbp
    4b78:	44 89 ea             	mov    %r13d,%edx
    4b7b:	48 89 de             	mov    %rbx,%rsi
    4b7e:	4c 89 e7             	mov    %r12,%rdi
    4b81:	41 83 c7 01          	add    $0x1,%r15d
    4b85:	ff d5                	call   *%rbp
    4b87:	44 89 ea             	mov    %r13d,%edx
    4b8a:	48 89 de             	mov    %rbx,%rsi
    4b8d:	4c 89 e7             	mov    %r12,%rdi
    4b90:	41 83 c7 01          	add    $0x1,%r15d
    4b94:	ff d5                	call   *%rbp
    4b96:	44 89 ea             	mov    %r13d,%edx
    4b99:	48 89 de             	mov    %rbx,%rsi
    4b9c:	4c 89 e7             	mov    %r12,%rdi
    4b9f:	41 83 c7 01          	add    $0x1,%r15d
    4ba3:	ff d5                	call   *%rbp
    4ba5:	44 8b 0c 24          	mov    (%rsp),%r9d
    4ba9:	45 39 cf             	cmp    %r9d,%r15d
    4bac:	7d 65                	jge    4c13 <_Z9benchmarkPFvPKfPfiES0_S1_iii+0x183>
    4bae:	44 89 ea             	mov    %r13d,%edx
    4bb1:	48 89 de             	mov    %rbx,%rsi
    4bb4:	4c 89 e7             	mov    %r12,%rdi
    4bb7:	41 83 c7 08          	add    $0x8,%r15d
    4bbb:	ff d5                	call   *%rbp
    4bbd:	44 89 ea             	mov    %r13d,%edx
    4bc0:	48 89 de             	mov    %rbx,%rsi
    4bc3:	4c 89 e7             	mov    %r12,%rdi
    4bc6:	ff d5                	call   *%rbp
    4bc8:	44 89 ea             	mov    %r13d,%edx
    4bcb:	48 89 de             	mov    %rbx,%rsi
    4bce:	4c 89 e7             	mov    %r12,%rdi
    4bd1:	ff d5                	call   *%rbp
    4bd3:	44 89 ea             	mov    %r13d,%edx
    4bd6:	48 89 de             	mov    %rbx,%rsi
    4bd9:	4c 89 e7             	mov    %r12,%rdi
    4bdc:	ff d5                	call   *%rbp
    4bde:	44 89 ea             	mov    %r13d,%edx
    4be1:	48 89 de             	mov    %rbx,%rsi
    4be4:	4c 89 e7             	mov    %r12,%rdi
    4be7:	ff d5                	call   *%rbp
    4be9:	44 89 ea             	mov    %r13d,%edx
    4bec:	48 89 de             	mov    %rbx,%rsi
    4bef:	4c 89 e7             	mov    %r12,%rdi
    4bf2:	ff d5                	call   *%rbp
    4bf4:	44 89 ea             	mov    %r13d,%edx
    4bf7:	48 89 de             	mov    %rbx,%rsi
    4bfa:	4c 89 e7             	mov    %r12,%rdi
    4bfd:	ff d5                	call   *%rbp
    4bff:	44 89 ea             	mov    %r13d,%edx
    4c02:	48 89 de             	mov    %rbx,%rsi
    4c05:	4c 89 e7             	mov    %r12,%rdi
    4c08:	ff d5                	call   *%rbp
    4c0a:	44 8b 14 24          	mov    (%rsp),%r10d
    4c0e:	45 39 d7             	cmp    %r10d,%r15d
    4c11:	7c 9b                	jl     4bae <_Z9benchmarkPFvPKfPfiES0_S1_iii+0x11e>
    4c13:	e8 28 e8 ff ff       	call   3440 <_ZNSt6chrono3_V212system_clock3nowEv@plt>
    4c18:	c7 44 24 1c 00 00 00 	movl   $0x0,0x1c(%rsp)
    4c1f:	00 
    4c20:	48 89 04 24          	mov    %rax,(%rsp)
    4c24:	45 89 f3             	mov    %r14d,%r11d
    4c27:	45 31 ff             	xor    %r15d,%r15d
    4c2a:	41 83 e3 07          	and    $0x7,%r11d
    4c2e:	0f 84 f3 00 00 00    	je     4d27 <_Z9benchmarkPFvPKfPfiES0_S1_iii+0x297>
    4c34:	41 83 fb 01          	cmp    $0x1,%r11d
    4c38:	0f 84 c1 00 00 00    	je     4cff <_Z9benchmarkPFvPKfPfiES0_S1_iii+0x26f>
    4c3e:	41 83 fb 02          	cmp    $0x2,%r11d
    4c42:	0f 84 98 00 00 00    	je     4ce0 <_Z9benchmarkPFvPKfPfiES0_S1_iii+0x250>
    4c48:	41 83 fb 03          	cmp    $0x3,%r11d
    4c4c:	74 73                	je     4cc1 <_Z9benchmarkPFvPKfPfiES0_S1_iii+0x231>
    4c4e:	41 83 fb 04          	cmp    $0x4,%r11d
    4c52:	74 4e                	je     4ca2 <_Z9benchmarkPFvPKfPfiES0_S1_iii+0x212>
    4c54:	41 83 fb 05          	cmp    $0x5,%r11d
    4c58:	74 29                	je     4c83 <_Z9benchmarkPFvPKfPfiES0_S1_iii+0x1f3>
    4c5a:	41 83 fb 06          	cmp    $0x6,%r11d
    4c5e:	0f 85 fc 01 00 00    	jne    4e60 <_Z9benchmarkPFvPKfPfiES0_S1_iii+0x3d0>
    4c64:	44 89 ea             	mov    %r13d,%edx
    4c67:	48 89 de             	mov    %rbx,%rsi
    4c6a:	4c 89 e7             	mov    %r12,%rdi
    4c6d:	41 83 c7 01          	add    $0x1,%r15d
    4c71:	ff d5                	call   *%rbp
    4c73:	c5 fa 10 54 24 1c    	vmovss 0x1c(%rsp),%xmm2
    4c79:	c5 ea 58 1b          	vaddss (%rbx),%xmm2,%xmm3
    4c7d:	c5 fa 11 5c 24 1c    	vmovss %xmm3,0x1c(%rsp)
    4c83:	44 89 ea             	mov    %r13d,%edx
    4c86:	48 89 de             	mov    %rbx,%rsi
    4c89:	4c 89 e7             	mov    %r12,%rdi
    4c8c:	41 83 c7 01          	add    $0x1,%r15d
    4c90:	ff d5                	call   *%rbp
    4c92:	c5 fa 10 64 24 1c    	vmovss 0x1c(%rsp),%xmm4
    4c98:	c5 da 58 2b          	vaddss (%rbx),%xmm4,%xmm5
    4c9c:	c5 fa 11 6c 24 1c    	vmovss %xmm5,0x1c(%rsp)
    4ca2:	44 89 ea             	mov    %r13d,%edx
    4ca5:	48 89 de             	mov    %rbx,%rsi
    4ca8:	4c 89 e7             	mov    %r12,%rdi
    4cab:	41 83 c7 01          	add    $0x1,%r15d
    4caf:	ff d5                	call   *%rbp
    4cb1:	c5 fa 10 74 24 1c    	vmovss 0x1c(%rsp),%xmm6
    4cb7:	c5 ca 58 3b          	vaddss (%rbx),%xmm6,%xmm7
    4cbb:	c5 fa 11 7c 24 1c    	vmovss %xmm7,0x1c(%rsp)
    4cc1:	44 89 ea             	mov    %r13d,%edx
    4cc4:	48 89 de             	mov    %rbx,%rsi
    4cc7:	4c 89 e7             	mov    %r12,%rdi
    4cca:	41 83 c7 01          	add    $0x1,%r15d
    4cce:	ff d5                	call   *%rbp
    4cd0:	c5 7a 10 44 24 1c    	vmovss 0x1c(%rsp),%xmm8
    4cd6:	c5 3a 58 0b          	vaddss (%rbx),%xmm8,%xmm9
    4cda:	c5 7a 11 4c 24 1c    	vmovss %xmm9,0x1c(%rsp)
    4ce0:	44 89 ea             	mov    %r13d,%edx
    4ce3:	48 89 de             	mov    %rbx,%rsi
    4ce6:	4c 89 e7             	mov    %r12,%rdi
    4ce9:	41 83 c7 01          	add    $0x1,%r15d
    4ced:	ff d5                	call   *%rbp
    4cef:	c5 7a 10 54 24 1c    	vmovss 0x1c(%rsp),%xmm10
    4cf5:	c5 2a 58 1b          	vaddss (%rbx),%xmm10,%xmm11
    4cf9:	c5 7a 11 5c 24 1c    	vmovss %xmm11,0x1c(%rsp)
    4cff:	44 89 ea             	mov    %r13d,%edx
    4d02:	48 89 de             	mov    %rbx,%rsi
    4d05:	4c 89 e7             	mov    %r12,%rdi
    4d08:	41 83 c7 01          	add    $0x1,%r15d
    4d0c:	ff d5                	call   *%rbp
    4d0e:	c5 7a 10 64 24 1c    	vmovss 0x1c(%rsp),%xmm12
    4d14:	c5 1a 58 2b          	vaddss (%rbx),%xmm12,%xmm13
    4d18:	c5 7a 11 6c 24 1c    	vmovss %xmm13,0x1c(%rsp)
    4d1e:	45 39 fe             	cmp    %r15d,%r14d
    4d21:	0f 84 e5 00 00 00    	je     4e0c <_Z9benchmarkPFvPKfPfiES0_S1_iii+0x37c>
    4d27:	44 89 ea             	mov    %r13d,%edx
    4d2a:	48 89 de             	mov    %rbx,%rsi
    4d2d:	4c 89 e7             	mov    %r12,%rdi
    4d30:	41 83 c7 08          	add    $0x8,%r15d
    4d34:	ff d5                	call   *%rbp
    4d36:	c5 7a 10 74 24 1c    	vmovss 0x1c(%rsp),%xmm14
    4d3c:	c5 0a 58 3b          	vaddss (%rbx),%xmm14,%xmm15
    4d40:	44 89 ea             	mov    %r13d,%edx
    4d43:	48 89 de             	mov    %rbx,%rsi
    4d46:	4c 89 e7             	mov    %r12,%rdi
    4d49:	c5 7a 11 7c 24 1c    	vmovss %xmm15,0x1c(%rsp)
    4d4f:	ff d5                	call   *%rbp
    4d51:	c5 fa 10 44 24 1c    	vmovss 0x1c(%rsp),%xmm0
    4d57:	c5 fa 58 0b          	vaddss (%rbx),%xmm0,%xmm1
    4d5b:	44 89 ea             	mov    %r13d,%edx
    4d5e:	48 89 de             	mov    %rbx,%rsi
    4d61:	4c 89 e7             	mov    %r12,%rdi
    4d64:	c5 fa 11 4c 24 1c    	vmovss %xmm1,0x1c(%rsp)
    4d6a:	ff d5                	call   *%rbp
    4d6c:	c5 fa 10 54 24 1c    	vmovss 0x1c(%rsp),%xmm2
    4d72:	c5 ea 58 1b          	vaddss (%rbx),%xmm2,%xmm3
    4d76:	44 89 ea             	mov    %r13d,%edx
    4d79:	48 89 de             	mov    %rbx,%rsi
    4d7c:	4c 89 e7             	mov    %r12,%rdi
    4d7f:	c5 fa 11 5c 24 1c    	vmovss %xmm3,0x1c(%rsp)
    4d85:	ff d5                	call   *%rbp
    4d87:	c5 fa 10 64 24 1c    	vmovss 0x1c(%rsp),%xmm4
    4d8d:	c5 da 58 2b          	vaddss (%rbx),%xmm4,%xmm5
    4d91:	44 89 ea             	mov    %r13d,%edx
    4d94:	48 89 de             	mov    %rbx,%rsi
    4d97:	4c 89 e7             	mov    %r12,%rdi
    4d9a:	c5 fa 11 6c 24 1c    	vmovss %xmm5,0x1c(%rsp)
    4da0:	ff d5                	call   *%rbp
    4da2:	c5 fa 10 74 24 1c    	vmovss 0x1c(%rsp),%xmm6
    4da8:	c5 ca 58 3b          	vaddss (%rbx),%xmm6,%xmm7
    4dac:	44 89 ea             	mov    %r13d,%edx
    4daf:	48 89 de             	mov    %rbx,%rsi
    4db2:	4c 89 e7             	mov    %r12,%rdi
    4db5:	c5 fa 11 7c 24 1c    	vmovss %xmm7,0x1c(%rsp)
    4dbb:	ff d5                	call   *%rbp
    4dbd:	c5 7a 10 44 24 1c    	vmovss 0x1c(%rsp),%xmm8
    4dc3:	c5 3a 58 0b          	vaddss (%rbx),%xmm8,%xmm9
    4dc7:	44 89 ea             	mov    %r13d,%edx
    4dca:	48 89 de             	mov    %rbx,%rsi
    4dcd:	4c 89 e7             	mov    %r12,%rdi
    4dd0:	c5 7a 11 4c 24 1c    	vmovss %xmm9,0x1c(%rsp)
    4dd6:	ff d5                	call   *%rbp
    4dd8:	c5 7a 10 54 24 1c    	vmovss 0x1c(%rsp),%xmm10
    4dde:	c5 2a 58 1b          	vaddss (%rbx),%xmm10,%xmm11
    4de2:	44 89 ea             	mov    %r13d,%edx
    4de5:	48 89 de             	mov    %rbx,%rsi
    4de8:	4c 89 e7             	mov    %r12,%rdi
    4deb:	c5 7a 11 5c 24 1c    	vmovss %xmm11,0x1c(%rsp)
    4df1:	ff d5                	call   *%rbp
    4df3:	c5 7a 10 64 24 1c    	vmovss 0x1c(%rsp),%xmm12
    4df9:	c5 1a 58 2b          	vaddss (%rbx),%xmm12,%xmm13
    4dfd:	c5 7a 11 6c 24 1c    	vmovss %xmm13,0x1c(%rsp)
    4e03:	45 39 fe             	cmp    %r15d,%r14d
    4e06:	0f 85 1b ff ff ff    	jne    4d27 <_Z9benchmarkPFvPKfPfiES0_S1_iii+0x297>
    4e0c:	e8 2f e6 ff ff       	call   3440 <_ZNSt6chrono3_V212system_clock3nowEv@plt>
    4e11:	48 8b 14 24          	mov    (%rsp),%rdx
    4e15:	c4 41 09 57 f6       	vxorpd %xmm14,%xmm14,%xmm14
    4e1a:	48 29 d0             	sub    %rdx,%rax
    4e1d:	c4 61 8b 2a f8       	vcvtsi2sd %rax,%xmm14,%xmm15
    4e22:	c5 83 59 05 7e c2 01 	vmulsd 0x1c27e(%rip),%xmm15,%xmm0        # 210a8 <_ZNSt8__detail31__from_chars_alnum_to_val_tableILb0EE5valueE+0x208>
    4e29:	00 
    4e2a:	c5 fb 11 04 24       	vmovsd %xmm0,(%rsp)
    4e2f:	e8 2c e9 ff ff       	call   3760 <omp_get_max_threads@plt>
    4e34:	89 c7                	mov    %eax,%edi
    4e36:	e8 05 e8 ff ff       	call   3640 <omp_set_num_threads@plt>
    4e3b:	c5 f1 57 c9          	vxorpd %xmm1,%xmm1,%xmm1
    4e3f:	c5 fb 10 1c 24       	vmovsd (%rsp),%xmm3
    4e44:	48 83 c4 28          	add    $0x28,%rsp
    4e48:	c4 c1 73 2a d6       	vcvtsi2sd %r14d,%xmm1,%xmm2
    4e4d:	5b                   	pop    %rbx
    4e4e:	5d                   	pop    %rbp
    4e4f:	41 5c                	pop    %r12
    4e51:	41 5d                	pop    %r13
    4e53:	41 5e                	pop    %r14
    4e55:	41 5f                	pop    %r15
    4e57:	c5 e3 5e c2          	vdivsd %xmm2,%xmm3,%xmm0
    4e5b:	c3                   	ret
    4e5c:	0f 1f 40 00          	nopl   0x0(%rax)
    4e60:	44 89 ea             	mov    %r13d,%edx
    4e63:	48 89 de             	mov    %rbx,%rsi
    4e66:	4c 89 e7             	mov    %r12,%rdi
    4e69:	41 bf 01 00 00 00    	mov    $0x1,%r15d
    4e6f:	ff d5                	call   *%rbp
    4e71:	c5 fa 10 44 24 1c    	vmovss 0x1c(%rsp),%xmm0
    4e77:	c5 fa 58 0b          	vaddss (%rbx),%xmm0,%xmm1
    4e7b:	c5 fa 11 4c 24 1c    	vmovss %xmm1,0x1c(%rsp)
    4e81:	e9 de fd ff ff       	jmp    4c64 <_Z9benchmarkPFvPKfPfiES0_S1_iii+0x1d4>
    4e86:	66 2e 0f 1f 84 00 00 	cs nopw 0x0(%rax,%rax,1)
    4e8d:	00 00 00 
    4e90:	e8 ab e5 ff ff       	call   3440 <_ZNSt6chrono3_V212system_clock3nowEv@plt>
    4e95:	c7 44 24 1c 00 00 00 	movl   $0x0,0x1c(%rsp)
    4e9c:	00 
    4e9d:	48 89 04 24          	mov    %rax,(%rsp)
    4ea1:	45 85 f6             	test   %r14d,%r14d
    4ea4:	0f 8e 62 ff ff ff    	jle    4e0c <_Z9benchmarkPFvPKfPfiES0_S1_iii+0x37c>
    4eaa:	e9 75 fd ff ff       	jmp    4c24 <_Z9benchmarkPFvPKfPfiES0_S1_iii+0x194>
    4eaf:	90                   	nop

0000000000004eb0 <_ZNSt7__cxx1112basic_stringIcSt11char_traitsIcESaIcEE6resizeEmc.constprop.0>:
    4eb0:	41 55                	push   %r13
    4eb2:	41 54                	push   %r12
    4eb4:	55                   	push   %rbp
    4eb5:	48 89 fd             	mov    %rdi,%rbp
    4eb8:	53                   	push   %rbx
    4eb9:	48 89 f3             	mov    %rsi,%rbx
    4ebc:	48 83 ec 08          	sub    $0x8,%rsp
    4ec0:	4c 8b 67 08          	mov    0x8(%rdi),%r12
    4ec4:	49 39 f4             	cmp    %rsi,%r12
    4ec7:	72 1f                	jb     4ee8 <_ZNSt7__cxx1112basic_stringIcSt11char_traitsIcESaIcEE6resizeEmc.constprop.0+0x38>
    4ec9:	4c 39 e6             	cmp    %r12,%rsi
    4ecc:	73 0c                	jae    4eda <_ZNSt7__cxx1112basic_stringIcSt11char_traitsIcESaIcEE6resizeEmc.constprop.0+0x2a>
    4ece:	48 8b 75 00          	mov    0x0(%rbp),%rsi
    4ed2:	48 89 5d 08          	mov    %rbx,0x8(%rbp)
    4ed6:	c6 04 1e 00          	movb   $0x0,(%rsi,%rbx,1)
    4eda:	48 83 c4 08          	add    $0x8,%rsp
    4ede:	5b                   	pop    %rbx
    4edf:	5d                   	pop    %rbp
    4ee0:	41 5c                	pop    %r12
    4ee2:	41 5d                	pop    %r13
    4ee4:	c3                   	ret
    4ee5:	0f 1f 00             	nopl   (%rax)
    4ee8:	48 b8 ff ff ff ff ff 	movabs $0x7fffffffffffffff,%rax
    4eef:	ff ff 7f 
    4ef2:	49 89 f5             	mov    %rsi,%r13
    4ef5:	4d 29 e5             	sub    %r12,%r13
    4ef8:	4c 29 e0             	sub    %r12,%rax
    4efb:	4c 39 e8             	cmp    %r13,%rax
    4efe:	72 67                	jb     4f67 <_ZNSt7__cxx1112basic_stringIcSt11char_traitsIcESaIcEE6resizeEmc.constprop.0+0xb7>
    4f00:	48 8b 3f             	mov    (%rdi),%rdi
    4f03:	48 8d 55 10          	lea    0x10(%rbp),%rdx
    4f07:	48 39 d7             	cmp    %rdx,%rdi
    4f0a:	74 54                	je     4f60 <_ZNSt7__cxx1112basic_stringIcSt11char_traitsIcESaIcEE6resizeEmc.constprop.0+0xb0>
    4f0c:	48 8b 4d 10          	mov    0x10(%rbp),%rcx
    4f10:	48 39 d9             	cmp    %rbx,%rcx
    4f13:	72 33                	jb     4f48 <_ZNSt7__cxx1112basic_stringIcSt11char_traitsIcESaIcEE6resizeEmc.constprop.0+0x98>
    4f15:	4c 01 e7             	add    %r12,%rdi
    4f18:	49 83 fd 01          	cmp    $0x1,%r13
    4f1c:	74 22                	je     4f40 <_ZNSt7__cxx1112basic_stringIcSt11char_traitsIcESaIcEE6resizeEmc.constprop.0+0x90>
    4f1e:	31 f6                	xor    %esi,%esi
    4f20:	4c 89 ea             	mov    %r13,%rdx
    4f23:	e8 f8 e5 ff ff       	call   3520 <memset@plt>
    4f28:	48 8b 75 00          	mov    0x0(%rbp),%rsi
    4f2c:	48 89 5d 08          	mov    %rbx,0x8(%rbp)
    4f30:	c6 04 1e 00          	movb   $0x0,(%rsi,%rbx,1)
    4f34:	eb a4                	jmp    4eda <_ZNSt7__cxx1112basic_stringIcSt11char_traitsIcESaIcEE6resizeEmc.constprop.0+0x2a>
    4f36:	66 2e 0f 1f 84 00 00 	cs nopw 0x0(%rax,%rax,1)
    4f3d:	00 00 00 
    4f40:	c6 07 00             	movb   $0x0,(%rdi)
    4f43:	eb 89                	jmp    4ece <_ZNSt7__cxx1112basic_stringIcSt11char_traitsIcESaIcEE6resizeEmc.constprop.0+0x1e>
    4f45:	0f 1f 00             	nopl   (%rax)
    4f48:	48 89 ef             	mov    %rbp,%rdi
    4f4b:	4d 89 e8             	mov    %r13,%r8
    4f4e:	31 c9                	xor    %ecx,%ecx
    4f50:	31 d2                	xor    %edx,%edx
    4f52:	4c 89 e6             	mov    %r12,%rsi
    4f55:	e8 26 83 00 00       	call   d280 <_ZNSt7__cxx1112basic_stringIcSt11char_traitsIcESaIcEE9_M_mutateEmmPKcm>
    4f5a:	48 8b 7d 00          	mov    0x0(%rbp),%rdi
    4f5e:	eb b5                	jmp    4f15 <_ZNSt7__cxx1112basic_stringIcSt11char_traitsIcESaIcEE6resizeEmc.constprop.0+0x65>
    4f60:	b9 0f 00 00 00       	mov    $0xf,%ecx
    4f65:	eb a9                	jmp    4f10 <_ZNSt7__cxx1112basic_stringIcSt11char_traitsIcESaIcEE6resizeEmc.constprop.0+0x60>
    4f67:	48 8d 3d c7 b0 01 00 	lea    0x1b0c7(%rip),%rdi        # 20035 <_IO_stdin_used+0x35>
    4f6e:	e8 9d e5 ff ff       	call   3510 <_ZSt20__throw_length_errorPKc@plt>
    4f73:	66 66 2e 0f 1f 84 00 	data16 cs nopw 0x0(%rax,%rax,1)
    4f7a:	00 00 00 00 
    4f7e:	66 90                	xchg   %ax,%ax

0000000000004f80 <_ZNSt8__format22__write_padded_as_specIcNS_10_Sink_iterIcEEEET0_St17basic_string_viewINSt13type_identityIT_E4typeESt11char_traitsIS8_EEmRSt20basic_format_contextIS3_S6_ERKNS_5_SpecIS6_EENS_6_AlignE.constprop.0>:
    4f80:	55                   	push   %rbp
    4f81:	49 89 fa             	mov    %rdi,%r10
    4f84:	48 89 f7             	mov    %rsi,%rdi
    4f87:	48 89 d6             	mov    %rdx,%rsi
    4f8a:	48 89 c8             	mov    %rcx,%rax
    4f8d:	48 89 e5             	mov    %rsp,%rbp
    4f90:	53                   	push   %rbx
    4f91:	48 83 ec 48          	sub    $0x48,%rsp
    4f95:	0f b7 11             	movzwl (%rcx),%edx
    4f98:	66 81 e2 80 01       	and    $0x180,%dx
    4f9d:	66 81 fa 80 00       	cmp    $0x80,%dx
    4fa2:	74 2c                	je     4fd0 <_ZNSt8__format22__write_padded_as_specIcNS_10_Sink_iterIcEEEET0_St17basic_string_viewINSt13type_identityIT_E4typeESt11char_traitsIS8_EEmRSt20basic_format_contextIS3_S6_ERKNS_5_SpecIS6_EENS_6_AlignE.constprop.0+0x50>
    4fa4:	66 81 fa 00 01       	cmp    $0x100,%dx
    4fa9:	74 6d                	je     5018 <_ZNSt8__format22__write_padded_as_specIcNS_10_Sink_iterIcEEEET0_St17basic_string_viewINSt13type_identityIT_E4typeESt11char_traitsIS8_EEmRSt20basic_format_contextIS3_S6_ERKNS_5_SpecIS6_EENS_6_AlignE.constprop.0+0x98>
    4fab:	48 8b 5e 10          	mov    0x10(%rsi),%rbx
    4faf:	48 89 fa             	mov    %rdi,%rdx
    4fb2:	be 01 00 00 00       	mov    $0x1,%esi
    4fb7:	48 89 df             	mov    %rbx,%rdi
    4fba:	e8 91 87 00 00       	call   d750 <_ZNSt8__format5_SinkIcE8_M_writeESt17basic_string_viewIcSt11char_traitsIcEE>
    4fbf:	48 89 d8             	mov    %rbx,%rax
    4fc2:	48 8b 5d f8          	mov    -0x8(%rbp),%rbx
    4fc6:	c9                   	leave
    4fc7:	c3                   	ret
    4fc8:	0f 1f 84 00 00 00 00 	nopl   0x0(%rax,%rax,1)
    4fcf:	00 
    4fd0:	0f b7 51 02          	movzwl 0x2(%rcx),%edx
    4fd4:	48 83 fa 01          	cmp    $0x1,%rdx
    4fd8:	76 d1                	jbe    4fab <_ZNSt8__format22__write_padded_as_specIcNS_10_Sink_iterIcEEEET0_St17basic_string_viewINSt13type_identityIT_E4typeESt11char_traitsIS8_EEmRSt20basic_format_contextIS3_S6_ERKNS_5_SpecIS6_EENS_6_AlignE.constprop.0+0x2b>
    4fda:	44 0f b6 08          	movzbl (%rax),%r9d
    4fde:	48 8b 5e 10          	mov    0x10(%rsi),%rbx
    4fe2:	4c 8d 42 ff          	lea    -0x1(%rdx),%r8
    4fe6:	48 89 fa             	mov    %rdi,%rdx
    4fe9:	41 bb 01 00 00 00    	mov    $0x1,%r11d
    4fef:	4c 89 d6             	mov    %r10,%rsi
    4ff2:	44 89 c9             	mov    %r9d,%ecx
    4ff5:	48 89 df             	mov    %rbx,%rdi
    4ff8:	48 8b 5d f8          	mov    -0x8(%rbp),%rbx
    4ffc:	83 e1 03             	and    $0x3,%ecx
    4fff:	41 83 e1 03          	and    $0x3,%r9d
    5003:	44 0f be 48 06       	movsbl 0x6(%rax),%r9d
    5008:	c9                   	leave
    5009:	41 0f 44 cb          	cmove  %r11d,%ecx
    500d:	e9 de 87 00 00       	jmp    d7f0 <_ZNSt8__format14__write_paddedINS_10_Sink_iterIcEEcEET_S3_St17basic_string_viewIT0_St11char_traitsIS5_EENS_6_AlignEmS5_>
    5012:	66 0f 1f 44 00 00    	nopw   0x0(%rax,%rax,1)
    5018:	0f b6 1e             	movzbl (%rsi),%ebx
    501b:	44 0f b7 41 02       	movzwl 0x2(%rcx),%r8d
    5020:	89 d9                	mov    %ebx,%ecx
    5022:	83 e3 0f             	and    $0xf,%ebx
    5025:	83 e1 0f             	and    $0xf,%ecx
    5028:	49 39 d8             	cmp    %rbx,%r8
    502b:	0f 82 9f 00 00 00    	jb     50d0 <_ZNSt8__format22__write_padded_as_specIcNS_10_Sink_iterIcEEEET0_St17basic_string_viewINSt13type_identityIT_E4typeESt11char_traitsIS8_EEmRSt20basic_format_contextIS3_S6_ERKNS_5_SpecIS6_EENS_6_AlignE.constprop.0+0x150>
    5031:	84 c9                	test   %cl,%cl
    5033:	0f 85 19 e8 ff ff    	jne    3852 <_ZNSt8__format22__write_padded_as_specIcNS_10_Sink_iterIcEEEET0_St17basic_string_viewINSt13type_identityIT_E4typeESt11char_traitsIS8_EEmRSt20basic_format_contextIS3_S6_ERKNS_5_SpecIS6_EENS_6_AlignE.constprop.0.cold+0xf>
    5039:	4c 8b 0e             	mov    (%rsi),%r9
    503c:	49 c1 e9 04          	shr    $0x4,%r9
    5040:	4d 39 c8             	cmp    %r9,%r8
    5043:	0f 83 09 e8 ff ff    	jae    3852 <_ZNSt8__format22__write_padded_as_specIcNS_10_Sink_iterIcEEEET0_St17basic_string_viewINSt13type_identityIT_E4typeESt11char_traitsIS8_EEmRSt20basic_format_contextIS3_S6_ERKNS_5_SpecIS6_EENS_6_AlignE.constprop.0.cold+0xf>
    5049:	49 c1 e0 05          	shl    $0x5,%r8
    504d:	4c 03 46 08          	add    0x8(%rsi),%r8
    5051:	c4 c1 7a 6f 10       	vmovdqu (%r8),%xmm2
    5056:	45 0f b6 58 10       	movzbl 0x10(%r8),%r11d
    505b:	c5 f9 7f 54 24 20    	vmovdqa %xmm2,0x20(%rsp)
    5061:	4c 8d 05 40 b6 01 00 	lea    0x1b640(%rip),%r8        # 206a8 <_IO_stdin_used+0x6a8>
    5068:	41 0f b6 d3          	movzbl %r11b,%edx
    506c:	44 88 5c 24 30       	mov    %r11b,0x30(%rsp)
    5071:	c5 fe 6f 44 24 20    	vmovdqu 0x20(%rsp),%ymm0
    5077:	49 63 1c 90          	movslq (%r8,%rdx,4),%rbx
    507b:	c5 fe 7f 04 24       	vmovdqu %ymm0,(%rsp)
    5080:	4c 01 c3             	add    %r8,%rbx
    5083:	3e ff e3             	notrack jmp *%rbx
    5086:	48 8b 14 24          	mov    (%rsp),%rdx
    508a:	48 85 d2             	test   %rdx,%rdx
    508d:	0f 88 b0 e7 ff ff    	js     3843 <_ZNSt8__format22__write_padded_as_specIcNS_10_Sink_iterIcEEEET0_St17basic_string_viewINSt13type_identityIT_E4typeESt11char_traitsIS8_EEmRSt20basic_format_contextIS3_S6_ERKNS_5_SpecIS6_EENS_6_AlignE.constprop.0.cold>
    5093:	c5 f8 77             	vzeroupper
    5096:	e9 39 ff ff ff       	jmp    4fd4 <_ZNSt8__format22__write_padded_as_specIcNS_10_Sink_iterIcEEEET0_St17basic_string_viewINSt13type_identityIT_E4typeESt11char_traitsIS8_EEmRSt20basic_format_contextIS3_S6_ERKNS_5_SpecIS6_EENS_6_AlignE.constprop.0+0x54>
    509b:	8b 14 24             	mov    (%rsp),%edx
    509e:	c5 f8 77             	vzeroupper
    50a1:	e9 2e ff ff ff       	jmp    4fd4 <_ZNSt8__format22__write_padded_as_specIcNS_10_Sink_iterIcEEEET0_St17basic_string_viewINSt13type_identityIT_E4typeESt11char_traitsIS8_EEmRSt20basic_format_contextIS3_S6_ERKNS_5_SpecIS6_EENS_6_AlignE.constprop.0+0x54>
    50a6:	48 63 14 24          	movslq (%rsp),%rdx
    50aa:	85 d2                	test   %edx,%edx
    50ac:	79 e5                	jns    5093 <_ZNSt8__format22__write_padded_as_specIcNS_10_Sink_iterIcEEEET0_St17basic_string_viewINSt13type_identityIT_E4typeESt11char_traitsIS8_EEmRSt20basic_format_contextIS3_S6_ERKNS_5_SpecIS6_EENS_6_AlignE.constprop.0+0x113>
    50ae:	e9 90 e7 ff ff       	jmp    3843 <_ZNSt8__format22__write_padded_as_specIcNS_10_Sink_iterIcEEEET0_St17basic_string_viewINSt13type_identityIT_E4typeESt11char_traitsIS8_EEmRSt20basic_format_contextIS3_S6_ERKNS_5_SpecIS6_EENS_6_AlignE.constprop.0.cold>
    50b3:	0f 1f 44 00 00       	nopl   0x0(%rax,%rax,1)
    50b8:	48 8b 14 24          	mov    (%rsp),%rdx
    50bc:	eb d5                	jmp    5093 <_ZNSt8__format22__write_padded_as_specIcNS_10_Sink_iterIcEEEET0_St17basic_string_viewINSt13type_identityIT_E4typeESt11char_traitsIS8_EEmRSt20basic_format_contextIS3_S6_ERKNS_5_SpecIS6_EENS_6_AlignE.constprop.0+0x113>
    50be:	c5 f8 77             	vzeroupper
    50c1:	e9 8c e7 ff ff       	jmp    3852 <_ZNSt8__format22__write_padded_as_specIcNS_10_Sink_iterIcEEEET0_St17basic_string_viewINSt13type_identityIT_E4typeESt11char_traitsIS8_EEmRSt20basic_format_contextIS3_S6_ERKNS_5_SpecIS6_EENS_6_AlignE.constprop.0.cold+0xf>
    50c6:	66 2e 0f 1f 84 00 00 	cs nopw 0x0(%rax,%rax,1)
    50cd:	00 00 00 
    50d0:	4c 8b 1e             	mov    (%rsi),%r11
    50d3:	4b 8d 0c 80          	lea    (%r8,%r8,4),%rcx
    50d7:	49 c1 e0 04          	shl    $0x4,%r8
    50db:	4c 03 46 08          	add    0x8(%rsi),%r8
    50df:	c4 c1 79 6f 08       	vmovdqa (%r8),%xmm1
    50e4:	49 c1 eb 04          	shr    $0x4,%r11
    50e8:	49 d3 eb             	shr    %cl,%r11
    50eb:	c5 f9 7f 4c 24 20    	vmovdqa %xmm1,0x20(%rsp)
    50f1:	41 83 e3 1f          	and    $0x1f,%r11d
    50f5:	e9 67 ff ff ff       	jmp    5061 <_ZNSt8__format22__write_padded_as_specIcNS_10_Sink_iterIcEEEET0_St17basic_string_viewINSt13type_identityIT_E4typeESt11char_traitsIS8_EEmRSt20basic_format_contextIS3_S6_ERKNS_5_SpecIS6_EENS_6_AlignE.constprop.0+0xe1>
    50fa:	66 0f 1f 44 00 00    	nopw   0x0(%rax,%rax,1)

0000000000005100 <_ZNKSt8__format14__formatter_fpIcE11_M_localizeB5cxx11ESt17basic_string_viewIcSt11char_traitsIcEEcRKSt6locale.isra.0>:
    5100:	41 57                	push   %r15
    5102:	41 56                	push   %r14
    5104:	41 89 ce             	mov    %ecx,%r14d
    5107:	41 55                	push   %r13
    5109:	4d 89 c5             	mov    %r8,%r13
    510c:	41 54                	push   %r12
    510e:	49 89 f4             	mov    %rsi,%r12
    5111:	55                   	push   %rbp
    5112:	48 89 d5             	mov    %rdx,%rbp
    5115:	53                   	push   %rbx
    5116:	48 89 fb             	mov    %rdi,%rbx
    5119:	48 83 ec 68          	sub    $0x68,%rsp
    511d:	64 48 8b 04 25 28 00 	mov    %fs:0x28,%rax
    5124:	00 00 
    5126:	48 89 44 24 58       	mov    %rax,0x58(%rsp)
    512b:	31 c0                	xor    %eax,%eax
    512d:	48 8d 47 10          	lea    0x10(%rdi),%rax
    5131:	48 c7 47 08 00 00 00 	movq   $0x0,0x8(%rdi)
    5138:	00 
    5139:	48 89 07             	mov    %rax,(%rdi)
    513c:	c6 47 10 00          	movb   $0x0,0x10(%rdi)
    5140:	e8 6b e5 ff ff       	call   36b0 <_ZNSt6locale7classicEv@plt>
    5145:	48 89 c6             	mov    %rax,%rsi
    5148:	4c 89 ef             	mov    %r13,%rdi
    514b:	e8 40 e3 ff ff       	call   3490 <_ZNKSt6localeeqERKS_@plt>
    5150:	84 c0                	test   %al,%al
    5152:	74 2c                	je     5180 <_ZNKSt8__format14__formatter_fpIcE11_M_localizeB5cxx11ESt17basic_string_viewIcSt11char_traitsIcEEcRKSt6locale.isra.0+0x80>
    5154:	48 8b 44 24 58       	mov    0x58(%rsp),%rax
    5159:	64 48 2b 04 25 28 00 	sub    %fs:0x28,%rax
    5160:	00 00 
    5162:	0f 85 aa 02 00 00    	jne    5412 <_ZNKSt8__format14__formatter_fpIcE11_M_localizeB5cxx11ESt17basic_string_viewIcSt11char_traitsIcEEcRKSt6locale.isra.0+0x312>
    5168:	48 83 c4 68          	add    $0x68,%rsp
    516c:	48 89 d8             	mov    %rbx,%rax
    516f:	5b                   	pop    %rbx
    5170:	5d                   	pop    %rbp
    5171:	41 5c                	pop    %r12
    5173:	41 5d                	pop    %r13
    5175:	41 5e                	pop    %r14
    5177:	41 5f                	pop    %r15
    5179:	c3                   	ret
    517a:	66 0f 1f 44 00 00    	nopw   0x0(%rax,%rax,1)
    5180:	48 8d 3d b9 ee 01 00 	lea    0x1eeb9(%rip),%rdi        # 24040 <_ZNSt7__cxx118numpunctIcE2idE@GLIBCXX_3.4.21>
    5187:	e8 74 e3 ff ff       	call   3500 <_ZNKSt6locale2id5_M_idEv@plt>
    518c:	49 8b 4d 00          	mov    0x0(%r13),%rcx
    5190:	48 8b 71 08          	mov    0x8(%rcx),%rsi
    5194:	4c 8b 2c c6          	mov    (%rsi,%rax,8),%r13
    5198:	4d 85 ed             	test   %r13,%r13
    519b:	0f 84 76 02 00 00    	je     5417 <_ZNKSt8__format14__formatter_fpIcE11_M_localizeB5cxx11ESt17basic_string_viewIcSt11char_traitsIcEEcRKSt6locale.isra.0+0x317>
    51a1:	4d 8b 7d 00          	mov    0x0(%r13),%r15
    51a5:	4c 89 ef             	mov    %r13,%rdi
    51a8:	41 ff 57 10          	call   *0x10(%r15)
    51ac:	4d 8b 45 00          	mov    0x0(%r13),%r8
    51b0:	48 8d 7c 24 30       	lea    0x30(%rsp),%rdi
    51b5:	88 44 24 17          	mov    %al,0x17(%rsp)
    51b9:	4c 89 ee             	mov    %r13,%rsi
    51bc:	48 89 7c 24 28       	mov    %rdi,0x28(%rsp)
    51c1:	41 ff 50 20          	call   *0x20(%r8)
    51c5:	80 7c 24 17 2e       	cmpb   $0x2e,0x17(%rsp)
    51ca:	4c 8b 7c 24 38       	mov    0x38(%rsp),%r15
    51cf:	75 3f                	jne    5210 <_ZNKSt8__format14__formatter_fpIcE11_M_localizeB5cxx11ESt17basic_string_viewIcSt11char_traitsIcEEcRKSt6locale.isra.0+0x110>
    51d1:	4d 85 ff             	test   %r15,%r15
    51d4:	75 3a                	jne    5210 <_ZNKSt8__format14__formatter_fpIcE11_M_localizeB5cxx11ESt17basic_string_viewIcSt11char_traitsIcEEcRKSt6locale.isra.0+0x110>
    51d6:	66 2e 0f 1f 84 00 00 	cs nopw 0x0(%rax,%rax,1)
    51dd:	00 00 00 
    51e0:	48 8b 7c 24 30       	mov    0x30(%rsp),%rdi
    51e5:	4c 8d 4c 24 40       	lea    0x40(%rsp),%r9
    51ea:	4c 39 cf             	cmp    %r9,%rdi
    51ed:	0f 84 61 ff ff ff    	je     5154 <_ZNKSt8__format14__formatter_fpIcE11_M_localizeB5cxx11ESt17basic_string_viewIcSt11char_traitsIcEEcRKSt6locale.isra.0+0x54>
    51f3:	48 8b 6c 24 40       	mov    0x40(%rsp),%rbp
    51f8:	48 8d 75 01          	lea    0x1(%rbp),%rsi
    51fc:	e8 df e3 ff ff       	call   35e0 <_ZdlPvm@plt>
    5201:	e9 4e ff ff ff       	jmp    5154 <_ZNKSt8__format14__formatter_fpIcE11_M_localizeB5cxx11ESt17basic_string_viewIcSt11char_traitsIcEEcRKSt6locale.isra.0+0x54>
    5206:	66 2e 0f 1f 84 00 00 	cs nopw 0x0(%rax,%rax,1)
    520d:	00 00 00 
    5210:	4d 85 e4             	test   %r12,%r12
    5213:	0f 84 17 01 00 00    	je     5330 <_ZNKSt8__format14__formatter_fpIcE11_M_localizeB5cxx11ESt17basic_string_viewIcSt11char_traitsIcEEcRKSt6locale.isra.0+0x230>
    5219:	4c 89 e2             	mov    %r12,%rdx
    521c:	be 2e 00 00 00       	mov    $0x2e,%esi
    5221:	48 89 ef             	mov    %rbp,%rdi
    5224:	e8 f7 e3 ff ff       	call   3620 <memchr@plt>
    5229:	41 0f be f6          	movsbl %r14b,%esi
    522d:	4c 89 e2             	mov    %r12,%rdx
    5230:	48 89 ef             	mov    %rbp,%rdi
    5233:	48 89 04 24          	mov    %rax,(%rsp)
    5237:	e8 e4 e3 ff ff       	call   3620 <memchr@plt>
    523c:	4c 8b 0c 24          	mov    (%rsp),%r9
    5240:	49 89 c6             	mov    %rax,%r14
    5243:	4d 85 c9             	test   %r9,%r9
    5246:	0f 84 8c 01 00 00    	je     53d8 <_ZNKSt8__format14__formatter_fpIcE11_M_localizeB5cxx11ESt17basic_string_viewIcSt11char_traitsIcEEcRKSt6locale.isra.0+0x2d8>
    524c:	4c 89 c9             	mov    %r9,%rcx
    524f:	48 29 e9             	sub    %rbp,%rcx
    5252:	48 89 4c 24 20       	mov    %rcx,0x20(%rsp)
    5257:	48 85 c0             	test   %rax,%rax
    525a:	0f 84 20 01 00 00    	je     5380 <_ZNKSt8__format14__formatter_fpIcE11_M_localizeB5cxx11ESt17basic_string_viewIcSt11char_traitsIcEEcRKSt6locale.isra.0+0x280>
    5260:	49 29 ee             	sub    %rbp,%r14
    5263:	49 39 ce             	cmp    %rcx,%r14
    5266:	0f 83 14 01 00 00    	jae    5380 <_ZNKSt8__format14__formatter_fpIcE11_M_localizeB5cxx11ESt17basic_string_viewIcSt11char_traitsIcEEcRKSt6locale.isra.0+0x280>
    526c:	4d 89 e2             	mov    %r12,%r10
    526f:	4d 29 f2             	sub    %r14,%r10
    5272:	4c 89 14 24          	mov    %r10,(%rsp)
    5276:	48 8b 73 08          	mov    0x8(%rbx),%rsi
    527a:	4b 8d 0c 72          	lea    (%r10,%r14,2),%rcx
    527e:	48 39 ce             	cmp    %rcx,%rsi
    5281:	0f 83 c3 00 00 00    	jae    534a <_ZNKSt8__format14__formatter_fpIcE11_M_localizeB5cxx11ESt17basic_string_viewIcSt11char_traitsIcEEcRKSt6locale.isra.0+0x24a>
    5287:	48 29 f1             	sub    %rsi,%rcx
    528a:	45 31 c0             	xor    %r8d,%r8d
    528d:	31 d2                	xor    %edx,%edx
    528f:	48 89 df             	mov    %rbx,%rdi
    5292:	e8 99 f0 ff ff       	call   4330 <_ZNSt7__cxx1112basic_stringIcSt11char_traitsIcESaIcEE14_M_replace_auxEmmmc.isra.0>
    5297:	4c 8b 7c 24 38       	mov    0x38(%rsp),%r15
    529c:	48 8b 03             	mov    (%rbx),%rax
    529f:	48 8b 54 24 30       	mov    0x30(%rsp),%rdx
    52a4:	4c 89 ef             	mov    %r13,%rdi
    52a7:	48 89 44 24 08       	mov    %rax,0x8(%rsp)
    52ac:	49 8b 45 00          	mov    0x0(%r13),%rax
    52b0:	48 89 54 24 18       	mov    %rdx,0x18(%rsp)
    52b5:	ff 50 18             	call   *0x18(%rax)
    52b8:	48 8b 54 24 18       	mov    0x18(%rsp),%rdx
    52bd:	48 8b 7c 24 08       	mov    0x8(%rsp),%rdi
    52c2:	4c 89 f9             	mov    %r15,%rcx
    52c5:	0f be f0             	movsbl %al,%esi
    52c8:	4e 8d 4c 35 00       	lea    0x0(%rbp,%r14,1),%r9
    52cd:	49 89 e8             	mov    %rbp,%r8
    52d0:	e8 1b 8e 00 00       	call   e0f0 <_ZSt14__add_groupingIcEPT_S1_S0_PKcmPKS0_S5_>
    52d5:	48 83 3c 24 00       	cmpq   $0x0,(%rsp)
    52da:	48 89 c1             	mov    %rax,%rcx
    52dd:	74 23                	je     5302 <_ZNKSt8__format14__formatter_fpIcE11_M_localizeB5cxx11ESt17basic_string_viewIcSt11char_traitsIcEEcRKSt6locale.isra.0+0x202>
    52df:	48 83 7c 24 20 ff    	cmpq   $0xffffffffffffffff,0x20(%rsp)
    52e5:	74 10                	je     52f7 <_ZNKSt8__format14__formatter_fpIcE11_M_localizeB5cxx11ESt17basic_string_viewIcSt11char_traitsIcEEcRKSt6locale.isra.0+0x1f7>
    52e7:	0f b6 74 24 17       	movzbl 0x17(%rsp),%esi
    52ec:	48 83 c1 01          	add    $0x1,%rcx
    52f0:	49 83 c6 01          	add    $0x1,%r14
    52f4:	40 88 30             	mov    %sil,(%rax)
    52f7:	48 83 3c 24 01       	cmpq   $0x1,(%rsp)
    52fc:	0f 85 a6 00 00 00    	jne    53a8 <_ZNKSt8__format14__formatter_fpIcE11_M_localizeB5cxx11ESt17basic_string_viewIcSt11char_traitsIcEEcRKSt6locale.isra.0+0x2a8>
    5302:	4c 8b 44 24 08       	mov    0x8(%rsp),%r8
    5307:	48 8b 73 08          	mov    0x8(%rbx),%rsi
    530b:	4c 29 c1             	sub    %r8,%rcx
    530e:	48 39 ce             	cmp    %rcx,%rsi
    5311:	72 55                	jb     5368 <_ZNKSt8__format14__formatter_fpIcE11_M_localizeB5cxx11ESt17basic_string_viewIcSt11char_traitsIcEEcRKSt6locale.isra.0+0x268>
    5313:	48 39 f1             	cmp    %rsi,%rcx
    5316:	0f 83 c4 fe ff ff    	jae    51e0 <_ZNKSt8__format14__formatter_fpIcE11_M_localizeB5cxx11ESt17basic_string_viewIcSt11char_traitsIcEEcRKSt6locale.isra.0+0xe0>
    531c:	48 8b 3b             	mov    (%rbx),%rdi
    531f:	48 89 4b 08          	mov    %rcx,0x8(%rbx)
    5323:	c6 04 0f 00          	movb   $0x0,(%rdi,%rcx,1)
    5327:	e9 b4 fe ff ff       	jmp    51e0 <_ZNKSt8__format14__formatter_fpIcE11_M_localizeB5cxx11ESt17basic_string_viewIcSt11char_traitsIcEEcRKSt6locale.isra.0+0xe0>
    532c:	0f 1f 40 00          	nopl   0x0(%rax)
    5330:	48 c7 04 24 00 00 00 	movq   $0x0,(%rsp)
    5337:	00 
    5338:	48 8b 73 08          	mov    0x8(%rbx),%rsi
    533c:	45 31 f6             	xor    %r14d,%r14d
    533f:	31 c9                	xor    %ecx,%ecx
    5341:	48 c7 44 24 20 ff ff 	movq   $0xffffffffffffffff,0x20(%rsp)
    5348:	ff ff 
    534a:	48 39 f1             	cmp    %rsi,%rcx
    534d:	0f 83 49 ff ff ff    	jae    529c <_ZNKSt8__format14__formatter_fpIcE11_M_localizeB5cxx11ESt17basic_string_viewIcSt11char_traitsIcEEcRKSt6locale.isra.0+0x19c>
    5353:	4c 8b 1b             	mov    (%rbx),%r11
    5356:	48 89 4b 08          	mov    %rcx,0x8(%rbx)
    535a:	41 c6 04 0b 00       	movb   $0x0,(%r11,%rcx,1)
    535f:	e9 33 ff ff ff       	jmp    5297 <_ZNKSt8__format14__formatter_fpIcE11_M_localizeB5cxx11ESt17basic_string_viewIcSt11char_traitsIcEEcRKSt6locale.isra.0+0x197>
    5364:	0f 1f 40 00          	nopl   0x0(%rax)
    5368:	48 29 f1             	sub    %rsi,%rcx
    536b:	45 31 c0             	xor    %r8d,%r8d
    536e:	31 d2                	xor    %edx,%edx
    5370:	48 89 df             	mov    %rbx,%rdi
    5373:	e8 b8 ef ff ff       	call   4330 <_ZNSt7__cxx1112basic_stringIcSt11char_traitsIcESaIcEE14_M_replace_auxEmmmc.isra.0>
    5378:	e9 63 fe ff ff       	jmp    51e0 <_ZNKSt8__format14__formatter_fpIcE11_M_localizeB5cxx11ESt17basic_string_viewIcSt11char_traitsIcEEcRKSt6locale.isra.0+0xe0>
    537d:	0f 1f 00             	nopl   (%rax)
    5380:	4c 8b 74 24 20       	mov    0x20(%rsp),%r14
    5385:	49 83 fe ff          	cmp    $0xffffffffffffffff,%r14
    5389:	0f 85 dd fe ff ff    	jne    526c <_ZNKSt8__format14__formatter_fpIcE11_M_localizeB5cxx11ESt17basic_string_viewIcSt11char_traitsIcEEcRKSt6locale.isra.0+0x16c>
    538f:	48 c7 04 24 00 00 00 	movq   $0x0,(%rsp)
    5396:	00 
    5397:	4d 89 e6             	mov    %r12,%r14
    539a:	4c 8b 14 24          	mov    (%rsp),%r10
    539e:	e9 d3 fe ff ff       	jmp    5276 <_ZNKSt8__format14__formatter_fpIcE11_M_localizeB5cxx11ESt17basic_string_viewIcSt11char_traitsIcEEcRKSt6locale.isra.0+0x176>
    53a3:	0f 1f 44 00 00       	nopl   0x0(%rax,%rax,1)
    53a8:	4d 39 f4             	cmp    %r14,%r12
    53ab:	72 7f                	jb     542c <_ZNKSt8__format14__formatter_fpIcE11_M_localizeB5cxx11ESt17basic_string_viewIcSt11char_traitsIcEEcRKSt6locale.isra.0+0x32c>
    53ad:	4d 29 f4             	sub    %r14,%r12
    53b0:	0f 84 4c ff ff ff    	je     5302 <_ZNKSt8__format14__formatter_fpIcE11_M_localizeB5cxx11ESt17basic_string_viewIcSt11char_traitsIcEEcRKSt6locale.isra.0+0x202>
    53b6:	48 89 cf             	mov    %rcx,%rdi
    53b9:	4a 8d 74 35 00       	lea    0x0(%rbp,%r14,1),%rsi
    53be:	4c 89 e2             	mov    %r12,%rdx
    53c1:	e8 da e1 ff ff       	call   35a0 <memcpy@plt>
    53c6:	48 89 c1             	mov    %rax,%rcx
    53c9:	4c 01 e1             	add    %r12,%rcx
    53cc:	e9 31 ff ff ff       	jmp    5302 <_ZNKSt8__format14__formatter_fpIcE11_M_localizeB5cxx11ESt17basic_string_viewIcSt11char_traitsIcEEcRKSt6locale.isra.0+0x202>
    53d1:	0f 1f 80 00 00 00 00 	nopl   0x0(%rax)
    53d8:	48 85 c0             	test   %rax,%rax
    53db:	74 18                	je     53f5 <_ZNKSt8__format14__formatter_fpIcE11_M_localizeB5cxx11ESt17basic_string_viewIcSt11char_traitsIcEEcRKSt6locale.isra.0+0x2f5>
    53dd:	48 c7 44 24 20 ff ff 	movq   $0xffffffffffffffff,0x20(%rsp)
    53e4:	ff ff 
    53e6:	49 29 ee             	sub    %rbp,%r14
    53e9:	49 83 fe ff          	cmp    $0xffffffffffffffff,%r14
    53ed:	0f 85 79 fe ff ff    	jne    526c <_ZNKSt8__format14__formatter_fpIcE11_M_localizeB5cxx11ESt17basic_string_viewIcSt11char_traitsIcEEcRKSt6locale.isra.0+0x16c>
    53f3:	eb 9a                	jmp    538f <_ZNKSt8__format14__formatter_fpIcE11_M_localizeB5cxx11ESt17basic_string_viewIcSt11char_traitsIcEEcRKSt6locale.isra.0+0x28f>
    53f5:	48 c7 04 24 00 00 00 	movq   $0x0,(%rsp)
    53fc:	00 
    53fd:	4d 89 e6             	mov    %r12,%r14
    5400:	4c 8b 14 24          	mov    (%rsp),%r10
    5404:	48 c7 44 24 20 ff ff 	movq   $0xffffffffffffffff,0x20(%rsp)
    540b:	ff ff 
    540d:	e9 64 fe ff ff       	jmp    5276 <_ZNKSt8__format14__formatter_fpIcE11_M_localizeB5cxx11ESt17basic_string_viewIcSt11char_traitsIcEEcRKSt6locale.isra.0+0x176>
    5412:	e8 19 e2 ff ff       	call   3630 <__stack_chk_fail@plt>
    5417:	48 8b 44 24 58       	mov    0x58(%rsp),%rax
    541c:	64 48 2b 04 25 28 00 	sub    %fs:0x28,%rax
    5423:	00 00 
    5425:	75 eb                	jne    5412 <_ZNKSt8__format14__formatter_fpIcE11_M_localizeB5cxx11ESt17basic_string_viewIcSt11char_traitsIcEEcRKSt6locale.isra.0+0x312>
    5427:	e8 54 e2 ff ff       	call   3680 <_ZSt16__throw_bad_castv@plt>
    542c:	48 8b 44 24 58       	mov    0x58(%rsp),%rax
    5431:	64 48 2b 04 25 28 00 	sub    %fs:0x28,%rax
    5438:	00 00 
    543a:	75 d6                	jne    5412 <_ZNKSt8__format14__formatter_fpIcE11_M_localizeB5cxx11ESt17basic_string_viewIcSt11char_traitsIcEEcRKSt6locale.isra.0+0x312>
    543c:	4c 89 e1             	mov    %r12,%rcx
    543f:	4c 89 f2             	mov    %r14,%rdx
    5442:	48 8d 35 3a ac 01 00 	lea    0x1ac3a(%rip),%rsi        # 20083 <_IO_stdin_used+0x83>
    5449:	31 c0                	xor    %eax,%eax
    544b:	48 8d 3d 1e ad 01 00 	lea    0x1ad1e(%rip),%rdi        # 20170 <_IO_stdin_used+0x170>
    5452:	e8 a9 e2 ff ff       	call   3700 <_ZSt24__throw_out_of_range_fmtPKcz@plt>
    5457:	f3 0f 1e fa          	endbr64
    545b:	49 89 c4             	mov    %rax,%r12
    545e:	c5 f8 77             	vzeroupper
    5461:	e9 ff e3 ff ff       	jmp    3865 <_ZNKSt8__format14__formatter_fpIcE11_M_localizeB5cxx11ESt17basic_string_viewIcSt11char_traitsIcEEcRKSt6locale.isra.0.cold+0xd>
    5466:	f3 0f 1e fa          	endbr64
    546a:	49 89 c4             	mov    %rax,%r12
    546d:	e9 e6 e3 ff ff       	jmp    3858 <_ZNKSt8__format14__formatter_fpIcE11_M_localizeB5cxx11ESt17basic_string_viewIcSt11char_traitsIcEEcRKSt6locale.isra.0.cold>
    5472:	66 2e 0f 1f 84 00 00 	cs nopw 0x0(%rax,%rax,1)
    5479:	00 00 00 
    547c:	0f 1f 40 00          	nopl   0x0(%rax)

0000000000005480 <_ZNKSt5ctypeIcE8do_widenEc>:
    5480:	f3 0f 1e fa          	endbr64
    5484:	89 f0                	mov    %esi,%eax
    5486:	c3                   	ret
    5487:	66 0f 1f 84 00 00 00 	nopw   0x0(%rax,%rax,1)
    548e:	00 00 

0000000000005490 <_Z25native_cube_root_templateILi2EEvPKfPfi>:
    5490:	f3 0f 1e fa          	endbr64
    5494:	48 89 f1             	mov    %rsi,%rcx
    5497:	85 d2                	test   %edx,%edx
    5499:	0f 8e ed 01 00 00    	jle    568c <_Z25native_cube_root_templateILi2EEvPKfPfi+0x1fc>
    549f:	48 63 d2             	movslq %edx,%rdx
    54a2:	c5 fa 10 05 f6 ba 01 	vmovss 0x1baf6(%rip),%xmm0        # 20fa0 <_ZNSt8__detail31__from_chars_alnum_to_val_tableILb0EE5valueE+0x100>
    54a9:	00 
    54aa:	31 c0                	xor    %eax,%eax
    54ac:	48 c1 e2 02          	shl    $0x2,%rdx
    54b0:	48 8d 72 fc          	lea    -0x4(%rdx),%rsi
    54b4:	48 c1 ee 02          	shr    $0x2,%rsi
    54b8:	48 83 c6 01          	add    $0x1,%rsi
    54bc:	83 e6 03             	and    $0x3,%esi
    54bf:	0f 84 cb 00 00 00    	je     5590 <_Z25native_cube_root_templateILi2EEvPKfPfi+0x100>
    54c5:	48 83 fe 01          	cmp    $0x1,%rsi
    54c9:	74 7e                	je     5549 <_Z25native_cube_root_templateILi2EEvPKfPfi+0xb9>
    54cb:	48 83 fe 02          	cmp    $0x2,%rsi
    54cf:	74 3b                	je     550c <_Z25native_cube_root_templateILi2EEvPKfPfi+0x7c>
    54d1:	c5 fa 10 17          	vmovss (%rdi),%xmm2
    54d5:	b8 04 00 00 00       	mov    $0x4,%eax
    54da:	c5 ea 59 d8          	vmulss %xmm0,%xmm2,%xmm3
    54de:	c5 e2 59 cb          	vmulss %xmm3,%xmm3,%xmm1
    54e2:	c5 e2 58 eb          	vaddss %xmm3,%xmm3,%xmm5
    54e6:	c5 ea 5e e1          	vdivss %xmm1,%xmm2,%xmm4
    54ea:	c5 da 58 f5          	vaddss %xmm5,%xmm4,%xmm6
    54ee:	c5 ca 59 f8          	vmulss %xmm0,%xmm6,%xmm7
    54f2:	c5 42 59 c7          	vmulss %xmm7,%xmm7,%xmm8
    54f6:	c5 42 58 d7          	vaddss %xmm7,%xmm7,%xmm10
    54fa:	c4 41 6a 5e c8       	vdivss %xmm8,%xmm2,%xmm9
    54ff:	c4 41 32 58 da       	vaddss %xmm10,%xmm9,%xmm11
    5504:	c5 22 59 e0          	vmulss %xmm0,%xmm11,%xmm12
    5508:	c5 7a 11 21          	vmovss %xmm12,(%rcx)
    550c:	c5 7a 10 2c 07       	vmovss (%rdi,%rax,1),%xmm13
    5511:	c5 12 59 f0          	vmulss %xmm0,%xmm13,%xmm14
    5515:	c4 41 0a 59 fe       	vmulss %xmm14,%xmm14,%xmm15
    551a:	c4 c1 0a 58 de       	vaddss %xmm14,%xmm14,%xmm3
    551f:	c4 c1 12 5e d7       	vdivss %xmm15,%xmm13,%xmm2
    5524:	c5 ea 58 cb          	vaddss %xmm3,%xmm2,%xmm1
    5528:	c5 f2 59 e0          	vmulss %xmm0,%xmm1,%xmm4
    552c:	c5 da 59 ec          	vmulss %xmm4,%xmm4,%xmm5
    5530:	c5 da 58 fc          	vaddss %xmm4,%xmm4,%xmm7
    5534:	c5 92 5e f5          	vdivss %xmm5,%xmm13,%xmm6
    5538:	c5 4a 58 c7          	vaddss %xmm7,%xmm6,%xmm8
    553c:	c5 3a 59 c8          	vmulss %xmm0,%xmm8,%xmm9
    5540:	c5 7a 11 0c 01       	vmovss %xmm9,(%rcx,%rax,1)
    5545:	48 83 c0 04          	add    $0x4,%rax
    5549:	c5 7a 10 14 07       	vmovss (%rdi,%rax,1),%xmm10
    554e:	c5 2a 59 d8          	vmulss %xmm0,%xmm10,%xmm11
    5552:	c4 41 22 59 e3       	vmulss %xmm11,%xmm11,%xmm12
    5557:	c4 41 22 58 f3       	vaddss %xmm11,%xmm11,%xmm14
    555c:	c4 41 2a 5e ec       	vdivss %xmm12,%xmm10,%xmm13
    5561:	c4 41 12 58 fe       	vaddss %xmm14,%xmm13,%xmm15
    5566:	c5 82 59 c8          	vmulss %xmm0,%xmm15,%xmm1
    556a:	c5 f2 59 d1          	vmulss %xmm1,%xmm1,%xmm2
    556e:	c5 f2 58 e1          	vaddss %xmm1,%xmm1,%xmm4
    5572:	c5 aa 5e da          	vdivss %xmm2,%xmm10,%xmm3
    5576:	c5 e2 58 ec          	vaddss %xmm4,%xmm3,%xmm5
    557a:	c5 d2 59 f0          	vmulss %xmm0,%xmm5,%xmm6
    557e:	c5 fa 11 34 01       	vmovss %xmm6,(%rcx,%rax,1)
    5583:	48 83 c0 04          	add    $0x4,%rax
    5587:	48 39 c2             	cmp    %rax,%rdx
    558a:	0f 84 fd 00 00 00    	je     568d <_Z25native_cube_root_templateILi2EEvPKfPfi+0x1fd>
    5590:	c5 fa 10 3c 07       	vmovss (%rdi,%rax,1),%xmm7
    5595:	c5 42 59 c0          	vmulss %xmm0,%xmm7,%xmm8
    5599:	c4 41 3a 59 c8       	vmulss %xmm8,%xmm8,%xmm9
    559e:	c4 41 3a 58 d8       	vaddss %xmm8,%xmm8,%xmm11
    55a3:	c4 41 42 5e d1       	vdivss %xmm9,%xmm7,%xmm10
    55a8:	c4 41 2a 58 e3       	vaddss %xmm11,%xmm10,%xmm12
    55ad:	c5 1a 59 e8          	vmulss %xmm0,%xmm12,%xmm13
    55b1:	c4 41 12 59 f5       	vmulss %xmm13,%xmm13,%xmm14
    55b6:	c4 c1 12 58 cd       	vaddss %xmm13,%xmm13,%xmm1
    55bb:	c4 41 42 5e fe       	vdivss %xmm14,%xmm7,%xmm15
    55c0:	c5 82 58 d1          	vaddss %xmm1,%xmm15,%xmm2
    55c4:	c5 ea 59 d8          	vmulss %xmm0,%xmm2,%xmm3
    55c8:	c5 fa 11 1c 01       	vmovss %xmm3,(%rcx,%rax,1)
    55cd:	c5 fa 10 64 07 04    	vmovss 0x4(%rdi,%rax,1),%xmm4
    55d3:	c5 da 59 e8          	vmulss %xmm0,%xmm4,%xmm5
    55d7:	c5 d2 59 f5          	vmulss %xmm5,%xmm5,%xmm6
    55db:	c5 52 58 c5          	vaddss %xmm5,%xmm5,%xmm8
    55df:	c5 da 5e fe          	vdivss %xmm6,%xmm4,%xmm7
    55e3:	c4 41 42 58 c8       	vaddss %xmm8,%xmm7,%xmm9
    55e8:	c5 32 59 d0          	vmulss %xmm0,%xmm9,%xmm10
    55ec:	c4 41 2a 59 da       	vmulss %xmm10,%xmm10,%xmm11
    55f1:	c4 41 2a 58 ea       	vaddss %xmm10,%xmm10,%xmm13
    55f6:	c4 41 5a 5e e3       	vdivss %xmm11,%xmm4,%xmm12
    55fb:	c4 41 1a 58 f5       	vaddss %xmm13,%xmm12,%xmm14
    5600:	c5 0a 59 f8          	vmulss %xmm0,%xmm14,%xmm15
    5604:	c5 7a 11 7c 01 04    	vmovss %xmm15,0x4(%rcx,%rax,1)
    560a:	c5 fa 10 54 07 08    	vmovss 0x8(%rdi,%rax,1),%xmm2
    5610:	c5 ea 59 d8          	vmulss %xmm0,%xmm2,%xmm3
    5614:	c5 e2 59 cb          	vmulss %xmm3,%xmm3,%xmm1
    5618:	c5 e2 58 eb          	vaddss %xmm3,%xmm3,%xmm5
    561c:	c5 ea 5e e1          	vdivss %xmm1,%xmm2,%xmm4
    5620:	c5 da 58 f5          	vaddss %xmm5,%xmm4,%xmm6
    5624:	c5 ca 59 f8          	vmulss %xmm0,%xmm6,%xmm7
    5628:	c5 42 59 c7          	vmulss %xmm7,%xmm7,%xmm8
    562c:	c5 42 58 d7          	vaddss %xmm7,%xmm7,%xmm10
    5630:	c4 41 6a 5e c8       	vdivss %xmm8,%xmm2,%xmm9
    5635:	c4 41 32 58 da       	vaddss %xmm10,%xmm9,%xmm11
    563a:	c5 22 59 e0          	vmulss %xmm0,%xmm11,%xmm12
    563e:	c5 7a 11 64 01 08    	vmovss %xmm12,0x8(%rcx,%rax,1)
    5644:	c5 7a 10 6c 07 0c    	vmovss 0xc(%rdi,%rax,1),%xmm13
    564a:	c5 12 59 f0          	vmulss %xmm0,%xmm13,%xmm14
    564e:	c4 41 0a 59 fe       	vmulss %xmm14,%xmm14,%xmm15
    5653:	c4 c1 0a 58 de       	vaddss %xmm14,%xmm14,%xmm3
    5658:	c4 c1 12 5e d7       	vdivss %xmm15,%xmm13,%xmm2
    565d:	c5 ea 58 cb          	vaddss %xmm3,%xmm2,%xmm1
    5661:	c5 f2 59 e0          	vmulss %xmm0,%xmm1,%xmm4
    5665:	c5 da 59 ec          	vmulss %xmm4,%xmm4,%xmm5
    5669:	c5 da 58 fc          	vaddss %xmm4,%xmm4,%xmm7
    566d:	c5 92 5e f5          	vdivss %xmm5,%xmm13,%xmm6
    5671:	c5 4a 58 c7          	vaddss %xmm7,%xmm6,%xmm8
    5675:	c5 3a 59 c8          	vmulss %xmm0,%xmm8,%xmm9
    5679:	c5 7a 11 4c 01 0c    	vmovss %xmm9,0xc(%rcx,%rax,1)
    567f:	48 83 c0 10          	add    $0x10,%rax
    5683:	48 39 c2             	cmp    %rax,%rdx
    5686:	0f 85 04 ff ff ff    	jne    5590 <_Z25native_cube_root_templateILi2EEvPKfPfi+0x100>
    568c:	c3                   	ret
    568d:	c3                   	ret
    568e:	66 90                	xchg   %ax,%ax

0000000000005690 <_Z22opt_cube_root_templateILi2EEvPKfPfi>:
    5690:	f3 0f 1e fa          	endbr64
    5694:	48 63 c2             	movslq %edx,%rax
    5697:	48 89 f9             	mov    %rdi,%rcx
    569a:	85 c0                	test   %eax,%eax
    569c:	0f 8e dd 01 00 00    	jle    587f <_Z22opt_cube_root_templateILi2EEvPKfPfi+0x1ef>
    56a2:	8d 50 ff             	lea    -0x1(%rax),%edx
    56a5:	41 89 c2             	mov    %eax,%r10d
    56a8:	83 fa 02             	cmp    $0x2,%edx
    56ab:	76 14                	jbe    56c1 <_Z22opt_cube_root_templateILi2EEvPKfPfi+0x31>
    56ad:	4c 8d 4f 04          	lea    0x4(%rdi),%r9
    56b1:	48 89 f7             	mov    %rsi,%rdi
    56b4:	4c 29 cf             	sub    %r9,%rdi
    56b7:	48 83 ff 18          	cmp    $0x18,%rdi
    56bb:	0f 87 bf 01 00 00    	ja     5880 <_Z22opt_cube_root_templateILi2EEvPKfPfi+0x1f0>
    56c1:	4c 8d 0c 85 00 00 00 	lea    0x0(,%rax,4),%r9
    56c8:	00 
    56c9:	c5 fa 10 2d cf b8 01 	vmovss 0x1b8cf(%rip),%xmm5        # 20fa0 <_ZNSt8__detail31__from_chars_alnum_to_val_tableILb0EE5valueE+0x100>
    56d0:	00 
    56d1:	31 c0                	xor    %eax,%eax
    56d3:	49 8d 51 fc          	lea    -0x4(%r9),%rdx
    56d7:	48 c1 ea 02          	shr    $0x2,%rdx
    56db:	48 83 c2 01          	add    $0x1,%rdx
    56df:	83 e2 03             	and    $0x3,%edx
    56e2:	0f 84 96 00 00 00    	je     577e <_Z22opt_cube_root_templateILi2EEvPKfPfi+0xee>
    56e8:	48 83 fa 01          	cmp    $0x1,%rdx
    56ec:	74 4b                	je     5739 <_Z22opt_cube_root_templateILi2EEvPKfPfi+0xa9>
    56ee:	48 83 fa 02          	cmp    $0x2,%rdx
    56f2:	0f 85 9f 04 00 00    	jne    5b97 <_Z22opt_cube_root_templateILi2EEvPKfPfi+0x507>
    56f8:	c5 fa 10 04 01       	vmovss (%rcx,%rax,1),%xmm0
    56fd:	c5 7a 59 fd          	vmulss %xmm5,%xmm0,%xmm15
    5701:	c4 41 02 59 f7       	vmulss %xmm15,%xmm15,%xmm14
    5706:	c4 41 02 58 d7       	vaddss %xmm15,%xmm15,%xmm10
    570b:	c4 c1 7a 5e f6       	vdivss %xmm14,%xmm0,%xmm6
    5710:	c4 c1 4a 58 ca       	vaddss %xmm10,%xmm6,%xmm1
    5715:	c5 72 59 dd          	vmulss %xmm5,%xmm1,%xmm11
    5719:	c4 c1 22 59 d3       	vmulss %xmm11,%xmm11,%xmm2
    571e:	c4 41 22 58 c3       	vaddss %xmm11,%xmm11,%xmm8
    5723:	c5 fa 5e fa          	vdivss %xmm2,%xmm0,%xmm7
    5727:	c4 41 42 58 e0       	vaddss %xmm8,%xmm7,%xmm12
    572c:	c5 1a 59 cd          	vmulss %xmm5,%xmm12,%xmm9
    5730:	c5 7a 11 0c 06       	vmovss %xmm9,(%rsi,%rax,1)
    5735:	48 83 c0 04          	add    $0x4,%rax
    5739:	c5 7a 10 2c 01       	vmovss (%rcx,%rax,1),%xmm13
    573e:	c5 92 59 e5          	vmulss %xmm5,%xmm13,%xmm4
    5742:	c5 da 59 dc          	vmulss %xmm4,%xmm4,%xmm3
    5746:	c5 5a 58 fc          	vaddss %xmm4,%xmm4,%xmm15
    574a:	c5 92 5e c3          	vdivss %xmm3,%xmm13,%xmm0
    574e:	c4 41 7a 58 f7       	vaddss %xmm15,%xmm0,%xmm14
    5753:	c5 8a 59 f5          	vmulss %xmm5,%xmm14,%xmm6
    5757:	c5 4a 59 d6          	vmulss %xmm6,%xmm6,%xmm10
    575b:	c5 ca 58 ce          	vaddss %xmm6,%xmm6,%xmm1
    575f:	c4 41 12 5e da       	vdivss %xmm10,%xmm13,%xmm11
    5764:	c5 a2 58 d1          	vaddss %xmm1,%xmm11,%xmm2
    5768:	c5 ea 59 fd          	vmulss %xmm5,%xmm2,%xmm7
    576c:	c5 fa 11 3c 06       	vmovss %xmm7,(%rsi,%rax,1)
    5771:	48 83 c0 04          	add    $0x4,%rax
    5775:	4c 39 c8             	cmp    %r9,%rax
    5778:	0f 84 5e 04 00 00    	je     5bdc <_Z22opt_cube_root_templateILi2EEvPKfPfi+0x54c>
    577e:	c5 7a 10 04 01       	vmovss (%rcx,%rax,1),%xmm8
    5783:	c5 3a 59 e5          	vmulss %xmm5,%xmm8,%xmm12
    5787:	c4 41 1a 59 cc       	vmulss %xmm12,%xmm12,%xmm9
    578c:	c4 c1 1a 58 e4       	vaddss %xmm12,%xmm12,%xmm4
    5791:	c4 41 3a 5e e9       	vdivss %xmm9,%xmm8,%xmm13
    5796:	c5 92 58 dc          	vaddss %xmm4,%xmm13,%xmm3
    579a:	c5 e2 59 c5          	vmulss %xmm5,%xmm3,%xmm0
    579e:	c5 7a 59 f8          	vmulss %xmm0,%xmm0,%xmm15
    57a2:	c5 fa 58 f0          	vaddss %xmm0,%xmm0,%xmm6
    57a6:	c4 41 3a 5e f7       	vdivss %xmm15,%xmm8,%xmm14
    57ab:	c5 0a 58 d6          	vaddss %xmm6,%xmm14,%xmm10
    57af:	c5 2a 59 dd          	vmulss %xmm5,%xmm10,%xmm11
    57b3:	c5 7a 11 1c 06       	vmovss %xmm11,(%rsi,%rax,1)
    57b8:	c5 fa 10 54 01 04    	vmovss 0x4(%rcx,%rax,1),%xmm2
    57be:	c5 ea 59 fd          	vmulss %xmm5,%xmm2,%xmm7
    57c2:	c5 c2 59 cf          	vmulss %xmm7,%xmm7,%xmm1
    57c6:	c5 42 58 e7          	vaddss %xmm7,%xmm7,%xmm12
    57ca:	c5 6a 5e c1          	vdivss %xmm1,%xmm2,%xmm8
    57ce:	c4 41 3a 58 cc       	vaddss %xmm12,%xmm8,%xmm9
    57d3:	c5 32 59 ed          	vmulss %xmm5,%xmm9,%xmm13
    57d7:	c4 c1 12 59 e5       	vmulss %xmm13,%xmm13,%xmm4
    57dc:	c4 c1 12 58 c5       	vaddss %xmm13,%xmm13,%xmm0
    57e1:	c5 ea 5e dc          	vdivss %xmm4,%xmm2,%xmm3
    57e5:	c5 62 58 f8          	vaddss %xmm0,%xmm3,%xmm15
    57e9:	c5 02 59 f5          	vmulss %xmm5,%xmm15,%xmm14
    57ed:	c5 7a 11 74 06 04    	vmovss %xmm14,0x4(%rsi,%rax,1)
    57f3:	c5 fa 10 74 01 08    	vmovss 0x8(%rcx,%rax,1),%xmm6
    57f9:	c5 4a 59 d5          	vmulss %xmm5,%xmm6,%xmm10
    57fd:	c4 41 2a 59 da       	vmulss %xmm10,%xmm10,%xmm11
    5802:	c4 c1 2a 58 fa       	vaddss %xmm10,%xmm10,%xmm7
    5807:	c4 c1 4a 5e d3       	vdivss %xmm11,%xmm6,%xmm2
    580c:	c5 ea 58 cf          	vaddss %xmm7,%xmm2,%xmm1
    5810:	c5 72 59 c5          	vmulss %xmm5,%xmm1,%xmm8
    5814:	c4 41 3a 59 e0       	vmulss %xmm8,%xmm8,%xmm12
    5819:	c4 41 3a 58 e8       	vaddss %xmm8,%xmm8,%xmm13
    581e:	c4 41 4a 5e cc       	vdivss %xmm12,%xmm6,%xmm9
    5823:	c4 c1 32 58 e5       	vaddss %xmm13,%xmm9,%xmm4
    5828:	c5 da 59 dd          	vmulss %xmm5,%xmm4,%xmm3
    582c:	c5 fa 11 5c 06 08    	vmovss %xmm3,0x8(%rsi,%rax,1)
    5832:	c5 fa 10 44 01 0c    	vmovss 0xc(%rcx,%rax,1),%xmm0
    5838:	c5 7a 59 fd          	vmulss %xmm5,%xmm0,%xmm15
    583c:	c4 41 02 59 f7       	vmulss %xmm15,%xmm15,%xmm14
    5841:	c4 41 02 58 d7       	vaddss %xmm15,%xmm15,%xmm10
    5846:	c4 c1 7a 5e f6       	vdivss %xmm14,%xmm0,%xmm6
    584b:	c4 41 4a 58 da       	vaddss %xmm10,%xmm6,%xmm11
    5850:	c5 a2 59 fd          	vmulss %xmm5,%xmm11,%xmm7
    5854:	c5 c2 59 d7          	vmulss %xmm7,%xmm7,%xmm2
    5858:	c5 c2 58 cf          	vaddss %xmm7,%xmm7,%xmm1
    585c:	c5 7a 5e c2          	vdivss %xmm2,%xmm0,%xmm8
    5860:	c5 3a 58 e1          	vaddss %xmm1,%xmm8,%xmm12
    5864:	c5 1a 59 cd          	vmulss %xmm5,%xmm12,%xmm9
    5868:	c5 7a 11 4c 06 0c    	vmovss %xmm9,0xc(%rsi,%rax,1)
    586e:	48 83 c0 10          	add    $0x10,%rax
    5872:	4c 39 c8             	cmp    %r9,%rax
    5875:	0f 85 03 ff ff ff    	jne    577e <_Z22opt_cube_root_templateILi2EEvPKfPfi+0xee>
    587b:	c3                   	ret
    587c:	c5 f8 77             	vzeroupper
    587f:	c3                   	ret
    5880:	83 fa 06             	cmp    $0x6,%edx
    5883:	0f 86 54 03 00 00    	jbe    5bdd <_Z22opt_cube_root_templateILi2EEvPKfPfi+0x54d>
    5889:	c4 e2 7d 18 15 0e b7 	vbroadcastss 0x1b70e(%rip),%ymm2        # 20fa0 <_ZNSt8__detail31__from_chars_alnum_to_val_tableILb0EE5valueE+0x100>
    5890:	01 00 
    5892:	41 c1 ea 03          	shr    $0x3,%r10d
    5896:	45 31 db             	xor    %r11d,%r11d
    5899:	4d 89 d0             	mov    %r10,%r8
    589c:	49 c1 e0 05          	shl    $0x5,%r8
    58a0:	41 83 e2 01          	and    $0x1,%r10d
    58a4:	74 7a                	je     5920 <_Z22opt_cube_root_templateILi2EEvPKfPfi+0x290>
    58a6:	c5 fc 10 09          	vmovups (%rcx),%ymm1
    58aa:	41 bb 20 00 00 00    	mov    $0x20,%r11d
    58b0:	c5 f4 59 da          	vmulps %ymm2,%ymm1,%ymm3
    58b4:	c5 e4 59 e3          	vmulps %ymm3,%ymm3,%ymm4
    58b8:	c5 64 58 d3          	vaddps %ymm3,%ymm3,%ymm10
    58bc:	c5 fc 53 c4          	vrcpps %ymm4,%ymm0
    58c0:	c5 fc 59 ec          	vmulps %ymm4,%ymm0,%ymm5
    58c4:	c5 fc 58 f8          	vaddps %ymm0,%ymm0,%ymm7
    58c8:	c5 fc 59 f5          	vmulps %ymm5,%ymm0,%ymm6
    58cc:	c5 44 5c c6          	vsubps %ymm6,%ymm7,%ymm8
    58d0:	c4 41 74 59 c8       	vmulps %ymm8,%ymm1,%ymm9
    58d5:	c4 41 34 58 da       	vaddps %ymm10,%ymm9,%ymm11
    58da:	c5 24 59 e2          	vmulps %ymm2,%ymm11,%ymm12
    58de:	c4 41 1c 59 ec       	vmulps %ymm12,%ymm12,%ymm13
    58e3:	c4 c1 1c 58 ec       	vaddps %ymm12,%ymm12,%ymm5
    58e8:	c4 41 7c 53 f5       	vrcpps %ymm13,%ymm14
    58ed:	c4 41 0c 59 fd       	vmulps %ymm13,%ymm14,%ymm15
    58f2:	c4 c1 0c 58 de       	vaddps %ymm14,%ymm14,%ymm3
    58f7:	c4 c1 0c 59 e7       	vmulps %ymm15,%ymm14,%ymm4
    58fc:	c5 e4 5c c4          	vsubps %ymm4,%ymm3,%ymm0
    5900:	c5 f4 59 c8          	vmulps %ymm0,%ymm1,%ymm1
    5904:	c5 f4 58 f5          	vaddps %ymm5,%ymm1,%ymm6
    5908:	c5 cc 59 fa          	vmulps %ymm2,%ymm6,%ymm7
    590c:	c5 fc 11 3e          	vmovups %ymm7,(%rsi)
    5910:	49 83 f8 20          	cmp    $0x20,%r8
    5914:	0f 84 e7 00 00 00    	je     5a01 <_Z22opt_cube_root_templateILi2EEvPKfPfi+0x371>
    591a:	66 0f 1f 44 00 00    	nopw   0x0(%rax,%rax,1)
    5920:	c4 21 7c 10 04 19    	vmovups (%rcx,%r11,1),%ymm8
    5926:	c5 3c 59 ca          	vmulps %ymm2,%ymm8,%ymm9
    592a:	c4 41 34 59 d1       	vmulps %ymm9,%ymm9,%ymm10
    592f:	c4 c1 34 58 d9       	vaddps %ymm9,%ymm9,%ymm3
    5934:	c4 41 7c 53 da       	vrcpps %ymm10,%ymm11
    5939:	c4 41 24 59 e2       	vmulps %ymm10,%ymm11,%ymm12
    593e:	c4 41 24 58 f3       	vaddps %ymm11,%ymm11,%ymm14
    5943:	c4 41 24 59 ec       	vmulps %ymm12,%ymm11,%ymm13
    5948:	c4 41 0c 5c fd       	vsubps %ymm13,%ymm14,%ymm15
    594d:	c4 c1 3c 59 e7       	vmulps %ymm15,%ymm8,%ymm4
    5952:	c5 dc 58 c3          	vaddps %ymm3,%ymm4,%ymm0
    5956:	c5 fc 59 ea          	vmulps %ymm2,%ymm0,%ymm5
    595a:	c5 d4 59 cd          	vmulps %ymm5,%ymm5,%ymm1
    595e:	c5 54 58 e5          	vaddps %ymm5,%ymm5,%ymm12
    5962:	c5 fc 53 f1          	vrcpps %ymm1,%ymm6
    5966:	c5 cc 59 f9          	vmulps %ymm1,%ymm6,%ymm7
    596a:	c5 4c 58 d6          	vaddps %ymm6,%ymm6,%ymm10
    596e:	c5 4c 59 cf          	vmulps %ymm7,%ymm6,%ymm9
    5972:	c4 41 2c 5c d9       	vsubps %ymm9,%ymm10,%ymm11
    5977:	c4 41 3c 59 c3       	vmulps %ymm11,%ymm8,%ymm8
    597c:	c4 41 3c 58 ec       	vaddps %ymm12,%ymm8,%ymm13
    5981:	c5 14 59 f2          	vmulps %ymm2,%ymm13,%ymm14
    5985:	c4 21 7c 11 34 1e    	vmovups %ymm14,(%rsi,%r11,1)
    598b:	c4 21 7c 10 7c 19 20 	vmovups 0x20(%rcx,%r11,1),%ymm15
    5992:	c5 84 59 da          	vmulps %ymm2,%ymm15,%ymm3
    5996:	c5 e4 59 e3          	vmulps %ymm3,%ymm3,%ymm4
    599a:	c5 64 58 d3          	vaddps %ymm3,%ymm3,%ymm10
    599e:	c5 fc 53 c4          	vrcpps %ymm4,%ymm0
    59a2:	c5 fc 59 ec          	vmulps %ymm4,%ymm0,%ymm5
    59a6:	c5 fc 58 f0          	vaddps %ymm0,%ymm0,%ymm6
    59aa:	c5 fc 59 cd          	vmulps %ymm5,%ymm0,%ymm1
    59ae:	c5 cc 5c f9          	vsubps %ymm1,%ymm6,%ymm7
    59b2:	c5 04 59 cf          	vmulps %ymm7,%ymm15,%ymm9
    59b6:	c4 41 34 58 da       	vaddps %ymm10,%ymm9,%ymm11
    59bb:	c5 24 59 c2          	vmulps %ymm2,%ymm11,%ymm8
    59bf:	c4 41 3c 59 e0       	vmulps %ymm8,%ymm8,%ymm12
    59c4:	c4 c1 3c 58 e8       	vaddps %ymm8,%ymm8,%ymm5
    59c9:	c4 41 7c 53 ec       	vrcpps %ymm12,%ymm13
    59ce:	c4 41 14 59 f4       	vmulps %ymm12,%ymm13,%ymm14
    59d3:	c4 c1 14 58 dd       	vaddps %ymm13,%ymm13,%ymm3
    59d8:	c4 c1 14 59 e6       	vmulps %ymm14,%ymm13,%ymm4
    59dd:	c5 e4 5c c4          	vsubps %ymm4,%ymm3,%ymm0
    59e1:	c5 04 59 f8          	vmulps %ymm0,%ymm15,%ymm15
    59e5:	c5 84 58 cd          	vaddps %ymm5,%ymm15,%ymm1
    59e9:	c5 f4 59 f2          	vmulps %ymm2,%ymm1,%ymm6
    59ed:	c4 a1 7c 11 74 1e 20 	vmovups %ymm6,0x20(%rsi,%r11,1)
    59f4:	49 83 c3 40          	add    $0x40,%r11
    59f8:	4d 39 d8             	cmp    %r11,%r8
    59fb:	0f 85 1f ff ff ff    	jne    5920 <_Z22opt_cube_root_templateILi2EEvPKfPfi+0x290>
    5a01:	89 c2                	mov    %eax,%edx
    5a03:	83 e2 f8             	and    $0xfffffff8,%edx
    5a06:	89 d7                	mov    %edx,%edi
    5a08:	39 d0                	cmp    %edx,%eax
    5a0a:	0f 84 6c fe ff ff    	je     587c <_Z22opt_cube_root_templateILi2EEvPKfPfi+0x1ec>
    5a10:	41 89 c2             	mov    %eax,%r10d
    5a13:	41 29 d2             	sub    %edx,%r10d
    5a16:	45 8d 4a ff          	lea    -0x1(%r10),%r9d
    5a1a:	41 83 f9 02          	cmp    $0x2,%r9d
    5a1e:	0f 86 c2 01 00 00    	jbe    5be6 <_Z22opt_cube_root_templateILi2EEvPKfPfi+0x556>
    5a24:	c5 f8 77             	vzeroupper
    5a27:	c5 f8 10 3c b9       	vmovups (%rcx,%rdi,4),%xmm7
    5a2c:	45 89 d0             	mov    %r10d,%r8d
    5a2f:	c4 62 79 18 0d 68 b5 	vbroadcastss 0x1b568(%rip),%xmm9        # 20fa0 <_ZNSt8__detail31__from_chars_alnum_to_val_tableILb0EE5valueE+0x100>
    5a36:	01 00 
    5a38:	41 83 e0 fc          	and    $0xfffffffc,%r8d
    5a3c:	c4 c1 40 59 d1       	vmulps %xmm9,%xmm7,%xmm2
    5a41:	44 01 c2             	add    %r8d,%edx
    5a44:	41 83 e2 03          	and    $0x3,%r10d
    5a48:	c5 68 59 d2          	vmulps %xmm2,%xmm2,%xmm10
    5a4c:	c5 e8 58 da          	vaddps %xmm2,%xmm2,%xmm3
    5a50:	c4 41 78 53 da       	vrcpps %xmm10,%xmm11
    5a55:	c4 41 20 59 c2       	vmulps %xmm10,%xmm11,%xmm8
    5a5a:	c4 41 20 58 eb       	vaddps %xmm11,%xmm11,%xmm13
    5a5f:	c4 41 20 59 e0       	vmulps %xmm8,%xmm11,%xmm12
    5a64:	c4 41 10 5c f4       	vsubps %xmm12,%xmm13,%xmm14
    5a69:	c4 c1 40 59 e6       	vmulps %xmm14,%xmm7,%xmm4
    5a6e:	c5 d8 58 c3          	vaddps %xmm3,%xmm4,%xmm0
    5a72:	c4 41 78 59 f9       	vmulps %xmm9,%xmm0,%xmm15
    5a77:	c4 c1 00 59 ef       	vmulps %xmm15,%xmm15,%xmm5
    5a7c:	c4 41 00 58 c7       	vaddps %xmm15,%xmm15,%xmm8
    5a81:	c5 f8 53 cd          	vrcpps %xmm5,%xmm1
    5a85:	c5 f0 59 f5          	vmulps %xmm5,%xmm1,%xmm6
    5a89:	c5 f0 58 d1          	vaddps %xmm1,%xmm1,%xmm2
    5a8d:	c5 70 59 d6          	vmulps %xmm6,%xmm1,%xmm10
    5a91:	c4 41 68 5c da       	vsubps %xmm10,%xmm2,%xmm11
    5a96:	c4 c1 40 59 fb       	vmulps %xmm11,%xmm7,%xmm7
    5a9b:	c4 41 40 58 e0       	vaddps %xmm8,%xmm7,%xmm12
    5aa0:	c4 41 18 59 c9       	vmulps %xmm9,%xmm12,%xmm9
    5aa5:	c5 78 11 0c be       	vmovups %xmm9,(%rsi,%rdi,4)
    5aaa:	0f 84 cf fd ff ff    	je     587f <_Z22opt_cube_root_templateILi2EEvPKfPfi+0x1ef>
    5ab0:	4c 63 da             	movslq %edx,%r11
    5ab3:	c5 7a 10 35 e5 b4 01 	vmovss 0x1b4e5(%rip),%xmm14        # 20fa0 <_ZNSt8__detail31__from_chars_alnum_to_val_tableILb0EE5valueE+0x100>
    5aba:	00 
    5abb:	44 8d 52 01          	lea    0x1(%rdx),%r10d
    5abf:	c4 21 7a 10 2c 99    	vmovss (%rcx,%r11,4),%xmm13
    5ac5:	4a 8d 3c 9d 00 00 00 	lea    0x0(,%r11,4),%rdi
    5acc:	00 
    5acd:	c4 c1 12 59 e6       	vmulss %xmm14,%xmm13,%xmm4
    5ad2:	c5 da 59 dc          	vmulss %xmm4,%xmm4,%xmm3
    5ad6:	c5 5a 58 fc          	vaddss %xmm4,%xmm4,%xmm15
    5ada:	c5 92 5e c3          	vdivss %xmm3,%xmm13,%xmm0
    5ade:	c4 c1 7a 58 ef       	vaddss %xmm15,%xmm0,%xmm5
    5ae3:	c4 c1 52 59 f6       	vmulss %xmm14,%xmm5,%xmm6
    5ae8:	c5 ca 59 ce          	vmulss %xmm6,%xmm6,%xmm1
    5aec:	c5 ca 58 d6          	vaddss %xmm6,%xmm6,%xmm2
    5af0:	c5 12 5e d1          	vdivss %xmm1,%xmm13,%xmm10
    5af4:	c5 2a 58 da          	vaddss %xmm2,%xmm10,%xmm11
    5af8:	c4 c1 22 59 fe       	vmulss %xmm14,%xmm11,%xmm7
    5afd:	c4 a1 7a 11 3c 9e    	vmovss %xmm7,(%rsi,%r11,4)
    5b03:	44 39 d0             	cmp    %r10d,%eax
    5b06:	0f 8e 73 fd ff ff    	jle    587f <_Z22opt_cube_root_templateILi2EEvPKfPfi+0x1ef>
    5b0c:	c5 7a 10 44 39 04    	vmovss 0x4(%rcx,%rdi,1),%xmm8
    5b12:	83 c2 02             	add    $0x2,%edx
    5b15:	c4 41 3a 59 e6       	vmulss %xmm14,%xmm8,%xmm12
    5b1a:	c4 41 1a 59 cc       	vmulss %xmm12,%xmm12,%xmm9
    5b1f:	c4 c1 1a 58 e4       	vaddss %xmm12,%xmm12,%xmm4
    5b24:	c4 41 3a 5e e9       	vdivss %xmm9,%xmm8,%xmm13
    5b29:	c5 92 58 dc          	vaddss %xmm4,%xmm13,%xmm3
    5b2d:	c4 c1 62 59 c6       	vmulss %xmm14,%xmm3,%xmm0
    5b32:	c5 7a 59 f8          	vmulss %xmm0,%xmm0,%xmm15
    5b36:	c5 fa 58 f0          	vaddss %xmm0,%xmm0,%xmm6
    5b3a:	c4 c1 3a 5e ef       	vdivss %xmm15,%xmm8,%xmm5
    5b3f:	c5 d2 58 ce          	vaddss %xmm6,%xmm5,%xmm1
    5b43:	c4 41 72 59 d6       	vmulss %xmm14,%xmm1,%xmm10
    5b48:	c5 7a 11 54 3e 04    	vmovss %xmm10,0x4(%rsi,%rdi,1)
    5b4e:	39 d0                	cmp    %edx,%eax
    5b50:	0f 8e 29 fd ff ff    	jle    587f <_Z22opt_cube_root_templateILi2EEvPKfPfi+0x1ef>
    5b56:	c5 fa 10 54 39 08    	vmovss 0x8(%rcx,%rdi,1),%xmm2
    5b5c:	c4 41 6a 59 de       	vmulss %xmm14,%xmm2,%xmm11
    5b61:	c4 c1 22 59 fb       	vmulss %xmm11,%xmm11,%xmm7
    5b66:	c4 41 22 58 e3       	vaddss %xmm11,%xmm11,%xmm12
    5b6b:	c5 6a 5e c7          	vdivss %xmm7,%xmm2,%xmm8
    5b6f:	c4 41 3a 58 cc       	vaddss %xmm12,%xmm8,%xmm9
    5b74:	c4 41 32 59 ee       	vmulss %xmm14,%xmm9,%xmm13
    5b79:	c4 c1 12 59 e5       	vmulss %xmm13,%xmm13,%xmm4
    5b7e:	c4 c1 12 58 c5       	vaddss %xmm13,%xmm13,%xmm0
    5b83:	c5 ea 5e dc          	vdivss %xmm4,%xmm2,%xmm3
    5b87:	c5 62 58 f8          	vaddss %xmm0,%xmm3,%xmm15
    5b8b:	c4 41 02 59 f6       	vmulss %xmm14,%xmm15,%xmm14
    5b90:	c5 7a 11 74 3e 08    	vmovss %xmm14,0x8(%rsi,%rdi,1)
    5b96:	c3                   	ret
    5b97:	c5 fa 10 31          	vmovss (%rcx),%xmm6
    5b9b:	b8 04 00 00 00       	mov    $0x4,%eax
    5ba0:	c5 4a 59 d5          	vmulss %xmm5,%xmm6,%xmm10
    5ba4:	c4 c1 2a 59 ca       	vmulss %xmm10,%xmm10,%xmm1
    5ba9:	c4 41 2a 58 da       	vaddss %xmm10,%xmm10,%xmm11
    5bae:	c5 ca 5e d1          	vdivss %xmm1,%xmm6,%xmm2
    5bb2:	c4 c1 6a 58 fb       	vaddss %xmm11,%xmm2,%xmm7
    5bb7:	c5 42 59 c5          	vmulss %xmm5,%xmm7,%xmm8
    5bbb:	c4 41 3a 59 e0       	vmulss %xmm8,%xmm8,%xmm12
    5bc0:	c4 41 3a 58 e8       	vaddss %xmm8,%xmm8,%xmm13
    5bc5:	c4 41 4a 5e cc       	vdivss %xmm12,%xmm6,%xmm9
    5bca:	c4 c1 32 58 e5       	vaddss %xmm13,%xmm9,%xmm4
    5bcf:	c5 da 59 dd          	vmulss %xmm5,%xmm4,%xmm3
    5bd3:	c5 fa 11 1e          	vmovss %xmm3,(%rsi)
    5bd7:	e9 1c fb ff ff       	jmp    56f8 <_Z22opt_cube_root_templateILi2EEvPKfPfi+0x68>
    5bdc:	c3                   	ret
    5bdd:	31 ff                	xor    %edi,%edi
    5bdf:	31 d2                	xor    %edx,%edx
    5be1:	e9 41 fe ff ff       	jmp    5a27 <_Z22opt_cube_root_templateILi2EEvPKfPfi+0x397>
    5be6:	c5 f8 77             	vzeroupper
    5be9:	e9 c2 fe ff ff       	jmp    5ab0 <_Z22opt_cube_root_templateILi2EEvPKfPfi+0x420>
    5bee:	66 90                	xchg   %ax,%ax

0000000000005bf0 <_Z23avx2_cube_root_templateILi2EEvPKfPfi>:
    5bf0:	f3 0f 1e fa          	endbr64
    5bf4:	8d 42 0e             	lea    0xe(%rdx),%eax
    5bf7:	83 c2 07             	add    $0x7,%edx
    5bfa:	48 89 f9             	mov    %rdi,%rcx
    5bfd:	0f 48 d0             	cmovs  %eax,%edx
    5c00:	83 e2 f8             	and    $0xfffffff8,%edx
    5c03:	0f 8e ef 01 00 00    	jle    5df8 <_Z23avx2_cube_root_templateILi2EEvPKfPfi+0x208>
    5c09:	c5 fc 10 09          	vmovups (%rcx),%ymm1
    5c0d:	8d 7a ff             	lea    -0x1(%rdx),%edi
    5c10:	41 b8 08 00 00 00    	mov    $0x8,%r8d
    5c16:	c4 e2 7d 18 15 81 b3 	vbroadcastss 0x1b381(%rip),%ymm2        # 20fa0 <_ZNSt8__detail31__from_chars_alnum_to_val_tableILb0EE5valueE+0x100>
    5c1d:	01 00 
    5c1f:	c1 ef 03             	shr    $0x3,%edi
    5c22:	c5 f4 59 da          	vmulps %ymm2,%ymm1,%ymm3
    5c26:	83 e7 01             	and    $0x1,%edi
    5c29:	c5 e4 59 e3          	vmulps %ymm3,%ymm3,%ymm4
    5c2d:	c5 64 58 d3          	vaddps %ymm3,%ymm3,%ymm10
    5c31:	c5 fc 53 c4          	vrcpps %ymm4,%ymm0
    5c35:	c5 fc 59 ec          	vmulps %ymm4,%ymm0,%ymm5
    5c39:	c5 fc 58 f8          	vaddps %ymm0,%ymm0,%ymm7
    5c3d:	c5 fc 59 f5          	vmulps %ymm5,%ymm0,%ymm6
    5c41:	c5 44 5c c6          	vsubps %ymm6,%ymm7,%ymm8
    5c45:	c4 41 74 59 c8       	vmulps %ymm8,%ymm1,%ymm9
    5c4a:	c4 41 34 58 da       	vaddps %ymm10,%ymm9,%ymm11
    5c4f:	c5 24 59 e2          	vmulps %ymm2,%ymm11,%ymm12
    5c53:	c4 41 1c 59 ec       	vmulps %ymm12,%ymm12,%ymm13
    5c58:	c4 c1 1c 58 ec       	vaddps %ymm12,%ymm12,%ymm5
    5c5d:	c4 41 7c 53 f5       	vrcpps %ymm13,%ymm14
    5c62:	c4 41 0c 59 fd       	vmulps %ymm13,%ymm14,%ymm15
    5c67:	c4 c1 0c 58 de       	vaddps %ymm14,%ymm14,%ymm3
    5c6c:	c4 c1 0c 59 e7       	vmulps %ymm15,%ymm14,%ymm4
    5c71:	c5 e4 5c c4          	vsubps %ymm4,%ymm3,%ymm0
    5c75:	c5 f4 59 c8          	vmulps %ymm0,%ymm1,%ymm1
    5c79:	c5 f4 58 f5          	vaddps %ymm5,%ymm1,%ymm6
    5c7d:	c5 cc 59 fa          	vmulps %ymm2,%ymm6,%ymm7
    5c81:	c5 fc 11 3e          	vmovups %ymm7,(%rsi)
    5c85:	83 fa 08             	cmp    $0x8,%edx
    5c88:	0f 8e 67 01 00 00    	jle    5df5 <_Z23avx2_cube_root_templateILi2EEvPKfPfi+0x205>
    5c8e:	85 ff                	test   %edi,%edi
    5c90:	74 7e                	je     5d10 <_Z23avx2_cube_root_templateILi2EEvPKfPfi+0x120>
    5c92:	c5 7c 10 41 20       	vmovups 0x20(%rcx),%ymm8
    5c97:	41 b8 10 00 00 00    	mov    $0x10,%r8d
    5c9d:	c5 3c 59 ca          	vmulps %ymm2,%ymm8,%ymm9
    5ca1:	c4 41 34 59 d1       	vmulps %ymm9,%ymm9,%ymm10
    5ca6:	c4 c1 34 58 d9       	vaddps %ymm9,%ymm9,%ymm3
    5cab:	c4 41 7c 53 da       	vrcpps %ymm10,%ymm11
    5cb0:	c4 41 24 59 e2       	vmulps %ymm10,%ymm11,%ymm12
    5cb5:	c4 41 24 58 f3       	vaddps %ymm11,%ymm11,%ymm14
    5cba:	c4 41 24 59 ec       	vmulps %ymm12,%ymm11,%ymm13
    5cbf:	c4 41 0c 5c fd       	vsubps %ymm13,%ymm14,%ymm15
    5cc4:	c4 c1 3c 59 e7       	vmulps %ymm15,%ymm8,%ymm4
    5cc9:	c5 dc 58 c3          	vaddps %ymm3,%ymm4,%ymm0
    5ccd:	c5 fc 59 ea          	vmulps %ymm2,%ymm0,%ymm5
    5cd1:	c5 d4 59 cd          	vmulps %ymm5,%ymm5,%ymm1
    5cd5:	c5 54 58 e5          	vaddps %ymm5,%ymm5,%ymm12
    5cd9:	c5 fc 53 f1          	vrcpps %ymm1,%ymm6
    5cdd:	c5 cc 59 f9          	vmulps %ymm1,%ymm6,%ymm7
    5ce1:	c5 4c 58 d6          	vaddps %ymm6,%ymm6,%ymm10
    5ce5:	c5 4c 59 cf          	vmulps %ymm7,%ymm6,%ymm9
    5ce9:	c4 41 2c 5c d9       	vsubps %ymm9,%ymm10,%ymm11
    5cee:	c4 41 3c 59 c3       	vmulps %ymm11,%ymm8,%ymm8
    5cf3:	c4 41 3c 58 ec       	vaddps %ymm12,%ymm8,%ymm13
    5cf8:	c5 14 59 f2          	vmulps %ymm2,%ymm13,%ymm14
    5cfc:	c5 7c 11 76 20       	vmovups %ymm14,0x20(%rsi)
    5d01:	83 fa 10             	cmp    $0x10,%edx
    5d04:	0f 8e eb 00 00 00    	jle    5df5 <_Z23avx2_cube_root_templateILi2EEvPKfPfi+0x205>
    5d0a:	66 0f 1f 44 00 00    	nopw   0x0(%rax,%rax,1)
    5d10:	c4 21 7c 10 3c 81    	vmovups (%rcx,%r8,4),%ymm15
    5d16:	4d 8d 48 08          	lea    0x8(%r8),%r9
    5d1a:	c5 84 59 da          	vmulps %ymm2,%ymm15,%ymm3
    5d1e:	c5 e4 59 e3          	vmulps %ymm3,%ymm3,%ymm4
    5d22:	c5 64 58 d3          	vaddps %ymm3,%ymm3,%ymm10
    5d26:	c5 fc 53 c4          	vrcpps %ymm4,%ymm0
    5d2a:	c5 fc 59 ec          	vmulps %ymm4,%ymm0,%ymm5
    5d2e:	c5 fc 58 f0          	vaddps %ymm0,%ymm0,%ymm6
    5d32:	c5 fc 59 cd          	vmulps %ymm5,%ymm0,%ymm1
    5d36:	c5 cc 5c f9          	vsubps %ymm1,%ymm6,%ymm7
    5d3a:	c5 04 59 cf          	vmulps %ymm7,%ymm15,%ymm9
    5d3e:	c4 41 34 58 da       	vaddps %ymm10,%ymm9,%ymm11
    5d43:	c5 24 59 c2          	vmulps %ymm2,%ymm11,%ymm8
    5d47:	c4 41 3c 59 e0       	vmulps %ymm8,%ymm8,%ymm12
    5d4c:	c4 c1 3c 58 e8       	vaddps %ymm8,%ymm8,%ymm5
    5d51:	c4 41 7c 53 ec       	vrcpps %ymm12,%ymm13
    5d56:	c4 41 14 59 f4       	vmulps %ymm12,%ymm13,%ymm14
    5d5b:	c4 c1 14 58 dd       	vaddps %ymm13,%ymm13,%ymm3
    5d60:	c4 c1 14 59 e6       	vmulps %ymm14,%ymm13,%ymm4
    5d65:	c5 e4 5c c4          	vsubps %ymm4,%ymm3,%ymm0
    5d69:	c5 04 59 f8          	vmulps %ymm0,%ymm15,%ymm15
    5d6d:	c5 84 58 cd          	vaddps %ymm5,%ymm15,%ymm1
    5d71:	c5 f4 59 f2          	vmulps %ymm2,%ymm1,%ymm6
    5d75:	c4 a1 7c 11 34 86    	vmovups %ymm6,(%rsi,%r8,4)
    5d7b:	c4 a1 7c 10 3c 89    	vmovups (%rcx,%r9,4),%ymm7
    5d81:	49 83 c0 10          	add    $0x10,%r8
    5d85:	c5 44 59 ca          	vmulps %ymm2,%ymm7,%ymm9
    5d89:	c4 41 34 59 d1       	vmulps %ymm9,%ymm9,%ymm10
    5d8e:	c4 c1 34 58 d9       	vaddps %ymm9,%ymm9,%ymm3
    5d93:	c4 41 7c 53 da       	vrcpps %ymm10,%ymm11
    5d98:	c4 41 24 59 c2       	vmulps %ymm10,%ymm11,%ymm8
    5d9d:	c4 41 24 58 eb       	vaddps %ymm11,%ymm11,%ymm13
    5da2:	c4 41 24 59 e0       	vmulps %ymm8,%ymm11,%ymm12
    5da7:	c4 41 14 5c f4       	vsubps %ymm12,%ymm13,%ymm14
    5dac:	c4 c1 44 59 e6       	vmulps %ymm14,%ymm7,%ymm4
    5db1:	c5 dc 58 c3          	vaddps %ymm3,%ymm4,%ymm0
    5db5:	c5 7c 59 fa          	vmulps %ymm2,%ymm0,%ymm15
    5db9:	c4 c1 04 59 ef       	vmulps %ymm15,%ymm15,%ymm5
    5dbe:	c4 41 04 58 c7       	vaddps %ymm15,%ymm15,%ymm8
    5dc3:	c5 fc 53 cd          	vrcpps %ymm5,%ymm1
    5dc7:	c5 f4 59 f5          	vmulps %ymm5,%ymm1,%ymm6
    5dcb:	c5 74 58 d1          	vaddps %ymm1,%ymm1,%ymm10
    5dcf:	c5 74 59 ce          	vmulps %ymm6,%ymm1,%ymm9
    5dd3:	c4 41 2c 5c d9       	vsubps %ymm9,%ymm10,%ymm11
    5dd8:	c4 c1 44 59 fb       	vmulps %ymm11,%ymm7,%ymm7
    5ddd:	c4 41 44 58 e0       	vaddps %ymm8,%ymm7,%ymm12
    5de2:	c5 1c 59 ea          	vmulps %ymm2,%ymm12,%ymm13
    5de6:	c4 21 7c 11 2c 8e    	vmovups %ymm13,(%rsi,%r9,4)
    5dec:	44 39 c2             	cmp    %r8d,%edx
    5def:	0f 8f 1b ff ff ff    	jg     5d10 <_Z23avx2_cube_root_templateILi2EEvPKfPfi+0x120>
    5df5:	c5 f8 77             	vzeroupper
    5df8:	c3                   	ret
    5df9:	0f 1f 80 00 00 00 00 	nopl   0x0(%rax)

0000000000005e00 <_Z25native_cube_root_templateILi16EEvPKfPfi>:
    5e00:	f3 0f 1e fa          	endbr64
    5e04:	85 d2                	test   %edx,%edx
    5e06:	7e 50                	jle    5e58 <_Z25native_cube_root_templateILi16EEvPKfPfi+0x58>
    5e08:	48 63 d2             	movslq %edx,%rdx
    5e0b:	c5 fa 10 1d 8d b1 01 	vmovss 0x1b18d(%rip),%xmm3        # 20fa0 <_ZNSt8__detail31__from_chars_alnum_to_val_tableILb0EE5valueE+0x100>
    5e12:	00 
    5e13:	45 31 c0             	xor    %r8d,%r8d
    5e16:	48 8d 0c 95 00 00 00 	lea    0x0(,%rdx,4),%rcx
    5e1d:	00 
    5e1e:	66 90                	xchg   %ax,%ax
    5e20:	c4 a1 7a 10 14 07    	vmovss (%rdi,%r8,1),%xmm2
    5e26:	b8 10 00 00 00       	mov    $0x10,%eax
    5e2b:	c5 ea 59 f3          	vmulss %xmm3,%xmm2,%xmm6
    5e2f:	90                   	nop
    5e30:	c5 ca 59 ce          	vmulss %xmm6,%xmm6,%xmm1
    5e34:	c5 ca 58 c6          	vaddss %xmm6,%xmm6,%xmm0
    5e38:	c5 ea 5e e1          	vdivss %xmm1,%xmm2,%xmm4
    5e3c:	c5 da 58 e8          	vaddss %xmm0,%xmm4,%xmm5
    5e40:	c5 d2 59 f3          	vmulss %xmm3,%xmm5,%xmm6
    5e44:	83 e8 01             	sub    $0x1,%eax
    5e47:	75 e7                	jne    5e30 <_Z25native_cube_root_templateILi16EEvPKfPfi+0x30>
    5e49:	c4 a1 7a 11 34 06    	vmovss %xmm6,(%rsi,%r8,1)
    5e4f:	49 83 c0 04          	add    $0x4,%r8
    5e53:	4c 39 c1             	cmp    %r8,%rcx
    5e56:	75 c8                	jne    5e20 <_Z25native_cube_root_templateILi16EEvPKfPfi+0x20>
    5e58:	c3                   	ret
    5e59:	0f 1f 80 00 00 00 00 	nopl   0x0(%rax)

0000000000005e60 <_Z22opt_cube_root_templateILi16EEvPKfPfi>:
    5e60:	f3 0f 1e fa          	endbr64
    5e64:	48 63 c2             	movslq %edx,%rax
    5e67:	48 89 f9             	mov    %rdi,%rcx
    5e6a:	85 c0                	test   %eax,%eax
    5e6c:	0f 8e b7 01 00 00    	jle    6029 <_Z22opt_cube_root_templateILi16EEvPKfPfi+0x1c9>
    5e72:	8d 50 ff             	lea    -0x1(%rax),%edx
    5e75:	41 89 c0             	mov    %eax,%r8d
    5e78:	83 fa 02             	cmp    $0x2,%edx
    5e7b:	76 14                	jbe    5e91 <_Z22opt_cube_root_templateILi16EEvPKfPfi+0x31>
    5e7d:	4c 8d 4f 04          	lea    0x4(%rdi),%r9
    5e81:	48 89 f7             	mov    %rsi,%rdi
    5e84:	4c 29 cf             	sub    %r9,%rdi
    5e87:	48 83 ff 18          	cmp    $0x18,%rdi
    5e8b:	0f 87 99 01 00 00    	ja     602a <_Z22opt_cube_root_templateILi16EEvPKfPfi+0x1ca>
    5e91:	c5 fa 10 0d 07 b1 01 	vmovss 0x1b107(%rip),%xmm1        # 20fa0 <_ZNSt8__detail31__from_chars_alnum_to_val_tableILb0EE5valueE+0x100>
    5e98:	00 
    5e99:	4c 8d 1c 85 00 00 00 	lea    0x0(,%rax,4),%r11
    5ea0:	00 
    5ea1:	31 c0                	xor    %eax,%eax
    5ea3:	0f 1f 44 00 00       	nopl   0x0(%rax,%rax,1)
    5ea8:	c5 7a 10 0c 01       	vmovss (%rcx,%rax,1),%xmm9
    5ead:	c5 32 59 c1          	vmulss %xmm1,%xmm9,%xmm8
    5eb1:	c4 c1 3a 59 d0       	vmulss %xmm8,%xmm8,%xmm2
    5eb6:	c4 41 3a 58 d0       	vaddss %xmm8,%xmm8,%xmm10
    5ebb:	c5 b2 5e e2          	vdivss %xmm2,%xmm9,%xmm4
    5ebf:	c4 41 5a 58 da       	vaddss %xmm10,%xmm4,%xmm11
    5ec4:	c5 22 59 e1          	vmulss %xmm1,%xmm11,%xmm12
    5ec8:	c4 41 1a 59 ec       	vmulss %xmm12,%xmm12,%xmm13
    5ecd:	c4 c1 1a 58 f4       	vaddss %xmm12,%xmm12,%xmm6
    5ed2:	c4 41 32 5e f5       	vdivss %xmm13,%xmm9,%xmm14
    5ed7:	c5 8a 58 c6          	vaddss %xmm6,%xmm14,%xmm0
    5edb:	c5 7a 59 f9          	vmulss %xmm1,%xmm0,%xmm15
    5edf:	c4 c1 02 59 ff       	vmulss %xmm15,%xmm15,%xmm7
    5ee4:	c4 c1 02 58 df       	vaddss %xmm15,%xmm15,%xmm3
    5ee9:	c5 b2 5e ef          	vdivss %xmm7,%xmm9,%xmm5
    5eed:	c5 52 58 c3          	vaddss %xmm3,%xmm5,%xmm8
    5ef1:	c5 ba 59 d1          	vmulss %xmm1,%xmm8,%xmm2
    5ef5:	c5 ea 59 e2          	vmulss %xmm2,%xmm2,%xmm4
    5ef9:	c5 6a 58 da          	vaddss %xmm2,%xmm2,%xmm11
    5efd:	c5 32 5e d4          	vdivss %xmm4,%xmm9,%xmm10
    5f01:	c4 41 2a 58 e3       	vaddss %xmm11,%xmm10,%xmm12
    5f06:	c5 1a 59 e9          	vmulss %xmm1,%xmm12,%xmm13
    5f0a:	c4 41 12 59 f5       	vmulss %xmm13,%xmm13,%xmm14
    5f0f:	c4 c1 12 58 c5       	vaddss %xmm13,%xmm13,%xmm0
    5f14:	c4 c1 32 5e f6       	vdivss %xmm14,%xmm9,%xmm6
    5f19:	c5 4a 58 f8          	vaddss %xmm0,%xmm6,%xmm15
    5f1d:	c5 82 59 f9          	vmulss %xmm1,%xmm15,%xmm7
    5f21:	c5 c2 59 ef          	vmulss %xmm7,%xmm7,%xmm5
    5f25:	c5 42 58 c7          	vaddss %xmm7,%xmm7,%xmm8
    5f29:	c5 b2 5e dd          	vdivss %xmm5,%xmm9,%xmm3
    5f2d:	c4 c1 62 58 d0       	vaddss %xmm8,%xmm3,%xmm2
    5f32:	c5 ea 59 e1          	vmulss %xmm1,%xmm2,%xmm4
    5f36:	c5 5a 59 d4          	vmulss %xmm4,%xmm4,%xmm10
    5f3a:	c5 5a 58 e4          	vaddss %xmm4,%xmm4,%xmm12
    5f3e:	c4 41 32 5e da       	vdivss %xmm10,%xmm9,%xmm11
    5f43:	c4 41 22 58 ec       	vaddss %xmm12,%xmm11,%xmm13
    5f48:	c5 12 59 f1          	vmulss %xmm1,%xmm13,%xmm14
    5f4c:	c4 c1 0a 59 f6       	vmulss %xmm14,%xmm14,%xmm6
    5f51:	c4 41 0a 58 fe       	vaddss %xmm14,%xmm14,%xmm15
    5f56:	c5 b2 5e c6          	vdivss %xmm6,%xmm9,%xmm0
    5f5a:	c4 c1 7a 58 ff       	vaddss %xmm15,%xmm0,%xmm7
    5f5f:	c5 c2 59 e9          	vmulss %xmm1,%xmm7,%xmm5
    5f63:	c5 d2 59 dd          	vmulss %xmm5,%xmm5,%xmm3
    5f67:	c5 d2 58 d5          	vaddss %xmm5,%xmm5,%xmm2
    5f6b:	c5 32 5e c3          	vdivss %xmm3,%xmm9,%xmm8
    5f6f:	c5 ba 58 e2          	vaddss %xmm2,%xmm8,%xmm4
    5f73:	c5 5a 59 d1          	vmulss %xmm1,%xmm4,%xmm10
    5f77:	c4 41 2a 59 da       	vmulss %xmm10,%xmm10,%xmm11
    5f7c:	c4 41 2a 58 ea       	vaddss %xmm10,%xmm10,%xmm13
    5f81:	c4 41 32 5e e3       	vdivss %xmm11,%xmm9,%xmm12
    5f86:	c4 41 1a 58 f5       	vaddss %xmm13,%xmm12,%xmm14
    5f8b:	c5 8a 59 f1          	vmulss %xmm1,%xmm14,%xmm6
    5f8f:	c5 ca 59 c6          	vmulss %xmm6,%xmm6,%xmm0
    5f93:	c5 ca 58 fe          	vaddss %xmm6,%xmm6,%xmm7
    5f97:	c5 32 5e f8          	vdivss %xmm0,%xmm9,%xmm15
    5f9b:	c5 82 58 ef          	vaddss %xmm7,%xmm15,%xmm5
    5f9f:	c5 52 59 c1          	vmulss %xmm1,%xmm5,%xmm8
    5fa3:	c4 c1 3a 59 d8       	vmulss %xmm8,%xmm8,%xmm3
    5fa8:	c4 c1 3a 58 d0       	vaddss %xmm8,%xmm8,%xmm2
    5fad:	c5 b2 5e e3          	vdivss %xmm3,%xmm9,%xmm4
    5fb1:	c5 5a 58 d2          	vaddss %xmm2,%xmm4,%xmm10
    5fb5:	c5 2a 59 d9          	vmulss %xmm1,%xmm10,%xmm11
    5fb9:	c4 41 22 59 e3       	vmulss %xmm11,%xmm11,%xmm12
    5fbe:	c4 41 22 58 f3       	vaddss %xmm11,%xmm11,%xmm14
    5fc3:	c4 41 32 5e ec       	vdivss %xmm12,%xmm9,%xmm13
    5fc8:	c4 c1 12 58 f6       	vaddss %xmm14,%xmm13,%xmm6
    5fcd:	c5 ca 59 c1          	vmulss %xmm1,%xmm6,%xmm0
    5fd1:	c5 7a 59 f8          	vmulss %xmm0,%xmm0,%xmm15
    5fd5:	c5 fa 58 e8          	vaddss %xmm0,%xmm0,%xmm5
    5fd9:	c4 c1 32 5e ff       	vdivss %xmm15,%xmm9,%xmm7
    5fde:	c5 42 58 c5          	vaddss %xmm5,%xmm7,%xmm8
    5fe2:	c5 ba 59 d9          	vmulss %xmm1,%xmm8,%xmm3
    5fe6:	c5 e2 59 e3          	vmulss %xmm3,%xmm3,%xmm4
    5fea:	c5 62 58 d3          	vaddss %xmm3,%xmm3,%xmm10
    5fee:	c5 b2 5e d4          	vdivss %xmm4,%xmm9,%xmm2
    5ff2:	c4 41 6a 58 da       	vaddss %xmm10,%xmm2,%xmm11
    5ff7:	c5 22 59 e1          	vmulss %xmm1,%xmm11,%xmm12
    5ffb:	c4 41 1a 59 ec       	vmulss %xmm12,%xmm12,%xmm13
    6000:	c4 41 1a 58 f4       	vaddss %xmm12,%xmm12,%xmm14
    6005:	c4 41 32 5e cd       	vdivss %xmm13,%xmm9,%xmm9
    600a:	c4 c1 32 58 f6       	vaddss %xmm14,%xmm9,%xmm6
    600f:	c5 ca 59 c1          	vmulss %xmm1,%xmm6,%xmm0
    6013:	c5 fa 11 04 06       	vmovss %xmm0,(%rsi,%rax,1)
    6018:	48 83 c0 04          	add    $0x4,%rax
    601c:	4c 39 d8             	cmp    %r11,%rax
    601f:	0f 85 83 fe ff ff    	jne    5ea8 <_Z22opt_cube_root_templateILi16EEvPKfPfi+0x48>
    6025:	c3                   	ret
    6026:	c5 f8 77             	vzeroupper
    6029:	c3                   	ret
    602a:	83 fa 06             	cmp    $0x6,%edx
    602d:	0f 86 9f 0a 00 00    	jbe    6ad2 <_Z22opt_cube_root_templateILi16EEvPKfPfi+0xc72>
    6033:	c4 e2 7d 18 1d 64 af 	vbroadcastss 0x1af64(%rip),%ymm3        # 20fa0 <_ZNSt8__detail31__from_chars_alnum_to_val_tableILb0EE5valueE+0x100>
    603a:	01 00 
    603c:	41 c1 e8 03          	shr    $0x3,%r8d
    6040:	45 31 d2             	xor    %r10d,%r10d
    6043:	49 c1 e0 05          	shl    $0x5,%r8
    6047:	66 0f 1f 84 00 00 00 	nopw   0x0(%rax,%rax,1)
    604e:	00 00 
    6050:	c4 a1 7c 10 04 11    	vmovups (%rcx,%r10,1),%ymm0
    6056:	c5 fc 59 d3          	vmulps %ymm3,%ymm0,%ymm2
    605a:	c5 ec 59 e2          	vmulps %ymm2,%ymm2,%ymm4
    605e:	c5 6c 58 d2          	vaddps %ymm2,%ymm2,%ymm10
    6062:	c5 fc 53 cc          	vrcpps %ymm4,%ymm1
    6066:	c5 f4 59 ec          	vmulps %ymm4,%ymm1,%ymm5
    606a:	c5 f4 58 f9          	vaddps %ymm1,%ymm1,%ymm7
    606e:	c5 f4 59 f5          	vmulps %ymm5,%ymm1,%ymm6
    6072:	c5 44 5c c6          	vsubps %ymm6,%ymm7,%ymm8
    6076:	c4 41 7c 59 c8       	vmulps %ymm8,%ymm0,%ymm9
    607b:	c4 41 34 58 da       	vaddps %ymm10,%ymm9,%ymm11
    6080:	c5 24 59 e3          	vmulps %ymm3,%ymm11,%ymm12
    6084:	c4 41 1c 59 ec       	vmulps %ymm12,%ymm12,%ymm13
    6089:	c4 c1 1c 58 f4       	vaddps %ymm12,%ymm12,%ymm6
    608e:	c4 41 7c 53 f5       	vrcpps %ymm13,%ymm14
    6093:	c4 41 0c 59 fd       	vmulps %ymm13,%ymm14,%ymm15
    6098:	c4 c1 0c 58 e6       	vaddps %ymm14,%ymm14,%ymm4
    609d:	c4 c1 0c 59 d7       	vmulps %ymm15,%ymm14,%ymm2
    60a2:	c5 dc 5c ca          	vsubps %ymm2,%ymm4,%ymm1
    60a6:	c5 fc 59 e9          	vmulps %ymm1,%ymm0,%ymm5
    60aa:	c5 d4 58 fe          	vaddps %ymm6,%ymm5,%ymm7
    60ae:	c5 44 59 c3          	vmulps %ymm3,%ymm7,%ymm8
    60b2:	c4 41 3c 59 c8       	vmulps %ymm8,%ymm8,%ymm9
    60b7:	c4 c1 3c 58 d0       	vaddps %ymm8,%ymm8,%ymm2
    60bc:	c4 41 7c 53 d1       	vrcpps %ymm9,%ymm10
    60c1:	c4 41 2c 59 d9       	vmulps %ymm9,%ymm10,%ymm11
    60c6:	c4 41 2c 58 ea       	vaddps %ymm10,%ymm10,%ymm13
    60cb:	c4 41 2c 59 e3       	vmulps %ymm11,%ymm10,%ymm12
    60d0:	c4 41 14 5c f4       	vsubps %ymm12,%ymm13,%ymm14
    60d5:	c4 41 7c 59 fe       	vmulps %ymm14,%ymm0,%ymm15
    60da:	c5 84 58 e2          	vaddps %ymm2,%ymm15,%ymm4
    60de:	c5 dc 59 eb          	vmulps %ymm3,%ymm4,%ymm5
    60e2:	c5 d4 59 f5          	vmulps %ymm5,%ymm5,%ymm6
    60e6:	c5 54 58 e5          	vaddps %ymm5,%ymm5,%ymm12
    60ea:	c5 fc 53 ce          	vrcpps %ymm6,%ymm1
    60ee:	c5 f4 59 fe          	vmulps %ymm6,%ymm1,%ymm7
    60f2:	c5 74 58 c9          	vaddps %ymm1,%ymm1,%ymm9
    60f6:	c5 74 59 c7          	vmulps %ymm7,%ymm1,%ymm8
    60fa:	c4 41 34 5c d0       	vsubps %ymm8,%ymm9,%ymm10
    60ff:	c4 41 7c 59 da       	vmulps %ymm10,%ymm0,%ymm11
    6104:	c4 41 24 58 ec       	vaddps %ymm12,%ymm11,%ymm13
    6109:	c5 14 59 f3          	vmulps %ymm3,%ymm13,%ymm14
    610d:	c4 41 0c 59 fe       	vmulps %ymm14,%ymm14,%ymm15
    6112:	c4 41 0c 58 c6       	vaddps %ymm14,%ymm14,%ymm8
    6117:	c4 c1 7c 53 d7       	vrcpps %ymm15,%ymm2
    611c:	c4 c1 6c 59 e7       	vmulps %ymm15,%ymm2,%ymm4
    6121:	c5 ec 58 f2          	vaddps %ymm2,%ymm2,%ymm6
    6125:	c5 ec 59 ec          	vmulps %ymm4,%ymm2,%ymm5
    6129:	c5 cc 5c cd          	vsubps %ymm5,%ymm6,%ymm1
    612d:	c5 fc 59 f9          	vmulps %ymm1,%ymm0,%ymm7
    6131:	c4 41 44 58 c8       	vaddps %ymm8,%ymm7,%ymm9
    6136:	c5 34 59 d3          	vmulps %ymm3,%ymm9,%ymm10
    613a:	c4 41 2c 59 da       	vmulps %ymm10,%ymm10,%ymm11
    613f:	c4 c1 2c 58 e2       	vaddps %ymm10,%ymm10,%ymm4
    6144:	c4 41 7c 53 e3       	vrcpps %ymm11,%ymm12
    6149:	c4 41 1c 59 eb       	vmulps %ymm11,%ymm12,%ymm13
    614e:	c4 41 1c 58 fc       	vaddps %ymm12,%ymm12,%ymm15
    6153:	c4 41 1c 59 f5       	vmulps %ymm13,%ymm12,%ymm14
    6158:	c4 c1 04 5c d6       	vsubps %ymm14,%ymm15,%ymm2
    615d:	c5 fc 59 ea          	vmulps %ymm2,%ymm0,%ymm5
    6161:	c5 d4 58 f4          	vaddps %ymm4,%ymm5,%ymm6
    6165:	c5 cc 59 fb          	vmulps %ymm3,%ymm6,%ymm7
    6169:	c5 44 59 c7          	vmulps %ymm7,%ymm7,%ymm8
    616d:	c5 44 58 f7          	vaddps %ymm7,%ymm7,%ymm14
    6171:	c4 c1 7c 53 c8       	vrcpps %ymm8,%ymm1
    6176:	c4 41 74 59 c8       	vmulps %ymm8,%ymm1,%ymm9
    617b:	c5 74 58 d9          	vaddps %ymm1,%ymm1,%ymm11
    617f:	c4 41 74 59 d1       	vmulps %ymm9,%ymm1,%ymm10
    6184:	c4 41 24 5c e2       	vsubps %ymm10,%ymm11,%ymm12
    6189:	c4 41 7c 59 ec       	vmulps %ymm12,%ymm0,%ymm13
    618e:	c4 41 14 58 fe       	vaddps %ymm14,%ymm13,%ymm15
    6193:	c5 84 59 eb          	vmulps %ymm3,%ymm15,%ymm5
    6197:	c5 d4 59 d5          	vmulps %ymm5,%ymm5,%ymm2
    619b:	c5 54 58 d5          	vaddps %ymm5,%ymm5,%ymm10
    619f:	c5 fc 53 e2          	vrcpps %ymm2,%ymm4
    61a3:	c5 dc 59 f2          	vmulps %ymm2,%ymm4,%ymm6
    61a7:	c5 5c 58 c4          	vaddps %ymm4,%ymm4,%ymm8
    61ab:	c5 dc 59 fe          	vmulps %ymm6,%ymm4,%ymm7
    61af:	c5 bc 5c cf          	vsubps %ymm7,%ymm8,%ymm1
    61b3:	c5 7c 59 c9          	vmulps %ymm1,%ymm0,%ymm9
    61b7:	c4 41 34 58 da       	vaddps %ymm10,%ymm9,%ymm11
    61bc:	c5 24 59 e3          	vmulps %ymm3,%ymm11,%ymm12
    61c0:	c4 41 1c 59 ec       	vmulps %ymm12,%ymm12,%ymm13
    61c5:	c4 c1 1c 58 fc       	vaddps %ymm12,%ymm12,%ymm7
    61ca:	c4 41 7c 53 f5       	vrcpps %ymm13,%ymm14
    61cf:	c4 41 0c 59 fd       	vmulps %ymm13,%ymm14,%ymm15
    61d4:	c4 c1 0c 58 d6       	vaddps %ymm14,%ymm14,%ymm2
    61d9:	c4 c1 0c 59 ef       	vmulps %ymm15,%ymm14,%ymm5
    61de:	c5 ec 5c e5          	vsubps %ymm5,%ymm2,%ymm4
    61e2:	c5 fc 59 f4          	vmulps %ymm4,%ymm0,%ymm6
    61e6:	c5 4c 58 c7          	vaddps %ymm7,%ymm6,%ymm8
    61ea:	c5 3c 59 cb          	vmulps %ymm3,%ymm8,%ymm9
    61ee:	c4 41 34 59 d1       	vmulps %ymm9,%ymm9,%ymm10
    61f3:	c4 c1 34 58 e9       	vaddps %ymm9,%ymm9,%ymm5
    61f8:	c4 c1 7c 53 ca       	vrcpps %ymm10,%ymm1
    61fd:	c4 41 74 59 da       	vmulps %ymm10,%ymm1,%ymm11
    6202:	c5 74 58 e9          	vaddps %ymm1,%ymm1,%ymm13
    6206:	c4 41 74 59 e3       	vmulps %ymm11,%ymm1,%ymm12
    620b:	c4 41 14 5c f4       	vsubps %ymm12,%ymm13,%ymm14
    6210:	c4 41 7c 59 fe       	vmulps %ymm14,%ymm0,%ymm15
    6215:	c5 84 58 d5          	vaddps %ymm5,%ymm15,%ymm2
    6219:	c5 ec 59 f3          	vmulps %ymm3,%ymm2,%ymm6
    621d:	c5 cc 59 e6          	vmulps %ymm6,%ymm6,%ymm4
    6221:	c5 4c 58 e6          	vaddps %ymm6,%ymm6,%ymm12
    6225:	c5 fc 53 fc          	vrcpps %ymm4,%ymm7
    6229:	c5 44 59 c4          	vmulps %ymm4,%ymm7,%ymm8
    622d:	c5 44 58 d7          	vaddps %ymm7,%ymm7,%ymm10
    6231:	c4 41 44 59 c8       	vmulps %ymm8,%ymm7,%ymm9
    6236:	c4 c1 2c 5c c9       	vsubps %ymm9,%ymm10,%ymm1
    623b:	c5 7c 59 d9          	vmulps %ymm1,%ymm0,%ymm11
    623f:	c4 41 24 58 ec       	vaddps %ymm12,%ymm11,%ymm13
    6244:	c5 14 59 f3          	vmulps %ymm3,%ymm13,%ymm14
    6248:	c4 41 0c 59 fe       	vmulps %ymm14,%ymm14,%ymm15
    624d:	c4 41 0c 58 ce       	vaddps %ymm14,%ymm14,%ymm9
    6252:	c4 c1 7c 53 ef       	vrcpps %ymm15,%ymm5
    6257:	c4 c1 54 59 d7       	vmulps %ymm15,%ymm5,%ymm2
    625c:	c5 d4 58 e5          	vaddps %ymm5,%ymm5,%ymm4
    6260:	c5 d4 59 f2          	vmulps %ymm2,%ymm5,%ymm6
    6264:	c5 dc 5c fe          	vsubps %ymm6,%ymm4,%ymm7
    6268:	c5 7c 59 c7          	vmulps %ymm7,%ymm0,%ymm8
    626c:	c4 41 3c 58 d1       	vaddps %ymm9,%ymm8,%ymm10
    6271:	c5 2c 59 db          	vmulps %ymm3,%ymm10,%ymm11
    6275:	c4 41 24 59 e3       	vmulps %ymm11,%ymm11,%ymm12
    627a:	c4 c1 24 58 d3       	vaddps %ymm11,%ymm11,%ymm2
    627f:	c4 c1 7c 53 cc       	vrcpps %ymm12,%ymm1
    6284:	c4 41 74 59 ec       	vmulps %ymm12,%ymm1,%ymm13
    6289:	c5 74 58 f9          	vaddps %ymm1,%ymm1,%ymm15
    628d:	c4 41 74 59 f5       	vmulps %ymm13,%ymm1,%ymm14
    6292:	c4 c1 04 5c ee       	vsubps %ymm14,%ymm15,%ymm5
    6297:	c5 fc 59 f5          	vmulps %ymm5,%ymm0,%ymm6
    629b:	c5 cc 58 e2          	vaddps %ymm2,%ymm6,%ymm4
    629f:	c5 dc 59 fb          	vmulps %ymm3,%ymm4,%ymm7
    62a3:	c5 44 59 c7          	vmulps %ymm7,%ymm7,%ymm8
    62a7:	c5 44 58 f7          	vaddps %ymm7,%ymm7,%ymm14
    62ab:	c4 41 7c 53 c8       	vrcpps %ymm8,%ymm9
    62b0:	c4 41 34 59 d0       	vmulps %ymm8,%ymm9,%ymm10
    62b5:	c4 41 34 58 e1       	vaddps %ymm9,%ymm9,%ymm12
    62ba:	c4 41 34 59 da       	vmulps %ymm10,%ymm9,%ymm11
    62bf:	c4 c1 1c 5c cb       	vsubps %ymm11,%ymm12,%ymm1
    62c4:	c5 7c 59 e9          	vmulps %ymm1,%ymm0,%ymm13
    62c8:	c4 41 14 58 fe       	vaddps %ymm14,%ymm13,%ymm15
    62cd:	c5 84 59 eb          	vmulps %ymm3,%ymm15,%ymm5
    62d1:	c5 d4 59 f5          	vmulps %ymm5,%ymm5,%ymm6
    62d5:	c5 54 58 dd          	vaddps %ymm5,%ymm5,%ymm11
    62d9:	c5 fc 53 d6          	vrcpps %ymm6,%ymm2
    62dd:	c5 ec 59 e6          	vmulps %ymm6,%ymm2,%ymm4
    62e1:	c5 6c 58 c2          	vaddps %ymm2,%ymm2,%ymm8
    62e5:	c5 ec 59 fc          	vmulps %ymm4,%ymm2,%ymm7
    62e9:	c5 3c 5c cf          	vsubps %ymm7,%ymm8,%ymm9
    62ed:	c4 41 7c 59 d1       	vmulps %ymm9,%ymm0,%ymm10
    62f2:	c4 41 2c 58 e3       	vaddps %ymm11,%ymm10,%ymm12
    62f7:	c5 9c 59 cb          	vmulps %ymm3,%ymm12,%ymm1
    62fb:	c5 74 59 e9          	vmulps %ymm1,%ymm1,%ymm13
    62ff:	c5 f4 58 e1          	vaddps %ymm1,%ymm1,%ymm4
    6303:	c4 41 7c 53 f5       	vrcpps %ymm13,%ymm14
    6308:	c4 41 0c 59 fd       	vmulps %ymm13,%ymm14,%ymm15
    630d:	c4 c1 0c 58 f6       	vaddps %ymm14,%ymm14,%ymm6
    6312:	c4 c1 0c 59 ef       	vmulps %ymm15,%ymm14,%ymm5
    6317:	c5 cc 5c d5          	vsubps %ymm5,%ymm6,%ymm2
    631b:	c5 fc 59 c2          	vmulps %ymm2,%ymm0,%ymm0
    631f:	c5 fc 58 fc          	vaddps %ymm4,%ymm0,%ymm7
    6323:	c5 44 59 c3          	vmulps %ymm3,%ymm7,%ymm8
    6327:	c4 21 7c 11 04 16    	vmovups %ymm8,(%rsi,%r10,1)
    632d:	49 83 c2 20          	add    $0x20,%r10
    6331:	4d 39 d0             	cmp    %r10,%r8
    6334:	0f 85 16 fd ff ff    	jne    6050 <_Z22opt_cube_root_templateILi16EEvPKfPfi+0x1f0>
    633a:	41 89 c3             	mov    %eax,%r11d
    633d:	41 83 e3 f8          	and    $0xfffffff8,%r11d
    6341:	44 89 da             	mov    %r11d,%edx
    6344:	44 39 d8             	cmp    %r11d,%eax
    6347:	0f 84 d9 fc ff ff    	je     6026 <_Z22opt_cube_root_templateILi16EEvPKfPfi+0x1c6>
    634d:	41 89 c0             	mov    %eax,%r8d
    6350:	45 29 d8             	sub    %r11d,%r8d
    6353:	45 8d 48 ff          	lea    -0x1(%r8),%r9d
    6357:	41 83 f9 02          	cmp    $0x2,%r9d
    635b:	0f 86 7b 07 00 00    	jbe    6adc <_Z22opt_cube_root_templateILi16EEvPKfPfi+0xc7c>
    6361:	c5 f8 77             	vzeroupper
    6364:	c5 78 10 0c 91       	vmovups (%rcx,%rdx,4),%xmm9
    6369:	44 89 c7             	mov    %r8d,%edi
    636c:	c4 e2 79 18 1d 2b ac 	vbroadcastss 0x1ac2b(%rip),%xmm3        # 20fa0 <_ZNSt8__detail31__from_chars_alnum_to_val_tableILb0EE5valueE+0x100>
    6373:	01 00 
    6375:	83 e7 fc             	and    $0xfffffffc,%edi
    6378:	c5 30 59 d3          	vmulps %xmm3,%xmm9,%xmm10
    637c:	41 01 fb             	add    %edi,%r11d
    637f:	41 83 e0 03          	and    $0x3,%r8d
    6383:	c4 41 28 59 da       	vmulps %xmm10,%xmm10,%xmm11
    6388:	c4 c1 28 58 f2       	vaddps %xmm10,%xmm10,%xmm6
    638d:	c4 41 78 53 e3       	vrcpps %xmm11,%xmm12
    6392:	c4 c1 18 59 cb       	vmulps %xmm11,%xmm12,%xmm1
    6397:	c4 41 18 58 f4       	vaddps %xmm12,%xmm12,%xmm14
    639c:	c5 18 59 e9          	vmulps %xmm1,%xmm12,%xmm13
    63a0:	c4 41 08 5c fd       	vsubps %xmm13,%xmm14,%xmm15
    63a5:	c4 c1 30 59 ef       	vmulps %xmm15,%xmm9,%xmm5
    63aa:	c5 d0 58 d6          	vaddps %xmm6,%xmm5,%xmm2
    63ae:	c5 e8 59 c3          	vmulps %xmm3,%xmm2,%xmm0
    63b2:	c5 f8 59 e0          	vmulps %xmm0,%xmm0,%xmm4
    63b6:	c5 78 58 e8          	vaddps %xmm0,%xmm0,%xmm13
    63ba:	c5 f8 53 fc          	vrcpps %xmm4,%xmm7
    63be:	c5 40 59 c4          	vmulps %xmm4,%xmm7,%xmm8
    63c2:	c5 40 58 df          	vaddps %xmm7,%xmm7,%xmm11
    63c6:	c4 41 40 59 d0       	vmulps %xmm8,%xmm7,%xmm10
    63cb:	c4 41 20 5c e2       	vsubps %xmm10,%xmm11,%xmm12
    63d0:	c4 c1 30 59 cc       	vmulps %xmm12,%xmm9,%xmm1
    63d5:	c4 41 70 58 f5       	vaddps %xmm13,%xmm1,%xmm14
    63da:	c5 08 59 fb          	vmulps %xmm3,%xmm14,%xmm15
    63de:	c4 c1 00 59 ef       	vmulps %xmm15,%xmm15,%xmm5
    63e3:	c4 41 00 58 d7       	vaddps %xmm15,%xmm15,%xmm10
    63e8:	c5 f8 53 f5          	vrcpps %xmm5,%xmm6
    63ec:	c5 c8 59 d5          	vmulps %xmm5,%xmm6,%xmm2
    63f0:	c5 c8 58 e6          	vaddps %xmm6,%xmm6,%xmm4
    63f4:	c5 c8 59 c2          	vmulps %xmm2,%xmm6,%xmm0
    63f8:	c5 d8 5c f8          	vsubps %xmm0,%xmm4,%xmm7
    63fc:	c5 30 59 c7          	vmulps %xmm7,%xmm9,%xmm8
    6400:	c4 41 38 58 da       	vaddps %xmm10,%xmm8,%xmm11
    6405:	c5 20 59 e3          	vmulps %xmm3,%xmm11,%xmm12
    6409:	c4 41 18 59 ec       	vmulps %xmm12,%xmm12,%xmm13
    640e:	c4 c1 18 58 c4       	vaddps %xmm12,%xmm12,%xmm0
    6413:	c4 c1 78 53 cd       	vrcpps %xmm13,%xmm1
    6418:	c4 41 70 59 f5       	vmulps %xmm13,%xmm1,%xmm14
    641d:	c5 f0 58 e9          	vaddps %xmm1,%xmm1,%xmm5
    6421:	c4 41 70 59 fe       	vmulps %xmm14,%xmm1,%xmm15
    6426:	c4 c1 50 5c f7       	vsubps %xmm15,%xmm5,%xmm6
    642b:	c5 b0 59 d6          	vmulps %xmm6,%xmm9,%xmm2
    642f:	c5 e8 58 e0          	vaddps %xmm0,%xmm2,%xmm4
    6433:	c5 d8 59 fb          	vmulps %xmm3,%xmm4,%xmm7
    6437:	c5 40 59 c7          	vmulps %xmm7,%xmm7,%xmm8
    643b:	c5 40 58 ff          	vaddps %xmm7,%xmm7,%xmm15
    643f:	c4 41 78 53 d0       	vrcpps %xmm8,%xmm10
    6444:	c4 41 28 59 d8       	vmulps %xmm8,%xmm10,%xmm11
    6449:	c4 41 28 58 ea       	vaddps %xmm10,%xmm10,%xmm13
    644e:	c4 41 28 59 e3       	vmulps %xmm11,%xmm10,%xmm12
    6453:	c4 c1 10 5c cc       	vsubps %xmm12,%xmm13,%xmm1
    6458:	c5 30 59 f1          	vmulps %xmm1,%xmm9,%xmm14
    645c:	c4 c1 08 58 ef       	vaddps %xmm15,%xmm14,%xmm5
    6461:	c5 d0 59 f3          	vmulps %xmm3,%xmm5,%xmm6
    6465:	c5 c8 59 d6          	vmulps %xmm6,%xmm6,%xmm2
    6469:	c5 48 58 e6          	vaddps %xmm6,%xmm6,%xmm12
    646d:	c5 f8 53 c2          	vrcpps %xmm2,%xmm0
    6471:	c5 f8 59 e2          	vmulps %xmm2,%xmm0,%xmm4
    6475:	c5 78 58 c0          	vaddps %xmm0,%xmm0,%xmm8
    6479:	c5 f8 59 fc          	vmulps %xmm4,%xmm0,%xmm7
    647d:	c5 38 5c d7          	vsubps %xmm7,%xmm8,%xmm10
    6481:	c4 41 30 59 da       	vmulps %xmm10,%xmm9,%xmm11
    6486:	c4 41 20 58 ec       	vaddps %xmm12,%xmm11,%xmm13
    648b:	c5 10 59 f3          	vmulps %xmm3,%xmm13,%xmm14
    648f:	c4 41 08 59 fe       	vmulps %xmm14,%xmm14,%xmm15
    6494:	c4 c1 08 58 fe       	vaddps %xmm14,%xmm14,%xmm7
    6499:	c4 c1 78 53 cf       	vrcpps %xmm15,%xmm1
    649e:	c4 c1 70 59 ef       	vmulps %xmm15,%xmm1,%xmm5
    64a3:	c5 f0 58 d1          	vaddps %xmm1,%xmm1,%xmm2
    64a7:	c5 f0 59 f5          	vmulps %xmm5,%xmm1,%xmm6
    64ab:	c5 e8 5c c6          	vsubps %xmm6,%xmm2,%xmm0
    64af:	c5 b0 59 e0          	vmulps %xmm0,%xmm9,%xmm4
    64b3:	c5 58 58 c7          	vaddps %xmm7,%xmm4,%xmm8
    64b7:	c5 38 59 d3          	vmulps %xmm3,%xmm8,%xmm10
    64bb:	c4 41 28 59 da       	vmulps %xmm10,%xmm10,%xmm11
    64c0:	c4 c1 28 58 f2       	vaddps %xmm10,%xmm10,%xmm6
    64c5:	c4 41 78 53 e3       	vrcpps %xmm11,%xmm12
    64ca:	c4 41 18 59 eb       	vmulps %xmm11,%xmm12,%xmm13
    64cf:	c4 41 18 58 fc       	vaddps %xmm12,%xmm12,%xmm15
    64d4:	c4 41 18 59 f5       	vmulps %xmm13,%xmm12,%xmm14
    64d9:	c4 c1 00 5c ce       	vsubps %xmm14,%xmm15,%xmm1
    64de:	c5 b0 59 e9          	vmulps %xmm1,%xmm9,%xmm5
    64e2:	c5 d0 58 d6          	vaddps %xmm6,%xmm5,%xmm2
    64e6:	c5 e8 59 c3          	vmulps %xmm3,%xmm2,%xmm0
    64ea:	c5 f8 59 e0          	vmulps %xmm0,%xmm0,%xmm4
    64ee:	c5 78 58 f0          	vaddps %xmm0,%xmm0,%xmm14
    64f2:	c5 f8 53 fc          	vrcpps %xmm4,%xmm7
    64f6:	c5 40 59 c4          	vmulps %xmm4,%xmm7,%xmm8
    64fa:	c5 40 58 df          	vaddps %xmm7,%xmm7,%xmm11
    64fe:	c4 41 40 59 d0       	vmulps %xmm8,%xmm7,%xmm10
    6503:	c4 41 20 5c e2       	vsubps %xmm10,%xmm11,%xmm12
    6508:	c4 41 30 59 ec       	vmulps %xmm12,%xmm9,%xmm13
    650d:	c4 41 10 58 fe       	vaddps %xmm14,%xmm13,%xmm15
    6512:	c5 80 59 eb          	vmulps %xmm3,%xmm15,%xmm5
    6516:	c5 d0 59 f5          	vmulps %xmm5,%xmm5,%xmm6
    651a:	c5 50 58 d5          	vaddps %xmm5,%xmm5,%xmm10
    651e:	c5 f8 53 ce          	vrcpps %xmm6,%xmm1
    6522:	c5 f0 59 d6          	vmulps %xmm6,%xmm1,%xmm2
    6526:	c5 f0 58 e1          	vaddps %xmm1,%xmm1,%xmm4
    652a:	c5 f0 59 c2          	vmulps %xmm2,%xmm1,%xmm0
    652e:	c5 d8 5c f8          	vsubps %xmm0,%xmm4,%xmm7
    6532:	c5 30 59 c7          	vmulps %xmm7,%xmm9,%xmm8
    6536:	c4 41 38 58 da       	vaddps %xmm10,%xmm8,%xmm11
    653b:	c5 20 59 e3          	vmulps %xmm3,%xmm11,%xmm12
    653f:	c4 41 18 59 ec       	vmulps %xmm12,%xmm12,%xmm13
    6544:	c4 c1 18 58 d4       	vaddps %xmm12,%xmm12,%xmm2
    6549:	c4 41 78 53 f5       	vrcpps %xmm13,%xmm14
    654e:	c4 41 08 59 fd       	vmulps %xmm13,%xmm14,%xmm15
    6553:	c4 c1 08 58 f6       	vaddps %xmm14,%xmm14,%xmm6
    6558:	c4 c1 08 59 ef       	vmulps %xmm15,%xmm14,%xmm5
    655d:	c5 c8 5c cd          	vsubps %xmm5,%xmm6,%xmm1
    6561:	c5 b0 59 c1          	vmulps %xmm1,%xmm9,%xmm0
    6565:	c5 f8 58 e2          	vaddps %xmm2,%xmm0,%xmm4
    6569:	c5 d8 59 fb          	vmulps %xmm3,%xmm4,%xmm7
    656d:	c5 40 59 c7          	vmulps %xmm7,%xmm7,%xmm8
    6571:	c5 c0 58 ef          	vaddps %xmm7,%xmm7,%xmm5
    6575:	c4 41 78 53 d0       	vrcpps %xmm8,%xmm10
    657a:	c4 41 28 59 d8       	vmulps %xmm8,%xmm10,%xmm11
    657f:	c4 41 28 58 ea       	vaddps %xmm10,%xmm10,%xmm13
    6584:	c4 41 28 59 e3       	vmulps %xmm11,%xmm10,%xmm12
    6589:	c4 41 10 5c f4       	vsubps %xmm12,%xmm13,%xmm14
    658e:	c4 41 30 59 fe       	vmulps %xmm14,%xmm9,%xmm15
    6593:	c5 80 58 f5          	vaddps %xmm5,%xmm15,%xmm6
    6597:	c5 c8 59 c3          	vmulps %xmm3,%xmm6,%xmm0
    659b:	c5 f8 59 d0          	vmulps %xmm0,%xmm0,%xmm2
    659f:	c5 78 58 e0          	vaddps %xmm0,%xmm0,%xmm12
    65a3:	c5 f8 53 ca          	vrcpps %xmm2,%xmm1
    65a7:	c5 f0 59 e2          	vmulps %xmm2,%xmm1,%xmm4
    65ab:	c5 70 58 c1          	vaddps %xmm1,%xmm1,%xmm8
    65af:	c5 f0 59 fc          	vmulps %xmm4,%xmm1,%xmm7
    65b3:	c5 38 5c d7          	vsubps %xmm7,%xmm8,%xmm10
    65b7:	c4 41 30 59 da       	vmulps %xmm10,%xmm9,%xmm11
    65bc:	c4 41 20 58 ec       	vaddps %xmm12,%xmm11,%xmm13
    65c1:	c5 10 59 f3          	vmulps %xmm3,%xmm13,%xmm14
    65c5:	c4 41 08 59 fe       	vmulps %xmm14,%xmm14,%xmm15
    65ca:	c4 c1 08 58 e6       	vaddps %xmm14,%xmm14,%xmm4
    65cf:	c4 c1 78 53 ef       	vrcpps %xmm15,%xmm5
    65d4:	c4 c1 50 59 f7       	vmulps %xmm15,%xmm5,%xmm6
    65d9:	c5 d0 58 d5          	vaddps %xmm5,%xmm5,%xmm2
    65dd:	c5 d0 59 c6          	vmulps %xmm6,%xmm5,%xmm0
    65e1:	c5 e8 5c c8          	vsubps %xmm0,%xmm2,%xmm1
    65e5:	c5 b0 59 f9          	vmulps %xmm1,%xmm9,%xmm7
    65e9:	c5 40 58 c4          	vaddps %xmm4,%xmm7,%xmm8
    65ed:	c5 38 59 d3          	vmulps %xmm3,%xmm8,%xmm10
    65f1:	c4 41 28 59 da       	vmulps %xmm10,%xmm10,%xmm11
    65f6:	c4 c1 28 58 c2       	vaddps %xmm10,%xmm10,%xmm0
    65fb:	c4 41 78 53 e3       	vrcpps %xmm11,%xmm12
    6600:	c4 41 18 59 eb       	vmulps %xmm11,%xmm12,%xmm13
    6605:	c4 41 18 58 fc       	vaddps %xmm12,%xmm12,%xmm15
    660a:	c4 41 18 59 f5       	vmulps %xmm13,%xmm12,%xmm14
    660f:	c4 c1 00 5c ee       	vsubps %xmm14,%xmm15,%xmm5
    6614:	c5 b0 59 f5          	vmulps %xmm5,%xmm9,%xmm6
    6618:	c5 c8 58 d0          	vaddps %xmm0,%xmm6,%xmm2
    661c:	c5 e8 59 cb          	vmulps %xmm3,%xmm2,%xmm1
    6620:	c5 f0 59 f9          	vmulps %xmm1,%xmm1,%xmm7
    6624:	c5 70 58 e9          	vaddps %xmm1,%xmm1,%xmm13
    6628:	c5 78 53 c7          	vrcpps %xmm7,%xmm8
    662c:	c5 b8 59 e7          	vmulps %xmm7,%xmm8,%xmm4
    6630:	c4 41 38 58 d8       	vaddps %xmm8,%xmm8,%xmm11
    6635:	c5 38 59 d4          	vmulps %xmm4,%xmm8,%xmm10
    6639:	c4 41 20 5c e2       	vsubps %xmm10,%xmm11,%xmm12
    663e:	c4 41 30 59 cc       	vmulps %xmm12,%xmm9,%xmm9
    6643:	c4 41 30 58 f5       	vaddps %xmm13,%xmm9,%xmm14
    6648:	c5 88 59 db          	vmulps %xmm3,%xmm14,%xmm3
    664c:	c5 f8 11 1c 96       	vmovups %xmm3,(%rsi,%rdx,4)
    6651:	0f 84 d2 f9 ff ff    	je     6029 <_Z22opt_cube_root_templateILi16EEvPKfPfi+0x1c9>
    6657:	4d 63 d3             	movslq %r11d,%r10
    665a:	c5 fa 10 2d 3e a9 01 	vmovss 0x1a93e(%rip),%xmm5        # 20fa0 <_ZNSt8__detail31__from_chars_alnum_to_val_tableILb0EE5valueE+0x100>
    6661:	00 
    6662:	45 8d 43 01          	lea    0x1(%r11),%r8d
    6666:	c4 21 7a 10 3c 91    	vmovss (%rcx,%r10,4),%xmm15
    666c:	4a 8d 14 95 00 00 00 	lea    0x0(,%r10,4),%rdx
    6673:	00 
    6674:	c5 82 59 f5          	vmulss %xmm5,%xmm15,%xmm6
    6678:	c5 ca 59 c6          	vmulss %xmm6,%xmm6,%xmm0
    667c:	c5 ca 58 ce          	vaddss %xmm6,%xmm6,%xmm1
    6680:	c5 82 5e d0          	vdivss %xmm0,%xmm15,%xmm2
    6684:	c5 ea 58 f9          	vaddss %xmm1,%xmm2,%xmm7
    6688:	c5 42 59 c5          	vmulss %xmm5,%xmm7,%xmm8
    668c:	c4 c1 3a 59 e0       	vmulss %xmm8,%xmm8,%xmm4
    6691:	c4 41 3a 58 d8       	vaddss %xmm8,%xmm8,%xmm11
    6696:	c5 02 5e d4          	vdivss %xmm4,%xmm15,%xmm10
    669a:	c4 41 2a 58 e3       	vaddss %xmm11,%xmm10,%xmm12
    669f:	c5 1a 59 cd          	vmulss %xmm5,%xmm12,%xmm9
    66a3:	c4 41 32 59 e9       	vmulss %xmm9,%xmm9,%xmm13
    66a8:	c4 c1 32 58 d9       	vaddss %xmm9,%xmm9,%xmm3
    66ad:	c4 41 02 5e f5       	vdivss %xmm13,%xmm15,%xmm14
    66b2:	c5 8a 58 f3          	vaddss %xmm3,%xmm14,%xmm6
    66b6:	c5 ca 59 c5          	vmulss %xmm5,%xmm6,%xmm0
    66ba:	c5 fa 59 d0          	vmulss %xmm0,%xmm0,%xmm2
    66be:	c5 fa 58 f8          	vaddss %xmm0,%xmm0,%xmm7
    66c2:	c5 82 5e ca          	vdivss %xmm2,%xmm15,%xmm1
    66c6:	c5 72 58 c7          	vaddss %xmm7,%xmm1,%xmm8
    66ca:	c5 ba 59 e5          	vmulss %xmm5,%xmm8,%xmm4
    66ce:	c5 5a 59 d4          	vmulss %xmm4,%xmm4,%xmm10
    66d2:	c5 5a 58 e4          	vaddss %xmm4,%xmm4,%xmm12
    66d6:	c4 41 02 5e da       	vdivss %xmm10,%xmm15,%xmm11
    66db:	c4 41 22 58 cc       	vaddss %xmm12,%xmm11,%xmm9
    66e0:	c5 32 59 ed          	vmulss %xmm5,%xmm9,%xmm13
    66e4:	c4 41 12 59 f5       	vmulss %xmm13,%xmm13,%xmm14
    66e9:	c4 c1 12 58 f5       	vaddss %xmm13,%xmm13,%xmm6
    66ee:	c4 c1 02 5e de       	vdivss %xmm14,%xmm15,%xmm3
    66f3:	c5 e2 58 c6          	vaddss %xmm6,%xmm3,%xmm0
    66f7:	c5 fa 59 cd          	vmulss %xmm5,%xmm0,%xmm1
    66fb:	c5 f2 59 d1          	vmulss %xmm1,%xmm1,%xmm2
    66ff:	c5 72 58 c1          	vaddss %xmm1,%xmm1,%xmm8
    6703:	c5 82 5e fa          	vdivss %xmm2,%xmm15,%xmm7
    6707:	c4 c1 42 58 e0       	vaddss %xmm8,%xmm7,%xmm4
    670c:	c5 5a 59 d5          	vmulss %xmm5,%xmm4,%xmm10
    6710:	c4 41 2a 59 da       	vmulss %xmm10,%xmm10,%xmm11
    6715:	c4 41 2a 58 ca       	vaddss %xmm10,%xmm10,%xmm9
    671a:	c4 41 02 5e e3       	vdivss %xmm11,%xmm15,%xmm12
    671f:	c4 41 1a 58 e9       	vaddss %xmm9,%xmm12,%xmm13
    6724:	c5 12 59 f5          	vmulss %xmm5,%xmm13,%xmm14
    6728:	c4 c1 0a 59 de       	vmulss %xmm14,%xmm14,%xmm3
    672d:	c4 c1 0a 58 c6       	vaddss %xmm14,%xmm14,%xmm0
    6732:	c5 82 5e f3          	vdivss %xmm3,%xmm15,%xmm6
    6736:	c5 ca 58 c8          	vaddss %xmm0,%xmm6,%xmm1
    673a:	c5 f2 59 d5          	vmulss %xmm5,%xmm1,%xmm2
    673e:	c5 ea 59 fa          	vmulss %xmm2,%xmm2,%xmm7
    6742:	c5 ea 58 e2          	vaddss %xmm2,%xmm2,%xmm4
    6746:	c5 02 5e c7          	vdivss %xmm7,%xmm15,%xmm8
    674a:	c5 3a 58 d4          	vaddss %xmm4,%xmm8,%xmm10
    674e:	c5 2a 59 dd          	vmulss %xmm5,%xmm10,%xmm11
    6752:	c4 41 22 59 e3       	vmulss %xmm11,%xmm11,%xmm12
    6757:	c4 41 22 58 eb       	vaddss %xmm11,%xmm11,%xmm13
    675c:	c4 41 02 5e cc       	vdivss %xmm12,%xmm15,%xmm9
    6761:	c4 41 32 58 f5       	vaddss %xmm13,%xmm9,%xmm14
    6766:	c5 8a 59 f5          	vmulss %xmm5,%xmm14,%xmm6
    676a:	c5 ca 59 de          	vmulss %xmm6,%xmm6,%xmm3
    676e:	c5 ca 58 ce          	vaddss %xmm6,%xmm6,%xmm1
    6772:	c5 82 5e c3          	vdivss %xmm3,%xmm15,%xmm0
    6776:	c5 fa 58 d1          	vaddss %xmm1,%xmm0,%xmm2
    677a:	c5 ea 59 fd          	vmulss %xmm5,%xmm2,%xmm7
    677e:	c5 42 59 c7          	vmulss %xmm7,%xmm7,%xmm8
    6782:	c5 42 58 d7          	vaddss %xmm7,%xmm7,%xmm10
    6786:	c4 c1 02 5e e0       	vdivss %xmm8,%xmm15,%xmm4
    678b:	c4 41 5a 58 da       	vaddss %xmm10,%xmm4,%xmm11
    6790:	c5 22 59 e5          	vmulss %xmm5,%xmm11,%xmm12
    6794:	c4 41 1a 59 cc       	vmulss %xmm12,%xmm12,%xmm9
    6799:	c4 41 1a 58 f4       	vaddss %xmm12,%xmm12,%xmm14
    679e:	c4 41 02 5e e9       	vdivss %xmm9,%xmm15,%xmm13
    67a3:	c4 c1 12 58 f6       	vaddss %xmm14,%xmm13,%xmm6
    67a8:	c5 ca 59 dd          	vmulss %xmm5,%xmm6,%xmm3
    67ac:	c5 e2 59 c3          	vmulss %xmm3,%xmm3,%xmm0
    67b0:	c5 e2 58 d3          	vaddss %xmm3,%xmm3,%xmm2
    67b4:	c5 82 5e c8          	vdivss %xmm0,%xmm15,%xmm1
    67b8:	c5 f2 58 fa          	vaddss %xmm2,%xmm1,%xmm7
    67bc:	c5 42 59 c5          	vmulss %xmm5,%xmm7,%xmm8
    67c0:	c4 c1 3a 59 e0       	vmulss %xmm8,%xmm8,%xmm4
    67c5:	c4 41 3a 58 d0       	vaddss %xmm8,%xmm8,%xmm10
    67ca:	c5 02 5e fc          	vdivss %xmm4,%xmm15,%xmm15
    67ce:	c4 41 02 58 da       	vaddss %xmm10,%xmm15,%xmm11
    67d3:	c5 22 59 e5          	vmulss %xmm5,%xmm11,%xmm12
    67d7:	c4 21 7a 11 24 96    	vmovss %xmm12,(%rsi,%r10,4)
    67dd:	44 39 c0             	cmp    %r8d,%eax
    67e0:	0f 8e 43 f8 ff ff    	jle    6029 <_Z22opt_cube_root_templateILi16EEvPKfPfi+0x1c9>
    67e6:	c5 7a 10 4c 11 04    	vmovss 0x4(%rcx,%rdx,1),%xmm9
    67ec:	41 83 c3 02          	add    $0x2,%r11d
    67f0:	c5 32 59 ed          	vmulss %xmm5,%xmm9,%xmm13
    67f4:	c4 41 12 59 f5       	vmulss %xmm13,%xmm13,%xmm14
    67f9:	c4 c1 12 58 dd       	vaddss %xmm13,%xmm13,%xmm3
    67fe:	c4 c1 32 5e f6       	vdivss %xmm14,%xmm9,%xmm6
    6803:	c5 ca 58 c3          	vaddss %xmm3,%xmm6,%xmm0
    6807:	c5 fa 59 cd          	vmulss %xmm5,%xmm0,%xmm1
    680b:	c5 f2 59 d1          	vmulss %xmm1,%xmm1,%xmm2
    680f:	c5 72 58 c1          	vaddss %xmm1,%xmm1,%xmm8
    6813:	c5 b2 5e fa          	vdivss %xmm2,%xmm9,%xmm7
    6817:	c4 c1 42 58 e0       	vaddss %xmm8,%xmm7,%xmm4
    681c:	c5 5a 59 fd          	vmulss %xmm5,%xmm4,%xmm15
    6820:	c4 41 02 59 d7       	vmulss %xmm15,%xmm15,%xmm10
    6825:	c4 41 02 58 e7       	vaddss %xmm15,%xmm15,%xmm12
    682a:	c4 41 32 5e da       	vdivss %xmm10,%xmm9,%xmm11
    682f:	c4 41 22 58 ec       	vaddss %xmm12,%xmm11,%xmm13
    6834:	c5 12 59 f5          	vmulss %xmm5,%xmm13,%xmm14
    6838:	c4 c1 0a 59 f6       	vmulss %xmm14,%xmm14,%xmm6
    683d:	c4 c1 0a 58 c6       	vaddss %xmm14,%xmm14,%xmm0
    6842:	c5 b2 5e de          	vdivss %xmm6,%xmm9,%xmm3
    6846:	c5 e2 58 c8          	vaddss %xmm0,%xmm3,%xmm1
    684a:	c5 f2 59 fd          	vmulss %xmm5,%xmm1,%xmm7
    684e:	c5 c2 59 d7          	vmulss %xmm7,%xmm7,%xmm2
    6852:	c5 c2 58 e7          	vaddss %xmm7,%xmm7,%xmm4
    6856:	c5 32 5e c2          	vdivss %xmm2,%xmm9,%xmm8
    685a:	c5 3a 58 fc          	vaddss %xmm4,%xmm8,%xmm15
    685e:	c5 02 59 d5          	vmulss %xmm5,%xmm15,%xmm10
    6862:	c4 41 2a 59 da       	vmulss %xmm10,%xmm10,%xmm11
    6867:	c4 41 2a 58 ea       	vaddss %xmm10,%xmm10,%xmm13
    686c:	c4 41 32 5e e3       	vdivss %xmm11,%xmm9,%xmm12
    6871:	c4 41 1a 58 f5       	vaddss %xmm13,%xmm12,%xmm14
    6876:	c5 8a 59 f5          	vmulss %xmm5,%xmm14,%xmm6
    687a:	c5 ca 59 de          	vmulss %xmm6,%xmm6,%xmm3
    687e:	c5 ca 58 ce          	vaddss %xmm6,%xmm6,%xmm1
    6882:	c5 b2 5e c3          	vdivss %xmm3,%xmm9,%xmm0
    6886:	c5 fa 58 f9          	vaddss %xmm1,%xmm0,%xmm7
    688a:	c5 c2 59 d5          	vmulss %xmm5,%xmm7,%xmm2
    688e:	c5 6a 59 c2          	vmulss %xmm2,%xmm2,%xmm8
    6892:	c5 6a 58 fa          	vaddss %xmm2,%xmm2,%xmm15
    6896:	c4 c1 32 5e e0       	vdivss %xmm8,%xmm9,%xmm4
    689b:	c4 41 5a 58 d7       	vaddss %xmm15,%xmm4,%xmm10
    68a0:	c5 2a 59 dd          	vmulss %xmm5,%xmm10,%xmm11
    68a4:	c4 41 22 59 e3       	vmulss %xmm11,%xmm11,%xmm12
    68a9:	c4 41 22 58 f3       	vaddss %xmm11,%xmm11,%xmm14
    68ae:	c4 41 32 5e ec       	vdivss %xmm12,%xmm9,%xmm13
    68b3:	c4 c1 12 58 f6       	vaddss %xmm14,%xmm13,%xmm6
    68b8:	c5 ca 59 c5          	vmulss %xmm5,%xmm6,%xmm0
    68bc:	c5 fa 59 d8          	vmulss %xmm0,%xmm0,%xmm3
    68c0:	c5 fa 58 f8          	vaddss %xmm0,%xmm0,%xmm7
    68c4:	c5 b2 5e cb          	vdivss %xmm3,%xmm9,%xmm1
    68c8:	c5 f2 58 d7          	vaddss %xmm7,%xmm1,%xmm2
    68cc:	c5 6a 59 c5          	vmulss %xmm5,%xmm2,%xmm8
    68d0:	c4 c1 3a 59 e0       	vmulss %xmm8,%xmm8,%xmm4
    68d5:	c4 41 3a 58 d0       	vaddss %xmm8,%xmm8,%xmm10
    68da:	c5 32 5e fc          	vdivss %xmm4,%xmm9,%xmm15
    68de:	c4 41 02 58 da       	vaddss %xmm10,%xmm15,%xmm11
    68e3:	c5 22 59 e5          	vmulss %xmm5,%xmm11,%xmm12
    68e7:	c4 41 1a 59 ec       	vmulss %xmm12,%xmm12,%xmm13
    68ec:	c4 c1 1a 58 f4       	vaddss %xmm12,%xmm12,%xmm6
    68f1:	c4 41 32 5e f5       	vdivss %xmm13,%xmm9,%xmm14
    68f6:	c5 8a 58 c6          	vaddss %xmm6,%xmm14,%xmm0
    68fa:	c5 fa 59 dd          	vmulss %xmm5,%xmm0,%xmm3
    68fe:	c5 e2 59 cb          	vmulss %xmm3,%xmm3,%xmm1
    6902:	c5 e2 58 d3          	vaddss %xmm3,%xmm3,%xmm2
    6906:	c5 b2 5e f9          	vdivss %xmm1,%xmm9,%xmm7
    690a:	c5 42 58 c2          	vaddss %xmm2,%xmm7,%xmm8
    690e:	c5 ba 59 e5          	vmulss %xmm5,%xmm8,%xmm4
    6912:	c5 5a 59 fc          	vmulss %xmm4,%xmm4,%xmm15
    6916:	c5 5a 58 dc          	vaddss %xmm4,%xmm4,%xmm11
    691a:	c4 41 32 5e d7       	vdivss %xmm15,%xmm9,%xmm10
    691f:	c4 41 2a 58 e3       	vaddss %xmm11,%xmm10,%xmm12
    6924:	c5 1a 59 ed          	vmulss %xmm5,%xmm12,%xmm13
    6928:	c4 41 12 59 f5       	vmulss %xmm13,%xmm13,%xmm14
    692d:	c4 c1 12 58 c5       	vaddss %xmm13,%xmm13,%xmm0
    6932:	c4 c1 32 5e f6       	vdivss %xmm14,%xmm9,%xmm6
    6937:	c5 ca 58 d8          	vaddss %xmm0,%xmm6,%xmm3
    693b:	c5 e2 59 fd          	vmulss %xmm5,%xmm3,%xmm7
    693f:	c5 c2 59 cf          	vmulss %xmm7,%xmm7,%xmm1
    6943:	c5 c2 58 d7          	vaddss %xmm7,%xmm7,%xmm2
    6947:	c5 32 5e c9          	vdivss %xmm1,%xmm9,%xmm9
    694b:	c5 32 58 c2          	vaddss %xmm2,%xmm9,%xmm8
    694f:	c5 ba 59 e5          	vmulss %xmm5,%xmm8,%xmm4
    6953:	c5 fa 11 64 16 04    	vmovss %xmm4,0x4(%rsi,%rdx,1)
    6959:	44 39 d8             	cmp    %r11d,%eax
    695c:	0f 8e c7 f6 ff ff    	jle    6029 <_Z22opt_cube_root_templateILi16EEvPKfPfi+0x1c9>
    6962:	c5 7a 10 7c 11 08    	vmovss 0x8(%rcx,%rdx,1),%xmm15
    6968:	c5 02 59 d5          	vmulss %xmm5,%xmm15,%xmm10
    696c:	c4 41 2a 59 da       	vmulss %xmm10,%xmm10,%xmm11
    6971:	c4 41 2a 58 ea       	vaddss %xmm10,%xmm10,%xmm13
    6976:	c4 41 02 5e e3       	vdivss %xmm11,%xmm15,%xmm12
    697b:	c4 41 1a 58 f5       	vaddss %xmm13,%xmm12,%xmm14
    6980:	c5 8a 59 f5          	vmulss %xmm5,%xmm14,%xmm6
    6984:	c5 ca 59 c6          	vmulss %xmm6,%xmm6,%xmm0
    6988:	c5 ca 58 fe          	vaddss %xmm6,%xmm6,%xmm7
    698c:	c5 82 5e d8          	vdivss %xmm0,%xmm15,%xmm3
    6990:	c5 e2 58 cf          	vaddss %xmm7,%xmm3,%xmm1
    6994:	c5 72 59 cd          	vmulss %xmm5,%xmm1,%xmm9
    6998:	c4 c1 32 59 d1       	vmulss %xmm9,%xmm9,%xmm2
    699d:	c4 c1 32 58 e1       	vaddss %xmm9,%xmm9,%xmm4
    69a2:	c5 02 5e c2          	vdivss %xmm2,%xmm15,%xmm8
    69a6:	c5 3a 58 d4          	vaddss %xmm4,%xmm8,%xmm10
    69aa:	c5 2a 59 dd          	vmulss %xmm5,%xmm10,%xmm11
    69ae:	c4 41 22 59 e3       	vmulss %xmm11,%xmm11,%xmm12
    69b3:	c4 41 22 58 f3       	vaddss %xmm11,%xmm11,%xmm14
    69b8:	c4 41 02 5e ec       	vdivss %xmm12,%xmm15,%xmm13
    69bd:	c4 c1 12 58 f6       	vaddss %xmm14,%xmm13,%xmm6
    69c2:	c5 ca 59 c5          	vmulss %xmm5,%xmm6,%xmm0
    69c6:	c5 fa 59 d8          	vmulss %xmm0,%xmm0,%xmm3
    69ca:	c5 fa 58 c8          	vaddss %xmm0,%xmm0,%xmm1
    69ce:	c5 82 5e fb          	vdivss %xmm3,%xmm15,%xmm7
    69d2:	c5 42 58 c9          	vaddss %xmm1,%xmm7,%xmm9
    69d6:	c5 b2 59 d5          	vmulss %xmm5,%xmm9,%xmm2
    69da:	c5 6a 59 c2          	vmulss %xmm2,%xmm2,%xmm8
    69de:	c5 6a 58 d2          	vaddss %xmm2,%xmm2,%xmm10
    69e2:	c4 c1 02 5e e0       	vdivss %xmm8,%xmm15,%xmm4
    69e7:	c4 41 5a 58 da       	vaddss %xmm10,%xmm4,%xmm11
    69ec:	c5 22 59 e5          	vmulss %xmm5,%xmm11,%xmm12
    69f0:	c4 41 1a 59 ec       	vmulss %xmm12,%xmm12,%xmm13
    69f5:	c4 c1 1a 58 f4       	vaddss %xmm12,%xmm12,%xmm6
    69fa:	c4 41 02 5e f5       	vdivss %xmm13,%xmm15,%xmm14
    69ff:	c5 8a 58 c6          	vaddss %xmm6,%xmm14,%xmm0
    6a03:	c5 fa 59 fd          	vmulss %xmm5,%xmm0,%xmm7
    6a07:	c5 c2 59 df          	vmulss %xmm7,%xmm7,%xmm3
    6a0b:	c5 42 58 cf          	vaddss %xmm7,%xmm7,%xmm9
    6a0f:	c5 82 5e cb          	vdivss %xmm3,%xmm15,%xmm1
    6a13:	c4 c1 72 58 d1       	vaddss %xmm9,%xmm1,%xmm2
    6a18:	c5 6a 59 c5          	vmulss %xmm5,%xmm2,%xmm8
    6a1c:	c4 c1 3a 59 e0       	vmulss %xmm8,%xmm8,%xmm4
    6a21:	c4 41 3a 58 d8       	vaddss %xmm8,%xmm8,%xmm11
    6a26:	c5 02 5e d4          	vdivss %xmm4,%xmm15,%xmm10
    6a2a:	c4 41 2a 58 e3       	vaddss %xmm11,%xmm10,%xmm12
    6a2f:	c5 1a 59 ed          	vmulss %xmm5,%xmm12,%xmm13
    6a33:	c4 41 12 59 f5       	vmulss %xmm13,%xmm13,%xmm14
    6a38:	c4 c1 12 58 c5       	vaddss %xmm13,%xmm13,%xmm0
    6a3d:	c4 c1 02 5e f6       	vdivss %xmm14,%xmm15,%xmm6
    6a42:	c5 ca 58 f8          	vaddss %xmm0,%xmm6,%xmm7
    6a46:	c5 c2 59 dd          	vmulss %xmm5,%xmm7,%xmm3
    6a4a:	c5 e2 59 cb          	vmulss %xmm3,%xmm3,%xmm1
    6a4e:	c5 e2 58 d3          	vaddss %xmm3,%xmm3,%xmm2
    6a52:	c5 02 5e c9          	vdivss %xmm1,%xmm15,%xmm9
    6a56:	c5 32 58 c2          	vaddss %xmm2,%xmm9,%xmm8
    6a5a:	c5 ba 59 e5          	vmulss %xmm5,%xmm8,%xmm4
    6a5e:	c5 5a 59 d4          	vmulss %xmm4,%xmm4,%xmm10
    6a62:	c5 5a 58 e4          	vaddss %xmm4,%xmm4,%xmm12
    6a66:	c4 41 02 5e da       	vdivss %xmm10,%xmm15,%xmm11
    6a6b:	c4 41 22 58 ec       	vaddss %xmm12,%xmm11,%xmm13
    6a70:	c5 12 59 f5          	vmulss %xmm5,%xmm13,%xmm14
    6a74:	c4 c1 0a 59 f6       	vmulss %xmm14,%xmm14,%xmm6
    6a79:	c4 c1 0a 58 fe       	vaddss %xmm14,%xmm14,%xmm7
    6a7e:	c5 82 5e c6          	vdivss %xmm6,%xmm15,%xmm0
    6a82:	c5 fa 58 df          	vaddss %xmm7,%xmm0,%xmm3
    6a86:	c5 e2 59 cd          	vmulss %xmm5,%xmm3,%xmm1
    6a8a:	c5 72 59 c9          	vmulss %xmm1,%xmm1,%xmm9
    6a8e:	c5 f2 58 d1          	vaddss %xmm1,%xmm1,%xmm2
    6a92:	c4 41 02 5e c1       	vdivss %xmm9,%xmm15,%xmm8
    6a97:	c5 ba 58 e2          	vaddss %xmm2,%xmm8,%xmm4
    6a9b:	c5 5a 59 d5          	vmulss %xmm5,%xmm4,%xmm10
    6a9f:	c4 41 2a 59 da       	vmulss %xmm10,%xmm10,%xmm11
    6aa4:	c4 41 2a 58 ea       	vaddss %xmm10,%xmm10,%xmm13
    6aa9:	c4 41 02 5e e3       	vdivss %xmm11,%xmm15,%xmm12
    6aae:	c4 41 1a 58 f5       	vaddss %xmm13,%xmm12,%xmm14
    6ab3:	c5 8a 59 f5          	vmulss %xmm5,%xmm14,%xmm6
    6ab7:	c5 ca 59 c6          	vmulss %xmm6,%xmm6,%xmm0
    6abb:	c5 ca 58 fe          	vaddss %xmm6,%xmm6,%xmm7
    6abf:	c5 02 5e f8          	vdivss %xmm0,%xmm15,%xmm15
    6ac3:	c5 82 58 df          	vaddss %xmm7,%xmm15,%xmm3
    6ac7:	c5 e2 59 ed          	vmulss %xmm5,%xmm3,%xmm5
    6acb:	c5 fa 11 6c 16 08    	vmovss %xmm5,0x8(%rsi,%rdx,1)
    6ad1:	c3                   	ret
    6ad2:	31 d2                	xor    %edx,%edx
    6ad4:	45 31 db             	xor    %r11d,%r11d
    6ad7:	e9 88 f8 ff ff       	jmp    6364 <_Z22opt_cube_root_templateILi16EEvPKfPfi+0x504>
    6adc:	c5 f8 77             	vzeroupper
    6adf:	e9 73 fb ff ff       	jmp    6657 <_Z22opt_cube_root_templateILi16EEvPKfPfi+0x7f7>
    6ae4:	66 2e 0f 1f 84 00 00 	cs nopw 0x0(%rax,%rax,1)
    6aeb:	00 00 00 
    6aee:	66 90                	xchg   %ax,%ax

0000000000006af0 <_Z23avx2_cube_root_templateILi16EEvPKfPfi>:
    6af0:	f3 0f 1e fa          	endbr64
    6af4:	89 d0                	mov    %edx,%eax
    6af6:	8d 52 0e             	lea    0xe(%rdx),%edx
    6af9:	83 c0 07             	add    $0x7,%eax
    6afc:	0f 49 d0             	cmovns %eax,%edx
    6aff:	83 e2 f8             	and    $0xfffffff8,%edx
    6b02:	0f 8e fc 02 00 00    	jle    6e04 <_Z23avx2_cube_root_templateILi16EEvPKfPfi+0x314>
    6b08:	c4 e2 7d 18 1d 8f a4 	vbroadcastss 0x1a48f(%rip),%ymm3        # 20fa0 <_ZNSt8__detail31__from_chars_alnum_to_val_tableILb0EE5valueE+0x100>
    6b0f:	01 00 
    6b11:	31 c9                	xor    %ecx,%ecx
    6b13:	0f 1f 44 00 00       	nopl   0x0(%rax,%rax,1)
    6b18:	c5 fc 10 04 8f       	vmovups (%rdi,%rcx,4),%ymm0
    6b1d:	c5 fc 59 d3          	vmulps %ymm3,%ymm0,%ymm2
    6b21:	c5 ec 59 e2          	vmulps %ymm2,%ymm2,%ymm4
    6b25:	c5 6c 58 d2          	vaddps %ymm2,%ymm2,%ymm10
    6b29:	c5 fc 53 cc          	vrcpps %ymm4,%ymm1
    6b2d:	c5 f4 59 ec          	vmulps %ymm4,%ymm1,%ymm5
    6b31:	c5 f4 58 f9          	vaddps %ymm1,%ymm1,%ymm7
    6b35:	c5 f4 59 f5          	vmulps %ymm5,%ymm1,%ymm6
    6b39:	c5 44 5c c6          	vsubps %ymm6,%ymm7,%ymm8
    6b3d:	c4 41 7c 59 c8       	vmulps %ymm8,%ymm0,%ymm9
    6b42:	c4 41 34 58 da       	vaddps %ymm10,%ymm9,%ymm11
    6b47:	c5 24 59 e3          	vmulps %ymm3,%ymm11,%ymm12
    6b4b:	c4 41 1c 59 ec       	vmulps %ymm12,%ymm12,%ymm13
    6b50:	c4 c1 1c 58 f4       	vaddps %ymm12,%ymm12,%ymm6
    6b55:	c4 41 7c 53 f5       	vrcpps %ymm13,%ymm14
    6b5a:	c4 41 0c 59 fd       	vmulps %ymm13,%ymm14,%ymm15
    6b5f:	c4 c1 0c 58 d6       	vaddps %ymm14,%ymm14,%ymm2
    6b64:	c4 c1 0c 59 e7       	vmulps %ymm15,%ymm14,%ymm4
    6b69:	c5 ec 5c cc          	vsubps %ymm4,%ymm2,%ymm1
    6b6d:	c5 fc 59 e9          	vmulps %ymm1,%ymm0,%ymm5
    6b71:	c5 d4 58 fe          	vaddps %ymm6,%ymm5,%ymm7
    6b75:	c5 44 59 c3          	vmulps %ymm3,%ymm7,%ymm8
    6b79:	c4 41 3c 59 c8       	vmulps %ymm8,%ymm8,%ymm9
    6b7e:	c4 c1 3c 58 e0       	vaddps %ymm8,%ymm8,%ymm4
    6b83:	c4 41 7c 53 d1       	vrcpps %ymm9,%ymm10
    6b88:	c4 41 2c 59 d9       	vmulps %ymm9,%ymm10,%ymm11
    6b8d:	c4 41 2c 58 ea       	vaddps %ymm10,%ymm10,%ymm13
    6b92:	c4 41 2c 59 e3       	vmulps %ymm11,%ymm10,%ymm12
    6b97:	c4 41 14 5c f4       	vsubps %ymm12,%ymm13,%ymm14
    6b9c:	c4 41 7c 59 fe       	vmulps %ymm14,%ymm0,%ymm15
    6ba1:	c5 84 58 d4          	vaddps %ymm4,%ymm15,%ymm2
    6ba5:	c5 ec 59 f3          	vmulps %ymm3,%ymm2,%ymm6
    6ba9:	c5 cc 59 ee          	vmulps %ymm6,%ymm6,%ymm5
    6bad:	c5 4c 58 e6          	vaddps %ymm6,%ymm6,%ymm12
    6bb1:	c5 fc 53 cd          	vrcpps %ymm5,%ymm1
    6bb5:	c5 f4 59 fd          	vmulps %ymm5,%ymm1,%ymm7
    6bb9:	c5 74 58 c9          	vaddps %ymm1,%ymm1,%ymm9
    6bbd:	c5 74 59 c7          	vmulps %ymm7,%ymm1,%ymm8
    6bc1:	c4 41 34 5c d0       	vsubps %ymm8,%ymm9,%ymm10
    6bc6:	c4 41 7c 59 da       	vmulps %ymm10,%ymm0,%ymm11
    6bcb:	c4 41 24 58 ec       	vaddps %ymm12,%ymm11,%ymm13
    6bd0:	c5 14 59 f3          	vmulps %ymm3,%ymm13,%ymm14
    6bd4:	c4 41 0c 59 fe       	vmulps %ymm14,%ymm14,%ymm15
    6bd9:	c4 41 0c 58 c6       	vaddps %ymm14,%ymm14,%ymm8
    6bde:	c4 c1 7c 53 d7       	vrcpps %ymm15,%ymm2
    6be3:	c4 c1 6c 59 e7       	vmulps %ymm15,%ymm2,%ymm4
    6be8:	c5 ec 58 ea          	vaddps %ymm2,%ymm2,%ymm5
    6bec:	c5 ec 59 f4          	vmulps %ymm4,%ymm2,%ymm6
    6bf0:	c5 d4 5c ce          	vsubps %ymm6,%ymm5,%ymm1
    6bf4:	c5 fc 59 f9          	vmulps %ymm1,%ymm0,%ymm7
    6bf8:	c4 41 44 58 c8       	vaddps %ymm8,%ymm7,%ymm9
    6bfd:	c5 34 59 d3          	vmulps %ymm3,%ymm9,%ymm10
    6c01:	c4 41 2c 59 da       	vmulps %ymm10,%ymm10,%ymm11
    6c06:	c4 c1 2c 58 e2       	vaddps %ymm10,%ymm10,%ymm4
    6c0b:	c4 41 7c 53 e3       	vrcpps %ymm11,%ymm12
    6c10:	c4 41 1c 59 eb       	vmulps %ymm11,%ymm12,%ymm13
    6c15:	c4 41 1c 58 fc       	vaddps %ymm12,%ymm12,%ymm15
    6c1a:	c4 41 1c 59 f5       	vmulps %ymm13,%ymm12,%ymm14
    6c1f:	c4 c1 04 5c d6       	vsubps %ymm14,%ymm15,%ymm2
    6c24:	c5 fc 59 f2          	vmulps %ymm2,%ymm0,%ymm6
    6c28:	c5 cc 58 ec          	vaddps %ymm4,%ymm6,%ymm5
    6c2c:	c5 d4 59 fb          	vmulps %ymm3,%ymm5,%ymm7
    6c30:	c5 44 59 c7          	vmulps %ymm7,%ymm7,%ymm8
    6c34:	c5 44 58 f7          	vaddps %ymm7,%ymm7,%ymm14
    6c38:	c4 c1 7c 53 c8       	vrcpps %ymm8,%ymm1
    6c3d:	c4 41 74 59 c8       	vmulps %ymm8,%ymm1,%ymm9
    6c42:	c5 74 58 d9          	vaddps %ymm1,%ymm1,%ymm11
    6c46:	c4 41 74 59 d1       	vmulps %ymm9,%ymm1,%ymm10
    6c4b:	c4 41 24 5c e2       	vsubps %ymm10,%ymm11,%ymm12
    6c50:	c4 41 7c 59 ec       	vmulps %ymm12,%ymm0,%ymm13
    6c55:	c4 41 14 58 fe       	vaddps %ymm14,%ymm13,%ymm15
    6c5a:	c5 84 59 f3          	vmulps %ymm3,%ymm15,%ymm6
    6c5e:	c5 cc 59 d6          	vmulps %ymm6,%ymm6,%ymm2
    6c62:	c5 4c 58 d6          	vaddps %ymm6,%ymm6,%ymm10
    6c66:	c5 fc 53 e2          	vrcpps %ymm2,%ymm4
    6c6a:	c5 dc 59 ea          	vmulps %ymm2,%ymm4,%ymm5
    6c6e:	c5 5c 58 c4          	vaddps %ymm4,%ymm4,%ymm8
    6c72:	c5 dc 59 fd          	vmulps %ymm5,%ymm4,%ymm7
    6c76:	c5 bc 5c cf          	vsubps %ymm7,%ymm8,%ymm1
    6c7a:	c5 7c 59 c9          	vmulps %ymm1,%ymm0,%ymm9
    6c7e:	c4 41 34 58 da       	vaddps %ymm10,%ymm9,%ymm11
    6c83:	c5 24 59 e3          	vmulps %ymm3,%ymm11,%ymm12
    6c87:	c4 41 1c 59 ec       	vmulps %ymm12,%ymm12,%ymm13
    6c8c:	c4 c1 1c 58 fc       	vaddps %ymm12,%ymm12,%ymm7
    6c91:	c4 41 7c 53 f5       	vrcpps %ymm13,%ymm14
    6c96:	c4 41 0c 59 fd       	vmulps %ymm13,%ymm14,%ymm15
    6c9b:	c4 c1 0c 58 d6       	vaddps %ymm14,%ymm14,%ymm2
    6ca0:	c4 c1 0c 59 f7       	vmulps %ymm15,%ymm14,%ymm6
    6ca5:	c5 ec 5c e6          	vsubps %ymm6,%ymm2,%ymm4
    6ca9:	c5 fc 59 ec          	vmulps %ymm4,%ymm0,%ymm5
    6cad:	c5 54 58 c7          	vaddps %ymm7,%ymm5,%ymm8
    6cb1:	c5 3c 59 cb          	vmulps %ymm3,%ymm8,%ymm9
    6cb5:	c4 41 34 59 d1       	vmulps %ymm9,%ymm9,%ymm10
    6cba:	c4 c1 34 58 f1       	vaddps %ymm9,%ymm9,%ymm6
    6cbf:	c4 c1 7c 53 ca       	vrcpps %ymm10,%ymm1
    6cc4:	c4 41 74 59 da       	vmulps %ymm10,%ymm1,%ymm11
    6cc9:	c5 74 58 e9          	vaddps %ymm1,%ymm1,%ymm13
    6ccd:	c4 41 74 59 e3       	vmulps %ymm11,%ymm1,%ymm12
    6cd2:	c4 41 14 5c f4       	vsubps %ymm12,%ymm13,%ymm14
    6cd7:	c4 41 7c 59 fe       	vmulps %ymm14,%ymm0,%ymm15
    6cdc:	c5 84 58 d6          	vaddps %ymm6,%ymm15,%ymm2
    6ce0:	c5 ec 59 fb          	vmulps %ymm3,%ymm2,%ymm7
    6ce4:	c5 c4 59 e7          	vmulps %ymm7,%ymm7,%ymm4
    6ce8:	c5 44 58 e7          	vaddps %ymm7,%ymm7,%ymm12
    6cec:	c5 7c 53 c4          	vrcpps %ymm4,%ymm8
    6cf0:	c5 bc 59 ec          	vmulps %ymm4,%ymm8,%ymm5
    6cf4:	c4 41 3c 58 d0       	vaddps %ymm8,%ymm8,%ymm10
    6cf9:	c5 3c 59 cd          	vmulps %ymm5,%ymm8,%ymm9
    6cfd:	c4 c1 2c 5c c9       	vsubps %ymm9,%ymm10,%ymm1
    6d02:	c5 7c 59 d9          	vmulps %ymm1,%ymm0,%ymm11
    6d06:	c4 41 24 58 ec       	vaddps %ymm12,%ymm11,%ymm13
    6d0b:	c5 14 59 f3          	vmulps %ymm3,%ymm13,%ymm14
    6d0f:	c4 41 0c 59 fe       	vmulps %ymm14,%ymm14,%ymm15
    6d14:	c4 41 0c 58 ce       	vaddps %ymm14,%ymm14,%ymm9
    6d19:	c4 c1 7c 53 f7       	vrcpps %ymm15,%ymm6
    6d1e:	c4 c1 4c 59 d7       	vmulps %ymm15,%ymm6,%ymm2
    6d23:	c5 cc 58 e6          	vaddps %ymm6,%ymm6,%ymm4
    6d27:	c5 cc 59 fa          	vmulps %ymm2,%ymm6,%ymm7
    6d2b:	c5 5c 5c c7          	vsubps %ymm7,%ymm4,%ymm8
    6d2f:	c4 c1 7c 59 e8       	vmulps %ymm8,%ymm0,%ymm5
    6d34:	c4 41 54 58 d1       	vaddps %ymm9,%ymm5,%ymm10
    6d39:	c5 2c 59 db          	vmulps %ymm3,%ymm10,%ymm11
    6d3d:	c4 41 24 59 e3       	vmulps %ymm11,%ymm11,%ymm12
    6d42:	c4 c1 24 58 d3       	vaddps %ymm11,%ymm11,%ymm2
    6d47:	c4 c1 7c 53 cc       	vrcpps %ymm12,%ymm1
    6d4c:	c4 41 74 59 ec       	vmulps %ymm12,%ymm1,%ymm13
    6d51:	c5 74 58 f9          	vaddps %ymm1,%ymm1,%ymm15
    6d55:	c4 41 74 59 f5       	vmulps %ymm13,%ymm1,%ymm14
    6d5a:	c4 c1 04 5c f6       	vsubps %ymm14,%ymm15,%ymm6
    6d5f:	c5 fc 59 fe          	vmulps %ymm6,%ymm0,%ymm7
    6d63:	c5 c4 58 e2          	vaddps %ymm2,%ymm7,%ymm4
    6d67:	c5 5c 59 c3          	vmulps %ymm3,%ymm4,%ymm8
    6d6b:	c4 c1 3c 59 e8       	vmulps %ymm8,%ymm8,%ymm5
    6d70:	c4 41 3c 58 f0       	vaddps %ymm8,%ymm8,%ymm14
    6d75:	c5 7c 53 cd          	vrcpps %ymm5,%ymm9
    6d79:	c5 34 59 d5          	vmulps %ymm5,%ymm9,%ymm10
    6d7d:	c4 41 34 58 e1       	vaddps %ymm9,%ymm9,%ymm12
    6d82:	c4 41 34 59 da       	vmulps %ymm10,%ymm9,%ymm11
    6d87:	c4 c1 1c 5c cb       	vsubps %ymm11,%ymm12,%ymm1
    6d8c:	c5 7c 59 e9          	vmulps %ymm1,%ymm0,%ymm13
    6d90:	c4 41 14 58 fe       	vaddps %ymm14,%ymm13,%ymm15
    6d95:	c5 84 59 f3          	vmulps %ymm3,%ymm15,%ymm6
    6d99:	c5 cc 59 fe          	vmulps %ymm6,%ymm6,%ymm7
    6d9d:	c5 4c 58 de          	vaddps %ymm6,%ymm6,%ymm11
    6da1:	c5 fc 53 d7          	vrcpps %ymm7,%ymm2
    6da5:	c5 ec 59 e7          	vmulps %ymm7,%ymm2,%ymm4
    6da9:	c5 ec 58 ea          	vaddps %ymm2,%ymm2,%ymm5
    6dad:	c5 6c 59 c4          	vmulps %ymm4,%ymm2,%ymm8
    6db1:	c4 41 54 5c c8       	vsubps %ymm8,%ymm5,%ymm9
    6db6:	c4 41 7c 59 d1       	vmulps %ymm9,%ymm0,%ymm10
    6dbb:	c4 41 2c 58 e3       	vaddps %ymm11,%ymm10,%ymm12
    6dc0:	c5 9c 59 cb          	vmulps %ymm3,%ymm12,%ymm1
    6dc4:	c5 74 59 e9          	vmulps %ymm1,%ymm1,%ymm13
    6dc8:	c5 f4 58 e1          	vaddps %ymm1,%ymm1,%ymm4
    6dcc:	c4 41 7c 53 f5       	vrcpps %ymm13,%ymm14
    6dd1:	c4 41 0c 59 fd       	vmulps %ymm13,%ymm14,%ymm15
    6dd6:	c4 c1 0c 58 fe       	vaddps %ymm14,%ymm14,%ymm7
    6ddb:	c4 c1 0c 59 f7       	vmulps %ymm15,%ymm14,%ymm6
    6de0:	c5 c4 5c d6          	vsubps %ymm6,%ymm7,%ymm2
    6de4:	c5 fc 59 c2          	vmulps %ymm2,%ymm0,%ymm0
    6de8:	c5 7c 58 c4          	vaddps %ymm4,%ymm0,%ymm8
    6dec:	c5 bc 59 eb          	vmulps %ymm3,%ymm8,%ymm5
    6df0:	c5 fc 11 2c 8e       	vmovups %ymm5,(%rsi,%rcx,4)
    6df5:	48 83 c1 08          	add    $0x8,%rcx
    6df9:	39 ca                	cmp    %ecx,%edx
    6dfb:	0f 8f 17 fd ff ff    	jg     6b18 <_Z23avx2_cube_root_templateILi16EEvPKfPfi+0x28>
    6e01:	c5 f8 77             	vzeroupper
    6e04:	c3                   	ret
    6e05:	66 2e 0f 1f 84 00 00 	cs nopw 0x0(%rax,%rax,1)
    6e0c:	00 00 00 
    6e0f:	90                   	nop

0000000000006e10 <_Z25native_cube_root_templateILi18EEvPKfPfi>:
    6e10:	f3 0f 1e fa          	endbr64
    6e14:	85 d2                	test   %edx,%edx
    6e16:	7e 50                	jle    6e68 <_Z25native_cube_root_templateILi18EEvPKfPfi+0x58>
    6e18:	48 63 d2             	movslq %edx,%rdx
    6e1b:	c5 fa 10 1d 7d a1 01 	vmovss 0x1a17d(%rip),%xmm3        # 20fa0 <_ZNSt8__detail31__from_chars_alnum_to_val_tableILb0EE5valueE+0x100>
    6e22:	00 
    6e23:	45 31 c0             	xor    %r8d,%r8d
    6e26:	48 8d 0c 95 00 00 00 	lea    0x0(,%rdx,4),%rcx
    6e2d:	00 
    6e2e:	66 90                	xchg   %ax,%ax
    6e30:	c4 a1 7a 10 14 07    	vmovss (%rdi,%r8,1),%xmm2
    6e36:	b8 12 00 00 00       	mov    $0x12,%eax
    6e3b:	c5 ea 59 f3          	vmulss %xmm3,%xmm2,%xmm6
    6e3f:	90                   	nop
    6e40:	c5 ca 59 ce          	vmulss %xmm6,%xmm6,%xmm1
    6e44:	c5 ca 58 c6          	vaddss %xmm6,%xmm6,%xmm0
    6e48:	c5 ea 5e e1          	vdivss %xmm1,%xmm2,%xmm4
    6e4c:	c5 da 58 e8          	vaddss %xmm0,%xmm4,%xmm5
    6e50:	c5 d2 59 f3          	vmulss %xmm3,%xmm5,%xmm6
    6e54:	83 e8 01             	sub    $0x1,%eax
    6e57:	75 e7                	jne    6e40 <_Z25native_cube_root_templateILi18EEvPKfPfi+0x30>
    6e59:	c4 a1 7a 11 34 06    	vmovss %xmm6,(%rsi,%r8,1)
    6e5f:	49 83 c0 04          	add    $0x4,%r8
    6e63:	4c 39 c1             	cmp    %r8,%rcx
    6e66:	75 c8                	jne    6e30 <_Z25native_cube_root_templateILi18EEvPKfPfi+0x20>
    6e68:	c3                   	ret
    6e69:	0f 1f 80 00 00 00 00 	nopl   0x0(%rax)

0000000000006e70 <_Z22opt_cube_root_templateILi18EEvPKfPfi>:
    6e70:	f3 0f 1e fa          	endbr64
    6e74:	85 d2                	test   %edx,%edx
    6e76:	0f 8e 0d 01 00 00    	jle    6f89 <_Z22opt_cube_root_templateILi18EEvPKfPfi+0x119>
    6e7c:	48 63 d2             	movslq %edx,%rdx
    6e7f:	c5 fa 10 1d 19 a1 01 	vmovss 0x1a119(%rip),%xmm3        # 20fa0 <_ZNSt8__detail31__from_chars_alnum_to_val_tableILb0EE5valueE+0x100>
    6e86:	00 
    6e87:	45 31 c0             	xor    %r8d,%r8d
    6e8a:	48 8d 0c 95 00 00 00 	lea    0x0(,%rdx,4),%rcx
    6e91:	00 
    6e92:	66 0f 1f 44 00 00    	nopw   0x0(%rax,%rax,1)
    6e98:	c4 a1 7a 10 14 07    	vmovss (%rdi,%r8,1),%xmm2
    6e9e:	b8 12 00 00 00       	mov    $0x12,%eax
    6ea3:	c5 ea 59 eb          	vmulss %xmm3,%xmm2,%xmm5
    6ea7:	c5 d2 59 cd          	vmulss %xmm5,%xmm5,%xmm1
    6eab:	c5 d2 58 c5          	vaddss %xmm5,%xmm5,%xmm0
    6eaf:	c5 ea 5e e1          	vdivss %xmm1,%xmm2,%xmm4
    6eb3:	c5 da 58 e8          	vaddss %xmm0,%xmm4,%xmm5
    6eb7:	c5 d2 59 f3          	vmulss %xmm3,%xmm5,%xmm6
    6ebb:	c5 ca 59 fe          	vmulss %xmm6,%xmm6,%xmm7
    6ebf:	c5 4a 58 ce          	vaddss %xmm6,%xmm6,%xmm9
    6ec3:	c5 6a 5e c7          	vdivss %xmm7,%xmm2,%xmm8
    6ec7:	c4 41 3a 58 d1       	vaddss %xmm9,%xmm8,%xmm10
    6ecc:	c5 2a 59 db          	vmulss %xmm3,%xmm10,%xmm11
    6ed0:	c4 41 22 59 e3       	vmulss %xmm11,%xmm11,%xmm12
    6ed5:	c4 41 22 58 f3       	vaddss %xmm11,%xmm11,%xmm14
    6eda:	c4 41 6a 5e ec       	vdivss %xmm12,%xmm2,%xmm13
    6edf:	c4 41 12 58 fe       	vaddss %xmm14,%xmm13,%xmm15
    6ee4:	c5 82 59 e3          	vmulss %xmm3,%xmm15,%xmm4
    6ee8:	c5 da 59 cc          	vmulss %xmm4,%xmm4,%xmm1
    6eec:	c5 da 58 c4          	vaddss %xmm4,%xmm4,%xmm0
    6ef0:	c5 ea 5e e9          	vdivss %xmm1,%xmm2,%xmm5
    6ef4:	c5 d2 58 f0          	vaddss %xmm0,%xmm5,%xmm6
    6ef8:	c5 ca 59 fb          	vmulss %xmm3,%xmm6,%xmm7
    6efc:	c5 42 59 c7          	vmulss %xmm7,%xmm7,%xmm8
    6f00:	c5 42 58 d7          	vaddss %xmm7,%xmm7,%xmm10
    6f04:	c4 41 6a 5e c8       	vdivss %xmm8,%xmm2,%xmm9
    6f09:	c4 41 32 58 da       	vaddss %xmm10,%xmm9,%xmm11
    6f0e:	c5 22 59 e3          	vmulss %xmm3,%xmm11,%xmm12
    6f12:	c4 41 1a 59 ec       	vmulss %xmm12,%xmm12,%xmm13
    6f17:	c4 41 1a 58 fc       	vaddss %xmm12,%xmm12,%xmm15
    6f1c:	c4 41 6a 5e f5       	vdivss %xmm13,%xmm2,%xmm14
    6f21:	c4 c1 0a 58 e7       	vaddss %xmm15,%xmm14,%xmm4
    6f26:	c5 da 59 cb          	vmulss %xmm3,%xmm4,%xmm1
    6f2a:	c5 f2 59 e9          	vmulss %xmm1,%xmm1,%xmm5
    6f2e:	c5 f2 58 f1          	vaddss %xmm1,%xmm1,%xmm6
    6f32:	c5 ea 5e c5          	vdivss %xmm5,%xmm2,%xmm0
    6f36:	c5 fa 58 fe          	vaddss %xmm6,%xmm0,%xmm7
    6f3a:	c5 42 59 c3          	vmulss %xmm3,%xmm7,%xmm8
    6f3e:	c4 41 3a 59 c8       	vmulss %xmm8,%xmm8,%xmm9
    6f43:	c4 41 3a 58 d8       	vaddss %xmm8,%xmm8,%xmm11
    6f48:	c4 41 6a 5e d1       	vdivss %xmm9,%xmm2,%xmm10
    6f4d:	c4 41 2a 58 e3       	vaddss %xmm11,%xmm10,%xmm12
    6f52:	c5 1a 59 eb          	vmulss %xmm3,%xmm12,%xmm13
    6f56:	c4 41 12 59 f5       	vmulss %xmm13,%xmm13,%xmm14
    6f5b:	c4 c1 12 58 e5       	vaddss %xmm13,%xmm13,%xmm4
    6f60:	c4 41 6a 5e fe       	vdivss %xmm14,%xmm2,%xmm15
    6f65:	c5 82 58 cc          	vaddss %xmm4,%xmm15,%xmm1
    6f69:	c5 f2 59 eb          	vmulss %xmm3,%xmm1,%xmm5
    6f6d:	83 e8 09             	sub    $0x9,%eax
    6f70:	0f 85 31 ff ff ff    	jne    6ea7 <_Z22opt_cube_root_templateILi18EEvPKfPfi+0x37>
    6f76:	c4 a1 7a 11 2c 06    	vmovss %xmm5,(%rsi,%r8,1)
    6f7c:	49 83 c0 04          	add    $0x4,%r8
    6f80:	4c 39 c1             	cmp    %r8,%rcx
    6f83:	0f 85 0f ff ff ff    	jne    6e98 <_Z22opt_cube_root_templateILi18EEvPKfPfi+0x28>
    6f89:	c3                   	ret
    6f8a:	66 0f 1f 44 00 00    	nopw   0x0(%rax,%rax,1)

0000000000006f90 <_Z23avx2_cube_root_templateILi18EEvPKfPfi>:
    6f90:	f3 0f 1e fa          	endbr64
    6f94:	8d 4a 0e             	lea    0xe(%rdx),%ecx
    6f97:	83 c2 07             	add    $0x7,%edx
    6f9a:	0f 49 ca             	cmovns %edx,%ecx
    6f9d:	83 e1 f8             	and    $0xfffffff8,%ecx
    6fa0:	0f 8e 4e 01 00 00    	jle    70f4 <_Z23avx2_cube_root_templateILi18EEvPKfPfi+0x164>
    6fa6:	c4 e2 7d 18 1d f1 9f 	vbroadcastss 0x19ff1(%rip),%ymm3        # 20fa0 <_ZNSt8__detail31__from_chars_alnum_to_val_tableILb0EE5valueE+0x100>
    6fad:	01 00 
    6faf:	31 d2                	xor    %edx,%edx
    6fb1:	0f 1f 80 00 00 00 00 	nopl   0x0(%rax)
    6fb8:	c5 fc 10 14 97       	vmovups (%rdi,%rdx,4),%ymm2
    6fbd:	b8 12 00 00 00       	mov    $0x12,%eax
    6fc2:	c5 6c 59 d3          	vmulps %ymm3,%ymm2,%ymm10
    6fc6:	c4 c1 2c 59 e2       	vmulps %ymm10,%ymm10,%ymm4
    6fcb:	c4 c1 2c 58 c2       	vaddps %ymm10,%ymm10,%ymm0
    6fd0:	c5 fc 53 cc          	vrcpps %ymm4,%ymm1
    6fd4:	c5 f4 59 ec          	vmulps %ymm4,%ymm1,%ymm5
    6fd8:	c5 f4 58 f9          	vaddps %ymm1,%ymm1,%ymm7
    6fdc:	c5 f4 59 f5          	vmulps %ymm5,%ymm1,%ymm6
    6fe0:	c5 44 5c c6          	vsubps %ymm6,%ymm7,%ymm8
    6fe4:	c4 41 6c 59 c8       	vmulps %ymm8,%ymm2,%ymm9
    6fe9:	c5 34 58 d0          	vaddps %ymm0,%ymm9,%ymm10
    6fed:	c5 2c 59 db          	vmulps %ymm3,%ymm10,%ymm11
    6ff1:	c4 41 24 59 e3       	vmulps %ymm11,%ymm11,%ymm12
    6ff6:	c4 c1 24 58 f3       	vaddps %ymm11,%ymm11,%ymm6
    6ffb:	c4 41 7c 53 ec       	vrcpps %ymm12,%ymm13
    7000:	c4 41 14 59 f4       	vmulps %ymm12,%ymm13,%ymm14
    7005:	c4 c1 14 58 e5       	vaddps %ymm13,%ymm13,%ymm4
    700a:	c4 41 14 59 fe       	vmulps %ymm14,%ymm13,%ymm15
    700f:	c4 c1 5c 5c cf       	vsubps %ymm15,%ymm4,%ymm1
    7014:	c5 ec 59 e9          	vmulps %ymm1,%ymm2,%ymm5
    7018:	c5 d4 58 fe          	vaddps %ymm6,%ymm5,%ymm7
    701c:	c5 44 59 c3          	vmulps %ymm3,%ymm7,%ymm8
    7020:	c4 41 3c 59 c8       	vmulps %ymm8,%ymm8,%ymm9
    7025:	c4 41 3c 58 f8       	vaddps %ymm8,%ymm8,%ymm15
    702a:	c4 c1 7c 53 c1       	vrcpps %ymm9,%ymm0
    702f:	c4 41 7c 59 d1       	vmulps %ymm9,%ymm0,%ymm10
    7034:	c5 7c 58 e0          	vaddps %ymm0,%ymm0,%ymm12
    7038:	c4 41 7c 59 da       	vmulps %ymm10,%ymm0,%ymm11
    703d:	c4 41 1c 5c eb       	vsubps %ymm11,%ymm12,%ymm13
    7042:	c4 41 6c 59 f5       	vmulps %ymm13,%ymm2,%ymm14
    7047:	c4 c1 0c 58 e7       	vaddps %ymm15,%ymm14,%ymm4
    704c:	c5 dc 59 cb          	vmulps %ymm3,%ymm4,%ymm1
    7050:	c5 f4 59 e9          	vmulps %ymm1,%ymm1,%ymm5
    7054:	c5 74 58 d9          	vaddps %ymm1,%ymm1,%ymm11
    7058:	c5 fc 53 f5          	vrcpps %ymm5,%ymm6
    705c:	c5 cc 59 fd          	vmulps %ymm5,%ymm6,%ymm7
    7060:	c5 4c 58 ce          	vaddps %ymm6,%ymm6,%ymm9
    7064:	c5 4c 59 c7          	vmulps %ymm7,%ymm6,%ymm8
    7068:	c4 c1 34 5c c0       	vsubps %ymm8,%ymm9,%ymm0
    706d:	c5 6c 59 d0          	vmulps %ymm0,%ymm2,%ymm10
    7071:	c4 41 2c 58 e3       	vaddps %ymm11,%ymm10,%ymm12
    7076:	c5 1c 59 eb          	vmulps %ymm3,%ymm12,%ymm13
    707a:	c4 41 14 59 f5       	vmulps %ymm13,%ymm13,%ymm14
    707f:	c4 41 14 58 c5       	vaddps %ymm13,%ymm13,%ymm8
    7084:	c4 41 7c 53 fe       	vrcpps %ymm14,%ymm15
    7089:	c4 c1 04 59 e6       	vmulps %ymm14,%ymm15,%ymm4
    708e:	c4 c1 04 58 cf       	vaddps %ymm15,%ymm15,%ymm1
    7093:	c5 84 59 ec          	vmulps %ymm4,%ymm15,%ymm5
    7097:	c5 f4 5c f5          	vsubps %ymm5,%ymm1,%ymm6
    709b:	c5 ec 59 fe          	vmulps %ymm6,%ymm2,%ymm7
    709f:	c4 41 44 58 c8       	vaddps %ymm8,%ymm7,%ymm9
    70a4:	c5 34 59 d3          	vmulps %ymm3,%ymm9,%ymm10
    70a8:	c4 41 2c 59 da       	vmulps %ymm10,%ymm10,%ymm11
    70ad:	c4 c1 2c 58 ea       	vaddps %ymm10,%ymm10,%ymm5
    70b2:	c4 c1 7c 53 c3       	vrcpps %ymm11,%ymm0
    70b7:	c4 41 7c 59 e3       	vmulps %ymm11,%ymm0,%ymm12
    70bc:	c5 7c 58 f0          	vaddps %ymm0,%ymm0,%ymm14
    70c0:	c4 41 7c 59 ec       	vmulps %ymm12,%ymm0,%ymm13
    70c5:	c4 41 0c 5c fd       	vsubps %ymm13,%ymm14,%ymm15
    70ca:	c4 c1 6c 59 e7       	vmulps %ymm15,%ymm2,%ymm4
    70cf:	c5 dc 58 cd          	vaddps %ymm5,%ymm4,%ymm1
    70d3:	c5 74 59 d3          	vmulps %ymm3,%ymm1,%ymm10
    70d7:	83 e8 06             	sub    $0x6,%eax
    70da:	0f 85 e6 fe ff ff    	jne    6fc6 <_Z23avx2_cube_root_templateILi18EEvPKfPfi+0x36>
    70e0:	c5 7c 11 14 96       	vmovups %ymm10,(%rsi,%rdx,4)
    70e5:	48 83 c2 08          	add    $0x8,%rdx
    70e9:	39 d1                	cmp    %edx,%ecx
    70eb:	0f 8f c7 fe ff ff    	jg     6fb8 <_Z23avx2_cube_root_templateILi18EEvPKfPfi+0x28>
    70f1:	c5 f8 77             	vzeroupper
    70f4:	c3                   	ret
    70f5:	66 2e 0f 1f 84 00 00 	cs nopw 0x0(%rax,%rax,1)
    70fc:	00 00 00 
    70ff:	90                   	nop

0000000000007100 <_Z25native_cube_root_templateILi100EEvPKfPfi>:
    7100:	f3 0f 1e fa          	endbr64
    7104:	48 63 c2             	movslq %edx,%rax
    7107:	85 c0                	test   %eax,%eax
    7109:	7e 4d                	jle    7158 <_Z25native_cube_root_templateILi100EEvPKfPfi+0x58>
    710b:	c5 fa 10 1d 8d 9e 01 	vmovss 0x19e8d(%rip),%xmm3        # 20fa0 <_ZNSt8__detail31__from_chars_alnum_to_val_tableILb0EE5valueE+0x100>
    7112:	00 
    7113:	48 8d 0c 85 00 00 00 	lea    0x0(,%rax,4),%rcx
    711a:	00 
    711b:	31 d2                	xor    %edx,%edx
    711d:	c5 fa 10 14 17       	vmovss (%rdi,%rdx,1),%xmm2
    7122:	41 b8 64 00 00 00    	mov    $0x64,%r8d
    7128:	c5 ea 59 f3          	vmulss %xmm3,%xmm2,%xmm6
    712c:	0f 1f 40 00          	nopl   0x0(%rax)
    7130:	c5 ca 59 ce          	vmulss %xmm6,%xmm6,%xmm1
    7134:	c5 ca 58 c6          	vaddss %xmm6,%xmm6,%xmm0
    7138:	c5 ea 5e e1          	vdivss %xmm1,%xmm2,%xmm4
    713c:	c5 da 58 e8          	vaddss %xmm0,%xmm4,%xmm5
    7140:	c5 d2 59 f3          	vmulss %xmm3,%xmm5,%xmm6
    7144:	41 83 e8 01          	sub    $0x1,%r8d
    7148:	75 e6                	jne    7130 <_Z25native_cube_root_templateILi100EEvPKfPfi+0x30>
    714a:	c5 fa 11 34 16       	vmovss %xmm6,(%rsi,%rdx,1)
    714f:	48 83 c2 04          	add    $0x4,%rdx
    7153:	48 39 d1             	cmp    %rdx,%rcx
    7156:	75 c5                	jne    711d <_Z25native_cube_root_templateILi100EEvPKfPfi+0x1d>
    7158:	c3                   	ret
    7159:	0f 1f 80 00 00 00 00 	nopl   0x0(%rax)

0000000000007160 <_Z22opt_cube_root_templateILi100EEvPKfPfi>:
    7160:	f3 0f 1e fa          	endbr64
    7164:	48 63 c2             	movslq %edx,%rax
    7167:	85 c0                	test   %eax,%eax
