	.file	"main.cpp"
	.text
#APP
	.globl _ZSt21ios_base_library_initv
#NO_APP
	.section	.text._ZNKSt5ctypeIcE8do_widenEc,"axG",@progbits,_ZNKSt5ctypeIcE8do_widenEc,comdat
	.align 2
	.p2align 4
	.weak	_ZNKSt5ctypeIcE8do_widenEc
	.type	_ZNKSt5ctypeIcE8do_widenEc, @function
_ZNKSt5ctypeIcE8do_widenEc:
.LFB8898:
	.cfi_startproc
	endbr64
	movl	%esi, %eax
	ret
	.cfi_endproc
.LFE8898:
	.size	_ZNKSt5ctypeIcE8do_widenEc, .-_ZNKSt5ctypeIcE8do_widenEc
	.section	.text._Z25native_cube_root_templateILi2EEvPKfPfi,"axG",@progbits,_Z25native_cube_root_templateILi2EEvPKfPfi,comdat
	.p2align 4
	.weak	_Z25native_cube_root_templateILi2EEvPKfPfi
	.type	_Z25native_cube_root_templateILi2EEvPKfPfi, @function
_Z25native_cube_root_templateILi2EEvPKfPfi:
.LFB12739:
	.cfi_startproc
	endbr64
	movq	%rsi, %rcx
	testl	%edx, %edx
	jle	.L23
	movslq	%edx, %rdx
	vmovss	.LC0(%rip), %xmm0
	xorl	%eax, %eax
	salq	$2, %rdx
	leaq	-4(%rdx), %rsi
	shrq	$2, %rsi
	addq	$1, %rsi
	andl	$3, %esi
	je	.L5
	cmpq	$1, %rsi
	je	.L17
	cmpq	$2, %rsi
	je	.L18
	vmovss	(%rdi), %xmm2
	movl	$4, %eax
	vmulss	%xmm0, %xmm2, %xmm3
	vmulss	%xmm3, %xmm3, %xmm1
	vaddss	%xmm3, %xmm3, %xmm5
	vdivss	%xmm1, %xmm2, %xmm4
	vaddss	%xmm5, %xmm4, %xmm6
	vmulss	%xmm0, %xmm6, %xmm7
	vmulss	%xmm7, %xmm7, %xmm8
	vaddss	%xmm7, %xmm7, %xmm10
	vdivss	%xmm8, %xmm2, %xmm9
	vaddss	%xmm10, %xmm9, %xmm11
	vmulss	%xmm0, %xmm11, %xmm12
	vmovss	%xmm12, (%rcx)
.L18:
	vmovss	(%rdi,%rax), %xmm13
	vmulss	%xmm0, %xmm13, %xmm14
	vmulss	%xmm14, %xmm14, %xmm15
	vaddss	%xmm14, %xmm14, %xmm3
	vdivss	%xmm15, %xmm13, %xmm2
	vaddss	%xmm3, %xmm2, %xmm1
	vmulss	%xmm0, %xmm1, %xmm4
	vmulss	%xmm4, %xmm4, %xmm5
	vaddss	%xmm4, %xmm4, %xmm7
	vdivss	%xmm5, %xmm13, %xmm6
	vaddss	%xmm7, %xmm6, %xmm8
	vmulss	%xmm0, %xmm8, %xmm9
	vmovss	%xmm9, (%rcx,%rax)
	addq	$4, %rax
.L17:
	vmovss	(%rdi,%rax), %xmm10
	vmulss	%xmm0, %xmm10, %xmm11
	vmulss	%xmm11, %xmm11, %xmm12
	vaddss	%xmm11, %xmm11, %xmm14
	vdivss	%xmm12, %xmm10, %xmm13
	vaddss	%xmm14, %xmm13, %xmm15
	vmulss	%xmm0, %xmm15, %xmm1
	vmulss	%xmm1, %xmm1, %xmm2
	vaddss	%xmm1, %xmm1, %xmm4
	vdivss	%xmm2, %xmm10, %xmm3
	vaddss	%xmm4, %xmm3, %xmm5
	vmulss	%xmm0, %xmm5, %xmm6
	vmovss	%xmm6, (%rcx,%rax)
	addq	$4, %rax
	cmpq	%rax, %rdx
	je	.L24
.L5:
	vmovss	(%rdi,%rax), %xmm7
	vmulss	%xmm0, %xmm7, %xmm8
	vmulss	%xmm8, %xmm8, %xmm9
	vaddss	%xmm8, %xmm8, %xmm11
	vdivss	%xmm9, %xmm7, %xmm10
	vaddss	%xmm11, %xmm10, %xmm12
	vmulss	%xmm0, %xmm12, %xmm13
	vmulss	%xmm13, %xmm13, %xmm14
	vaddss	%xmm13, %xmm13, %xmm1
	vdivss	%xmm14, %xmm7, %xmm15
	vaddss	%xmm1, %xmm15, %xmm2
	vmulss	%xmm0, %xmm2, %xmm3
	vmovss	%xmm3, (%rcx,%rax)
	vmovss	4(%rdi,%rax), %xmm4
	vmulss	%xmm0, %xmm4, %xmm5
	vmulss	%xmm5, %xmm5, %xmm6
	vaddss	%xmm5, %xmm5, %xmm8
	vdivss	%xmm6, %xmm4, %xmm7
	vaddss	%xmm8, %xmm7, %xmm9
	vmulss	%xmm0, %xmm9, %xmm10
	vmulss	%xmm10, %xmm10, %xmm11
	vaddss	%xmm10, %xmm10, %xmm13
	vdivss	%xmm11, %xmm4, %xmm12
	vaddss	%xmm13, %xmm12, %xmm14
	vmulss	%xmm0, %xmm14, %xmm15
	vmovss	%xmm15, 4(%rcx,%rax)
	vmovss	8(%rdi,%rax), %xmm2
	vmulss	%xmm0, %xmm2, %xmm3
	vmulss	%xmm3, %xmm3, %xmm1
	vaddss	%xmm3, %xmm3, %xmm5
	vdivss	%xmm1, %xmm2, %xmm4
	vaddss	%xmm5, %xmm4, %xmm6
	vmulss	%xmm0, %xmm6, %xmm7
	vmulss	%xmm7, %xmm7, %xmm8
	vaddss	%xmm7, %xmm7, %xmm10
	vdivss	%xmm8, %xmm2, %xmm9
	vaddss	%xmm10, %xmm9, %xmm11
	vmulss	%xmm0, %xmm11, %xmm12
	vmovss	%xmm12, 8(%rcx,%rax)
	vmovss	12(%rdi,%rax), %xmm13
	vmulss	%xmm0, %xmm13, %xmm14
	vmulss	%xmm14, %xmm14, %xmm15
	vaddss	%xmm14, %xmm14, %xmm3
	vdivss	%xmm15, %xmm13, %xmm2
	vaddss	%xmm3, %xmm2, %xmm1
	vmulss	%xmm0, %xmm1, %xmm4
	vmulss	%xmm4, %xmm4, %xmm5
	vaddss	%xmm4, %xmm4, %xmm7
	vdivss	%xmm5, %xmm13, %xmm6
	vaddss	%xmm7, %xmm6, %xmm8
	vmulss	%xmm0, %xmm8, %xmm9
	vmovss	%xmm9, 12(%rcx,%rax)
	addq	$16, %rax
	cmpq	%rax, %rdx
	jne	.L5
.L23:
	ret
.L24:
	ret
	.cfi_endproc
.LFE12739:
	.size	_Z25native_cube_root_templateILi2EEvPKfPfi, .-_Z25native_cube_root_templateILi2EEvPKfPfi
	.section	.text._Z22opt_cube_root_templateILi2EEvPKfPfi,"axG",@progbits,_Z22opt_cube_root_templateILi2EEvPKfPfi,comdat
	.p2align 4
	.weak	_Z22opt_cube_root_templateILi2EEvPKfPfi
	.type	_Z22opt_cube_root_templateILi2EEvPKfPfi, @function
_Z22opt_cube_root_templateILi2EEvPKfPfi:
.LFB12740:
	.cfi_startproc
	endbr64
	movslq	%edx, %rax
	movq	%rdi, %rcx
	testl	%eax, %eax
	jle	.L66
	leal	-1(%rax), %edx
	movl	%eax, %r10d
	cmpl	$2, %edx
	jbe	.L27
	leaq	4(%rdi), %r9
	movq	%rsi, %rdi
	subq	%r9, %rdi
	cmpq	$24, %rdi
	ja	.L67
.L27:
	leaq	0(,%rax,4), %r9
	vmovss	.LC0(%rip), %xmm5
	xorl	%eax, %eax
	leaq	-4(%r9), %rdx
	shrq	$2, %rdx
	addq	$1, %rdx
	andl	$3, %edx
	je	.L35
	cmpq	$1, %rdx
	je	.L54
	cmpq	$2, %rdx
	jne	.L68
.L55:
	vmovss	(%rcx,%rax), %xmm0
	vmulss	%xmm5, %xmm0, %xmm15
	vmulss	%xmm15, %xmm15, %xmm14
	vaddss	%xmm15, %xmm15, %xmm10
	vdivss	%xmm14, %xmm0, %xmm6
	vaddss	%xmm10, %xmm6, %xmm1
	vmulss	%xmm5, %xmm1, %xmm11
	vmulss	%xmm11, %xmm11, %xmm2
	vaddss	%xmm11, %xmm11, %xmm8
	vdivss	%xmm2, %xmm0, %xmm7
	vaddss	%xmm8, %xmm7, %xmm12
	vmulss	%xmm5, %xmm12, %xmm9
	vmovss	%xmm9, (%rsi,%rax)
	addq	$4, %rax
.L54:
	vmovss	(%rcx,%rax), %xmm13
	vmulss	%xmm5, %xmm13, %xmm4
	vmulss	%xmm4, %xmm4, %xmm3
	vaddss	%xmm4, %xmm4, %xmm15
	vdivss	%xmm3, %xmm13, %xmm0
	vaddss	%xmm15, %xmm0, %xmm14
	vmulss	%xmm5, %xmm14, %xmm6
	vmulss	%xmm6, %xmm6, %xmm10
	vaddss	%xmm6, %xmm6, %xmm1
	vdivss	%xmm10, %xmm13, %xmm11
	vaddss	%xmm1, %xmm11, %xmm2
	vmulss	%xmm5, %xmm2, %xmm7
	vmovss	%xmm7, (%rsi,%rax)
	addq	$4, %rax
	cmpq	%r9, %rax
	je	.L69
.L35:
	vmovss	(%rcx,%rax), %xmm8
	vmulss	%xmm5, %xmm8, %xmm12
	vmulss	%xmm12, %xmm12, %xmm9
	vaddss	%xmm12, %xmm12, %xmm4
	vdivss	%xmm9, %xmm8, %xmm13
	vaddss	%xmm4, %xmm13, %xmm3
	vmulss	%xmm5, %xmm3, %xmm0
	vmulss	%xmm0, %xmm0, %xmm15
	vaddss	%xmm0, %xmm0, %xmm6
	vdivss	%xmm15, %xmm8, %xmm14
	vaddss	%xmm6, %xmm14, %xmm10
	vmulss	%xmm5, %xmm10, %xmm11
	vmovss	%xmm11, (%rsi,%rax)
	vmovss	4(%rcx,%rax), %xmm2
	vmulss	%xmm5, %xmm2, %xmm7
	vmulss	%xmm7, %xmm7, %xmm1
	vaddss	%xmm7, %xmm7, %xmm12
	vdivss	%xmm1, %xmm2, %xmm8
	vaddss	%xmm12, %xmm8, %xmm9
	vmulss	%xmm5, %xmm9, %xmm13
	vmulss	%xmm13, %xmm13, %xmm4
	vaddss	%xmm13, %xmm13, %xmm0
	vdivss	%xmm4, %xmm2, %xmm3
	vaddss	%xmm0, %xmm3, %xmm15
	vmulss	%xmm5, %xmm15, %xmm14
	vmovss	%xmm14, 4(%rsi,%rax)
	vmovss	8(%rcx,%rax), %xmm6
	vmulss	%xmm5, %xmm6, %xmm10
	vmulss	%xmm10, %xmm10, %xmm11
	vaddss	%xmm10, %xmm10, %xmm7
	vdivss	%xmm11, %xmm6, %xmm2
	vaddss	%xmm7, %xmm2, %xmm1
	vmulss	%xmm5, %xmm1, %xmm8
	vmulss	%xmm8, %xmm8, %xmm12
	vaddss	%xmm8, %xmm8, %xmm13
	vdivss	%xmm12, %xmm6, %xmm9
	vaddss	%xmm13, %xmm9, %xmm4
	vmulss	%xmm5, %xmm4, %xmm3
	vmovss	%xmm3, 8(%rsi,%rax)
	vmovss	12(%rcx,%rax), %xmm0
	vmulss	%xmm5, %xmm0, %xmm15
	vmulss	%xmm15, %xmm15, %xmm14
	vaddss	%xmm15, %xmm15, %xmm10
	vdivss	%xmm14, %xmm0, %xmm6
	vaddss	%xmm10, %xmm6, %xmm11
	vmulss	%xmm5, %xmm11, %xmm7
	vmulss	%xmm7, %xmm7, %xmm2
	vaddss	%xmm7, %xmm7, %xmm1
	vdivss	%xmm2, %xmm0, %xmm8
	vaddss	%xmm1, %xmm8, %xmm12
	vmulss	%xmm5, %xmm12, %xmm9
	vmovss	%xmm9, 12(%rsi,%rax)
	addq	$16, %rax
	cmpq	%r9, %rax
	jne	.L35
	ret
.L64:
	vzeroupper
.L66:
	ret
	.p2align 4,,10
	.p2align 3
.L67:
	cmpl	$6, %edx
	jbe	.L37
	vbroadcastss	.LC0(%rip), %ymm2
	shrl	$3, %r10d
	xorl	%r11d, %r11d
	movq	%r10, %r8
	salq	$5, %r8
	andl	$1, %r10d
	je	.L29
	vmovups	(%rcx), %ymm1
	movl	$32, %r11d
	vmulps	%ymm2, %ymm1, %ymm3
	vmulps	%ymm3, %ymm3, %ymm4
	vaddps	%ymm3, %ymm3, %ymm10
	vrcpps	%ymm4, %ymm0
	vmulps	%ymm4, %ymm0, %ymm5
	vaddps	%ymm0, %ymm0, %ymm7
	vmulps	%ymm5, %ymm0, %ymm6
	vsubps	%ymm6, %ymm7, %ymm8
	vmulps	%ymm8, %ymm1, %ymm9
	vaddps	%ymm10, %ymm9, %ymm11
	vmulps	%ymm2, %ymm11, %ymm12
	vmulps	%ymm12, %ymm12, %ymm13
	vaddps	%ymm12, %ymm12, %ymm5
	vrcpps	%ymm13, %ymm14
	vmulps	%ymm13, %ymm14, %ymm15
	vaddps	%ymm14, %ymm14, %ymm3
	vmulps	%ymm15, %ymm14, %ymm4
	vsubps	%ymm4, %ymm3, %ymm0
	vmulps	%ymm0, %ymm1, %ymm1
	vaddps	%ymm5, %ymm1, %ymm6
	vmulps	%ymm2, %ymm6, %ymm7
	vmovups	%ymm7, (%rsi)
	cmpq	$32, %r8
	je	.L63
	.p2align 4,,10
	.p2align 3
.L29:
	vmovups	(%rcx,%r11), %ymm8
	vmulps	%ymm2, %ymm8, %ymm9
	vmulps	%ymm9, %ymm9, %ymm10
	vaddps	%ymm9, %ymm9, %ymm3
	vrcpps	%ymm10, %ymm11
	vmulps	%ymm10, %ymm11, %ymm12
	vaddps	%ymm11, %ymm11, %ymm14
	vmulps	%ymm12, %ymm11, %ymm13
	vsubps	%ymm13, %ymm14, %ymm15
	vmulps	%ymm15, %ymm8, %ymm4
	vaddps	%ymm3, %ymm4, %ymm0
	vmulps	%ymm2, %ymm0, %ymm5
	vmulps	%ymm5, %ymm5, %ymm1
	vaddps	%ymm5, %ymm5, %ymm12
	vrcpps	%ymm1, %ymm6
	vmulps	%ymm1, %ymm6, %ymm7
	vaddps	%ymm6, %ymm6, %ymm10
	vmulps	%ymm7, %ymm6, %ymm9
	vsubps	%ymm9, %ymm10, %ymm11
	vmulps	%ymm11, %ymm8, %ymm8
	vaddps	%ymm12, %ymm8, %ymm13
	vmulps	%ymm2, %ymm13, %ymm14
	vmovups	%ymm14, (%rsi,%r11)
	vmovups	32(%rcx,%r11), %ymm15
	vmulps	%ymm2, %ymm15, %ymm3
	vmulps	%ymm3, %ymm3, %ymm4
	vaddps	%ymm3, %ymm3, %ymm10
	vrcpps	%ymm4, %ymm0
	vmulps	%ymm4, %ymm0, %ymm5
	vaddps	%ymm0, %ymm0, %ymm6
	vmulps	%ymm5, %ymm0, %ymm1
	vsubps	%ymm1, %ymm6, %ymm7
	vmulps	%ymm7, %ymm15, %ymm9
	vaddps	%ymm10, %ymm9, %ymm11
	vmulps	%ymm2, %ymm11, %ymm8
	vmulps	%ymm8, %ymm8, %ymm12
	vaddps	%ymm8, %ymm8, %ymm5
	vrcpps	%ymm12, %ymm13
	vmulps	%ymm12, %ymm13, %ymm14
	vaddps	%ymm13, %ymm13, %ymm3
	vmulps	%ymm14, %ymm13, %ymm4
	vsubps	%ymm4, %ymm3, %ymm0
	vmulps	%ymm0, %ymm15, %ymm15
	vaddps	%ymm5, %ymm15, %ymm1
	vmulps	%ymm2, %ymm1, %ymm6
	vmovups	%ymm6, 32(%rsi,%r11)
	addq	$64, %r11
	cmpq	%r11, %r8
	jne	.L29
.L63:
	movl	%eax, %edx
	andl	$-8, %edx
	movl	%edx, %edi
	cmpl	%edx, %eax
	je	.L64
	movl	%eax, %r10d
	subl	%edx, %r10d
	leal	-1(%r10), %r9d
	cmpl	$2, %r9d
	jbe	.L70
	vzeroupper
.L28:
	vmovups	(%rcx,%rdi,4), %xmm7
	movl	%r10d, %r8d
	vbroadcastss	.LC0(%rip), %xmm9
	andl	$-4, %r8d
	vmulps	%xmm9, %xmm7, %xmm2
	addl	%r8d, %edx
	andl	$3, %r10d
	vmulps	%xmm2, %xmm2, %xmm10
	vaddps	%xmm2, %xmm2, %xmm3
	vrcpps	%xmm10, %xmm11
	vmulps	%xmm10, %xmm11, %xmm8
	vaddps	%xmm11, %xmm11, %xmm13
	vmulps	%xmm8, %xmm11, %xmm12
	vsubps	%xmm12, %xmm13, %xmm14
	vmulps	%xmm14, %xmm7, %xmm4
	vaddps	%xmm3, %xmm4, %xmm0
	vmulps	%xmm9, %xmm0, %xmm15
	vmulps	%xmm15, %xmm15, %xmm5
	vaddps	%xmm15, %xmm15, %xmm8
	vrcpps	%xmm5, %xmm1
	vmulps	%xmm5, %xmm1, %xmm6
	vaddps	%xmm1, %xmm1, %xmm2
	vmulps	%xmm6, %xmm1, %xmm10
	vsubps	%xmm10, %xmm2, %xmm11
	vmulps	%xmm11, %xmm7, %xmm7
	vaddps	%xmm8, %xmm7, %xmm12
	vmulps	%xmm9, %xmm12, %xmm9
	vmovups	%xmm9, (%rsi,%rdi,4)
	je	.L66
.L33:
	movslq	%edx, %r11
	vmovss	.LC0(%rip), %xmm14
	leal	1(%rdx), %r10d
	vmovss	(%rcx,%r11,4), %xmm13
	leaq	0(,%r11,4), %rdi
	vmulss	%xmm14, %xmm13, %xmm4
	vmulss	%xmm4, %xmm4, %xmm3
	vaddss	%xmm4, %xmm4, %xmm15
	vdivss	%xmm3, %xmm13, %xmm0
	vaddss	%xmm15, %xmm0, %xmm5
	vmulss	%xmm14, %xmm5, %xmm6
	vmulss	%xmm6, %xmm6, %xmm1
	vaddss	%xmm6, %xmm6, %xmm2
	vdivss	%xmm1, %xmm13, %xmm10
	vaddss	%xmm2, %xmm10, %xmm11
	vmulss	%xmm14, %xmm11, %xmm7
	vmovss	%xmm7, (%rsi,%r11,4)
	cmpl	%r10d, %eax
	jle	.L66
	vmovss	4(%rcx,%rdi), %xmm8
	addl	$2, %edx
	vmulss	%xmm14, %xmm8, %xmm12
	vmulss	%xmm12, %xmm12, %xmm9
	vaddss	%xmm12, %xmm12, %xmm4
	vdivss	%xmm9, %xmm8, %xmm13
	vaddss	%xmm4, %xmm13, %xmm3
	vmulss	%xmm14, %xmm3, %xmm0
	vmulss	%xmm0, %xmm0, %xmm15
	vaddss	%xmm0, %xmm0, %xmm6
	vdivss	%xmm15, %xmm8, %xmm5
	vaddss	%xmm6, %xmm5, %xmm1
	vmulss	%xmm14, %xmm1, %xmm10
	vmovss	%xmm10, 4(%rsi,%rdi)
	cmpl	%edx, %eax
	jle	.L66
	vmovss	8(%rcx,%rdi), %xmm2
	vmulss	%xmm14, %xmm2, %xmm11
	vmulss	%xmm11, %xmm11, %xmm7
	vaddss	%xmm11, %xmm11, %xmm12
	vdivss	%xmm7, %xmm2, %xmm8
	vaddss	%xmm12, %xmm8, %xmm9
	vmulss	%xmm14, %xmm9, %xmm13
	vmulss	%xmm13, %xmm13, %xmm4
	vaddss	%xmm13, %xmm13, %xmm0
	vdivss	%xmm4, %xmm2, %xmm3
	vaddss	%xmm0, %xmm3, %xmm15
	vmulss	%xmm14, %xmm15, %xmm14
	vmovss	%xmm14, 8(%rsi,%rdi)
	ret
.L68:
	vmovss	(%rcx), %xmm6
	movl	$4, %eax
	vmulss	%xmm5, %xmm6, %xmm10
	vmulss	%xmm10, %xmm10, %xmm1
	vaddss	%xmm10, %xmm10, %xmm11
	vdivss	%xmm1, %xmm6, %xmm2
	vaddss	%xmm11, %xmm2, %xmm7
	vmulss	%xmm5, %xmm7, %xmm8
	vmulss	%xmm8, %xmm8, %xmm12
	vaddss	%xmm8, %xmm8, %xmm13
	vdivss	%xmm12, %xmm6, %xmm9
	vaddss	%xmm13, %xmm9, %xmm4
	vmulss	%xmm5, %xmm4, %xmm3
	vmovss	%xmm3, (%rsi)
	jmp	.L55
.L69:
	ret
.L37:
	xorl	%edi, %edi
	xorl	%edx, %edx
	jmp	.L28
.L70:
	vzeroupper
	jmp	.L33
	.cfi_endproc
.LFE12740:
	.size	_Z22opt_cube_root_templateILi2EEvPKfPfi, .-_Z22opt_cube_root_templateILi2EEvPKfPfi
	.section	.text._Z23avx2_cube_root_templateILi2EEvPKfPfi,"axG",@progbits,_Z23avx2_cube_root_templateILi2EEvPKfPfi,comdat
	.p2align 4
	.weak	_Z23avx2_cube_root_templateILi2EEvPKfPfi
	.type	_Z23avx2_cube_root_templateILi2EEvPKfPfi, @function
_Z23avx2_cube_root_templateILi2EEvPKfPfi:
.LFB12741:
	.cfi_startproc
	endbr64
	leal	14(%rdx), %eax
	addl	$7, %edx
	movq	%rdi, %rcx
	cmovs	%eax, %edx
	andl	$-8, %edx
	jle	.L81
	vmovups	(%rcx), %ymm1
	leal	-1(%rdx), %edi
	movl	$8, %r8d
	vbroadcastss	.LC0(%rip), %ymm2
	shrl	$3, %edi
	vmulps	%ymm2, %ymm1, %ymm3
	andl	$1, %edi
	vmulps	%ymm3, %ymm3, %ymm4
	vaddps	%ymm3, %ymm3, %ymm10
	vrcpps	%ymm4, %ymm0
	vmulps	%ymm4, %ymm0, %ymm5
	vaddps	%ymm0, %ymm0, %ymm7
	vmulps	%ymm5, %ymm0, %ymm6
	vsubps	%ymm6, %ymm7, %ymm8
	vmulps	%ymm8, %ymm1, %ymm9
	vaddps	%ymm10, %ymm9, %ymm11
	vmulps	%ymm2, %ymm11, %ymm12
	vmulps	%ymm12, %ymm12, %ymm13
	vaddps	%ymm12, %ymm12, %ymm5
	vrcpps	%ymm13, %ymm14
	vmulps	%ymm13, %ymm14, %ymm15
	vaddps	%ymm14, %ymm14, %ymm3
	vmulps	%ymm15, %ymm14, %ymm4
	vsubps	%ymm4, %ymm3, %ymm0
	vmulps	%ymm0, %ymm1, %ymm1
	vaddps	%ymm5, %ymm1, %ymm6
	vmulps	%ymm2, %ymm6, %ymm7
	vmovups	%ymm7, (%rsi)
	cmpl	$8, %edx
	jle	.L82
	testl	%edi, %edi
	je	.L73
	vmovups	32(%rcx), %ymm8
	movl	$16, %r8d
	vmulps	%ymm2, %ymm8, %ymm9
	vmulps	%ymm9, %ymm9, %ymm10
	vaddps	%ymm9, %ymm9, %ymm3
	vrcpps	%ymm10, %ymm11
	vmulps	%ymm10, %ymm11, %ymm12
	vaddps	%ymm11, %ymm11, %ymm14
	vmulps	%ymm12, %ymm11, %ymm13
	vsubps	%ymm13, %ymm14, %ymm15
	vmulps	%ymm15, %ymm8, %ymm4
	vaddps	%ymm3, %ymm4, %ymm0
	vmulps	%ymm2, %ymm0, %ymm5
	vmulps	%ymm5, %ymm5, %ymm1
	vaddps	%ymm5, %ymm5, %ymm12
	vrcpps	%ymm1, %ymm6
	vmulps	%ymm1, %ymm6, %ymm7
	vaddps	%ymm6, %ymm6, %ymm10
	vmulps	%ymm7, %ymm6, %ymm9
	vsubps	%ymm9, %ymm10, %ymm11
	vmulps	%ymm11, %ymm8, %ymm8
	vaddps	%ymm12, %ymm8, %ymm13
	vmulps	%ymm2, %ymm13, %ymm14
	vmovups	%ymm14, 32(%rsi)
	cmpl	$16, %edx
	jle	.L82
	.p2align 4,,10
	.p2align 3
.L73:
	vmovups	(%rcx,%r8,4), %ymm15
	leaq	8(%r8), %r9
	vmulps	%ymm2, %ymm15, %ymm3
	vmulps	%ymm3, %ymm3, %ymm4
	vaddps	%ymm3, %ymm3, %ymm10
	vrcpps	%ymm4, %ymm0
	vmulps	%ymm4, %ymm0, %ymm5
	vaddps	%ymm0, %ymm0, %ymm6
	vmulps	%ymm5, %ymm0, %ymm1
	vsubps	%ymm1, %ymm6, %ymm7
	vmulps	%ymm7, %ymm15, %ymm9
	vaddps	%ymm10, %ymm9, %ymm11
	vmulps	%ymm2, %ymm11, %ymm8
	vmulps	%ymm8, %ymm8, %ymm12
	vaddps	%ymm8, %ymm8, %ymm5
	vrcpps	%ymm12, %ymm13
	vmulps	%ymm12, %ymm13, %ymm14
	vaddps	%ymm13, %ymm13, %ymm3
	vmulps	%ymm14, %ymm13, %ymm4
	vsubps	%ymm4, %ymm3, %ymm0
	vmulps	%ymm0, %ymm15, %ymm15
	vaddps	%ymm5, %ymm15, %ymm1
	vmulps	%ymm2, %ymm1, %ymm6
	vmovups	%ymm6, (%rsi,%r8,4)
	vmovups	(%rcx,%r9,4), %ymm7
	addq	$16, %r8
	vmulps	%ymm2, %ymm7, %ymm9
	vmulps	%ymm9, %ymm9, %ymm10
	vaddps	%ymm9, %ymm9, %ymm3
	vrcpps	%ymm10, %ymm11
	vmulps	%ymm10, %ymm11, %ymm8
	vaddps	%ymm11, %ymm11, %ymm13
	vmulps	%ymm8, %ymm11, %ymm12
	vsubps	%ymm12, %ymm13, %ymm14
	vmulps	%ymm14, %ymm7, %ymm4
	vaddps	%ymm3, %ymm4, %ymm0
	vmulps	%ymm2, %ymm0, %ymm15
	vmulps	%ymm15, %ymm15, %ymm5
	vaddps	%ymm15, %ymm15, %ymm8
	vrcpps	%ymm5, %ymm1
	vmulps	%ymm5, %ymm1, %ymm6
	vaddps	%ymm1, %ymm1, %ymm10
	vmulps	%ymm6, %ymm1, %ymm9
	vsubps	%ymm9, %ymm10, %ymm11
	vmulps	%ymm11, %ymm7, %ymm7
	vaddps	%ymm8, %ymm7, %ymm12
	vmulps	%ymm2, %ymm12, %ymm13
	vmovups	%ymm13, (%rsi,%r9,4)
	cmpl	%r8d, %edx
	jg	.L73
.L82:
	vzeroupper
.L81:
	ret
	.cfi_endproc
.LFE12741:
	.size	_Z23avx2_cube_root_templateILi2EEvPKfPfi, .-_Z23avx2_cube_root_templateILi2EEvPKfPfi
	.section	.text._Z25native_cube_root_templateILi16EEvPKfPfi,"axG",@progbits,_Z25native_cube_root_templateILi16EEvPKfPfi,comdat
	.p2align 4
	.weak	_Z25native_cube_root_templateILi16EEvPKfPfi
	.type	_Z25native_cube_root_templateILi16EEvPKfPfi, @function
_Z25native_cube_root_templateILi16EEvPKfPfi:
.LFB12771:
	.cfi_startproc
	endbr64
	testl	%edx, %edx
	jle	.L90
	movslq	%edx, %rdx
	vmovss	.LC0(%rip), %xmm3
	xorl	%r8d, %r8d
	leaq	0(,%rdx,4), %rcx
	.p2align 4,,10
	.p2align 3
.L86:
	vmovss	(%rdi,%r8), %xmm2
	movl	$16, %eax
	vmulss	%xmm3, %xmm2, %xmm6
	.p2align 4,,10
	.p2align 3
.L85:
	vmulss	%xmm6, %xmm6, %xmm1
	vaddss	%xmm6, %xmm6, %xmm0
	vdivss	%xmm1, %xmm2, %xmm4
	vaddss	%xmm0, %xmm4, %xmm5
	vmulss	%xmm3, %xmm5, %xmm6
	subl	$1, %eax
	jne	.L85
	vmovss	%xmm6, (%rsi,%r8)
	addq	$4, %r8
	cmpq	%r8, %rcx
	jne	.L86
.L90:
	ret
	.cfi_endproc
.LFE12771:
	.size	_Z25native_cube_root_templateILi16EEvPKfPfi, .-_Z25native_cube_root_templateILi16EEvPKfPfi
	.section	.text._Z22opt_cube_root_templateILi16EEvPKfPfi,"axG",@progbits,_Z22opt_cube_root_templateILi16EEvPKfPfi,comdat
	.p2align 4
	.weak	_Z22opt_cube_root_templateILi16EEvPKfPfi
	.type	_Z22opt_cube_root_templateILi16EEvPKfPfi, @function
_Z22opt_cube_root_templateILi16EEvPKfPfi:
.LFB12772:
	.cfi_startproc
	endbr64
	movslq	%edx, %rax
	movq	%rdi, %rcx
	testl	%eax, %eax
	jle	.L111
	leal	-1(%rax), %edx
	movl	%eax, %r8d
	cmpl	$2, %edx
	jbe	.L93
	leaq	4(%rdi), %r9
	movq	%rsi, %rdi
	subq	%r9, %rdi
	cmpq	$24, %rdi
	ja	.L112
.L93:
	vmovss	.LC0(%rip), %xmm1
	leaq	0(,%rax,4), %r11
	xorl	%eax, %eax
	.p2align 4,,10
	.p2align 3
.L101:
	vmovss	(%rcx,%rax), %xmm9
	vmulss	%xmm1, %xmm9, %xmm8
	vmulss	%xmm8, %xmm8, %xmm2
	vaddss	%xmm8, %xmm8, %xmm10
	vdivss	%xmm2, %xmm9, %xmm4
	vaddss	%xmm10, %xmm4, %xmm11
	vmulss	%xmm1, %xmm11, %xmm12
	vmulss	%xmm12, %xmm12, %xmm13
	vaddss	%xmm12, %xmm12, %xmm6
	vdivss	%xmm13, %xmm9, %xmm14
	vaddss	%xmm6, %xmm14, %xmm0
	vmulss	%xmm1, %xmm0, %xmm15
	vmulss	%xmm15, %xmm15, %xmm7
	vaddss	%xmm15, %xmm15, %xmm3
	vdivss	%xmm7, %xmm9, %xmm5
	vaddss	%xmm3, %xmm5, %xmm8
	vmulss	%xmm1, %xmm8, %xmm2
	vmulss	%xmm2, %xmm2, %xmm4
	vaddss	%xmm2, %xmm2, %xmm11
	vdivss	%xmm4, %xmm9, %xmm10
	vaddss	%xmm11, %xmm10, %xmm12
	vmulss	%xmm1, %xmm12, %xmm13
	vmulss	%xmm13, %xmm13, %xmm14
	vaddss	%xmm13, %xmm13, %xmm0
	vdivss	%xmm14, %xmm9, %xmm6
	vaddss	%xmm0, %xmm6, %xmm15
	vmulss	%xmm1, %xmm15, %xmm7
	vmulss	%xmm7, %xmm7, %xmm5
	vaddss	%xmm7, %xmm7, %xmm8
	vdivss	%xmm5, %xmm9, %xmm3
	vaddss	%xmm8, %xmm3, %xmm2
	vmulss	%xmm1, %xmm2, %xmm4
	vmulss	%xmm4, %xmm4, %xmm10
	vaddss	%xmm4, %xmm4, %xmm12
	vdivss	%xmm10, %xmm9, %xmm11
	vaddss	%xmm12, %xmm11, %xmm13
	vmulss	%xmm1, %xmm13, %xmm14
	vmulss	%xmm14, %xmm14, %xmm6
	vaddss	%xmm14, %xmm14, %xmm15
	vdivss	%xmm6, %xmm9, %xmm0
	vaddss	%xmm15, %xmm0, %xmm7
	vmulss	%xmm1, %xmm7, %xmm5
	vmulss	%xmm5, %xmm5, %xmm3
	vaddss	%xmm5, %xmm5, %xmm2
	vdivss	%xmm3, %xmm9, %xmm8
	vaddss	%xmm2, %xmm8, %xmm4
	vmulss	%xmm1, %xmm4, %xmm10
	vmulss	%xmm10, %xmm10, %xmm11
	vaddss	%xmm10, %xmm10, %xmm13
	vdivss	%xmm11, %xmm9, %xmm12
	vaddss	%xmm13, %xmm12, %xmm14
	vmulss	%xmm1, %xmm14, %xmm6
	vmulss	%xmm6, %xmm6, %xmm0
	vaddss	%xmm6, %xmm6, %xmm7
	vdivss	%xmm0, %xmm9, %xmm15
	vaddss	%xmm7, %xmm15, %xmm5
	vmulss	%xmm1, %xmm5, %xmm8
	vmulss	%xmm8, %xmm8, %xmm3
	vaddss	%xmm8, %xmm8, %xmm2
	vdivss	%xmm3, %xmm9, %xmm4
	vaddss	%xmm2, %xmm4, %xmm10
	vmulss	%xmm1, %xmm10, %xmm11
	vmulss	%xmm11, %xmm11, %xmm12
	vaddss	%xmm11, %xmm11, %xmm14
	vdivss	%xmm12, %xmm9, %xmm13
	vaddss	%xmm14, %xmm13, %xmm6
	vmulss	%xmm1, %xmm6, %xmm0
	vmulss	%xmm0, %xmm0, %xmm15
	vaddss	%xmm0, %xmm0, %xmm5
	vdivss	%xmm15, %xmm9, %xmm7
	vaddss	%xmm5, %xmm7, %xmm8
	vmulss	%xmm1, %xmm8, %xmm3
	vmulss	%xmm3, %xmm3, %xmm4
	vaddss	%xmm3, %xmm3, %xmm10
	vdivss	%xmm4, %xmm9, %xmm2
	vaddss	%xmm10, %xmm2, %xmm11
	vmulss	%xmm1, %xmm11, %xmm12
	vmulss	%xmm12, %xmm12, %xmm13
	vaddss	%xmm12, %xmm12, %xmm14
	vdivss	%xmm13, %xmm9, %xmm9
	vaddss	%xmm14, %xmm9, %xmm6
	vmulss	%xmm1, %xmm6, %xmm0
	vmovss	%xmm0, (%rsi,%rax)
	addq	$4, %rax
	cmpq	%r11, %rax
	jne	.L101
	ret
.L109:
	vzeroupper
.L111:
	ret
.L112:
	cmpl	$6, %edx
	jbe	.L103
	vbroadcastss	.LC0(%rip), %ymm3
	shrl	$3, %r8d
	xorl	%r10d, %r10d
	salq	$5, %r8
	.p2align 4,,10
	.p2align 3
.L95:
	vmovups	(%rcx,%r10), %ymm0
	vmulps	%ymm3, %ymm0, %ymm2
	vmulps	%ymm2, %ymm2, %ymm4
	vaddps	%ymm2, %ymm2, %ymm10
	vrcpps	%ymm4, %ymm1
	vmulps	%ymm4, %ymm1, %ymm5
	vaddps	%ymm1, %ymm1, %ymm7
	vmulps	%ymm5, %ymm1, %ymm6
	vsubps	%ymm6, %ymm7, %ymm8
	vmulps	%ymm8, %ymm0, %ymm9
	vaddps	%ymm10, %ymm9, %ymm11
	vmulps	%ymm3, %ymm11, %ymm12
	vmulps	%ymm12, %ymm12, %ymm13
	vaddps	%ymm12, %ymm12, %ymm6
	vrcpps	%ymm13, %ymm14
	vmulps	%ymm13, %ymm14, %ymm15
	vaddps	%ymm14, %ymm14, %ymm4
	vmulps	%ymm15, %ymm14, %ymm2
	vsubps	%ymm2, %ymm4, %ymm1
	vmulps	%ymm1, %ymm0, %ymm5
	vaddps	%ymm6, %ymm5, %ymm7
	vmulps	%ymm3, %ymm7, %ymm8
	vmulps	%ymm8, %ymm8, %ymm9
	vaddps	%ymm8, %ymm8, %ymm2
	vrcpps	%ymm9, %ymm10
	vmulps	%ymm9, %ymm10, %ymm11
	vaddps	%ymm10, %ymm10, %ymm13
	vmulps	%ymm11, %ymm10, %ymm12
	vsubps	%ymm12, %ymm13, %ymm14
	vmulps	%ymm14, %ymm0, %ymm15
	vaddps	%ymm2, %ymm15, %ymm4
	vmulps	%ymm3, %ymm4, %ymm5
	vmulps	%ymm5, %ymm5, %ymm6
	vaddps	%ymm5, %ymm5, %ymm12
	vrcpps	%ymm6, %ymm1
	vmulps	%ymm6, %ymm1, %ymm7
	vaddps	%ymm1, %ymm1, %ymm9
	vmulps	%ymm7, %ymm1, %ymm8
	vsubps	%ymm8, %ymm9, %ymm10
	vmulps	%ymm10, %ymm0, %ymm11
	vaddps	%ymm12, %ymm11, %ymm13
	vmulps	%ymm3, %ymm13, %ymm14
	vmulps	%ymm14, %ymm14, %ymm15
	vaddps	%ymm14, %ymm14, %ymm8
	vrcpps	%ymm15, %ymm2
	vmulps	%ymm15, %ymm2, %ymm4
	vaddps	%ymm2, %ymm2, %ymm6
	vmulps	%ymm4, %ymm2, %ymm5
	vsubps	%ymm5, %ymm6, %ymm1
	vmulps	%ymm1, %ymm0, %ymm7
	vaddps	%ymm8, %ymm7, %ymm9
	vmulps	%ymm3, %ymm9, %ymm10
	vmulps	%ymm10, %ymm10, %ymm11
	vaddps	%ymm10, %ymm10, %ymm4
	vrcpps	%ymm11, %ymm12
	vmulps	%ymm11, %ymm12, %ymm13
	vaddps	%ymm12, %ymm12, %ymm15
	vmulps	%ymm13, %ymm12, %ymm14
	vsubps	%ymm14, %ymm15, %ymm2
	vmulps	%ymm2, %ymm0, %ymm5
	vaddps	%ymm4, %ymm5, %ymm6
	vmulps	%ymm3, %ymm6, %ymm7
	vmulps	%ymm7, %ymm7, %ymm8
	vaddps	%ymm7, %ymm7, %ymm14
	vrcpps	%ymm8, %ymm1
	vmulps	%ymm8, %ymm1, %ymm9
	vaddps	%ymm1, %ymm1, %ymm11
	vmulps	%ymm9, %ymm1, %ymm10
	vsubps	%ymm10, %ymm11, %ymm12
	vmulps	%ymm12, %ymm0, %ymm13
	vaddps	%ymm14, %ymm13, %ymm15
	vmulps	%ymm3, %ymm15, %ymm5
	vmulps	%ymm5, %ymm5, %ymm2
	vaddps	%ymm5, %ymm5, %ymm10
	vrcpps	%ymm2, %ymm4
	vmulps	%ymm2, %ymm4, %ymm6
	vaddps	%ymm4, %ymm4, %ymm8
	vmulps	%ymm6, %ymm4, %ymm7
	vsubps	%ymm7, %ymm8, %ymm1
	vmulps	%ymm1, %ymm0, %ymm9
	vaddps	%ymm10, %ymm9, %ymm11
	vmulps	%ymm3, %ymm11, %ymm12
	vmulps	%ymm12, %ymm12, %ymm13
	vaddps	%ymm12, %ymm12, %ymm7
	vrcpps	%ymm13, %ymm14
	vmulps	%ymm13, %ymm14, %ymm15
	vaddps	%ymm14, %ymm14, %ymm2
	vmulps	%ymm15, %ymm14, %ymm5
	vsubps	%ymm5, %ymm2, %ymm4
	vmulps	%ymm4, %ymm0, %ymm6
	vaddps	%ymm7, %ymm6, %ymm8
	vmulps	%ymm3, %ymm8, %ymm9
	vmulps	%ymm9, %ymm9, %ymm10
	vaddps	%ymm9, %ymm9, %ymm5
	vrcpps	%ymm10, %ymm1
	vmulps	%ymm10, %ymm1, %ymm11
	vaddps	%ymm1, %ymm1, %ymm13
	vmulps	%ymm11, %ymm1, %ymm12
	vsubps	%ymm12, %ymm13, %ymm14
	vmulps	%ymm14, %ymm0, %ymm15
	vaddps	%ymm5, %ymm15, %ymm2
	vmulps	%ymm3, %ymm2, %ymm6
	vmulps	%ymm6, %ymm6, %ymm4
	vaddps	%ymm6, %ymm6, %ymm12
	vrcpps	%ymm4, %ymm7
	vmulps	%ymm4, %ymm7, %ymm8
	vaddps	%ymm7, %ymm7, %ymm10
	vmulps	%ymm8, %ymm7, %ymm9
	vsubps	%ymm9, %ymm10, %ymm1
	vmulps	%ymm1, %ymm0, %ymm11
	vaddps	%ymm12, %ymm11, %ymm13
	vmulps	%ymm3, %ymm13, %ymm14
	vmulps	%ymm14, %ymm14, %ymm15
	vaddps	%ymm14, %ymm14, %ymm9
	vrcpps	%ymm15, %ymm5
	vmulps	%ymm15, %ymm5, %ymm2
	vaddps	%ymm5, %ymm5, %ymm4
	vmulps	%ymm2, %ymm5, %ymm6
	vsubps	%ymm6, %ymm4, %ymm7
	vmulps	%ymm7, %ymm0, %ymm8
	vaddps	%ymm9, %ymm8, %ymm10
	vmulps	%ymm3, %ymm10, %ymm11
	vmulps	%ymm11, %ymm11, %ymm12
	vaddps	%ymm11, %ymm11, %ymm2
	vrcpps	%ymm12, %ymm1
	vmulps	%ymm12, %ymm1, %ymm13
	vaddps	%ymm1, %ymm1, %ymm15
	vmulps	%ymm13, %ymm1, %ymm14
	vsubps	%ymm14, %ymm15, %ymm5
	vmulps	%ymm5, %ymm0, %ymm6
	vaddps	%ymm2, %ymm6, %ymm4
	vmulps	%ymm3, %ymm4, %ymm7
	vmulps	%ymm7, %ymm7, %ymm8
	vaddps	%ymm7, %ymm7, %ymm14
	vrcpps	%ymm8, %ymm9
	vmulps	%ymm8, %ymm9, %ymm10
	vaddps	%ymm9, %ymm9, %ymm12
	vmulps	%ymm10, %ymm9, %ymm11
	vsubps	%ymm11, %ymm12, %ymm1
	vmulps	%ymm1, %ymm0, %ymm13
	vaddps	%ymm14, %ymm13, %ymm15
	vmulps	%ymm3, %ymm15, %ymm5
	vmulps	%ymm5, %ymm5, %ymm6
	vaddps	%ymm5, %ymm5, %ymm11
	vrcpps	%ymm6, %ymm2
	vmulps	%ymm6, %ymm2, %ymm4
	vaddps	%ymm2, %ymm2, %ymm8
	vmulps	%ymm4, %ymm2, %ymm7
	vsubps	%ymm7, %ymm8, %ymm9
	vmulps	%ymm9, %ymm0, %ymm10
	vaddps	%ymm11, %ymm10, %ymm12
	vmulps	%ymm3, %ymm12, %ymm1
	vmulps	%ymm1, %ymm1, %ymm13
	vaddps	%ymm1, %ymm1, %ymm4
	vrcpps	%ymm13, %ymm14
	vmulps	%ymm13, %ymm14, %ymm15
	vaddps	%ymm14, %ymm14, %ymm6
	vmulps	%ymm15, %ymm14, %ymm5
	vsubps	%ymm5, %ymm6, %ymm2
	vmulps	%ymm2, %ymm0, %ymm0
	vaddps	%ymm4, %ymm0, %ymm7
	vmulps	%ymm3, %ymm7, %ymm8
	vmovups	%ymm8, (%rsi,%r10)
	addq	$32, %r10
	cmpq	%r10, %r8
	jne	.L95
	movl	%eax, %r11d
	andl	$-8, %r11d
	movl	%r11d, %edx
	cmpl	%r11d, %eax
	je	.L109
	movl	%eax, %r8d
	subl	%r11d, %r8d
	leal	-1(%r8), %r9d
	cmpl	$2, %r9d
	jbe	.L113
	vzeroupper
.L94:
	vmovups	(%rcx,%rdx,4), %xmm9
	movl	%r8d, %edi
	vbroadcastss	.LC0(%rip), %xmm3
	andl	$-4, %edi
	vmulps	%xmm3, %xmm9, %xmm10
	addl	%edi, %r11d
	andl	$3, %r8d
	vmulps	%xmm10, %xmm10, %xmm11
	vaddps	%xmm10, %xmm10, %xmm6
	vrcpps	%xmm11, %xmm12
	vmulps	%xmm11, %xmm12, %xmm1
	vaddps	%xmm12, %xmm12, %xmm14
	vmulps	%xmm1, %xmm12, %xmm13
	vsubps	%xmm13, %xmm14, %xmm15
	vmulps	%xmm15, %xmm9, %xmm5
	vaddps	%xmm6, %xmm5, %xmm2
	vmulps	%xmm3, %xmm2, %xmm0
	vmulps	%xmm0, %xmm0, %xmm4
	vaddps	%xmm0, %xmm0, %xmm13
	vrcpps	%xmm4, %xmm7
	vmulps	%xmm4, %xmm7, %xmm8
	vaddps	%xmm7, %xmm7, %xmm11
	vmulps	%xmm8, %xmm7, %xmm10
	vsubps	%xmm10, %xmm11, %xmm12
	vmulps	%xmm12, %xmm9, %xmm1
	vaddps	%xmm13, %xmm1, %xmm14
	vmulps	%xmm3, %xmm14, %xmm15
	vmulps	%xmm15, %xmm15, %xmm5
	vaddps	%xmm15, %xmm15, %xmm10
	vrcpps	%xmm5, %xmm6
	vmulps	%xmm5, %xmm6, %xmm2
	vaddps	%xmm6, %xmm6, %xmm4
	vmulps	%xmm2, %xmm6, %xmm0
	vsubps	%xmm0, %xmm4, %xmm7
	vmulps	%xmm7, %xmm9, %xmm8
	vaddps	%xmm10, %xmm8, %xmm11
	vmulps	%xmm3, %xmm11, %xmm12
	vmulps	%xmm12, %xmm12, %xmm13
	vaddps	%xmm12, %xmm12, %xmm0
	vrcpps	%xmm13, %xmm1
	vmulps	%xmm13, %xmm1, %xmm14
	vaddps	%xmm1, %xmm1, %xmm5
	vmulps	%xmm14, %xmm1, %xmm15
	vsubps	%xmm15, %xmm5, %xmm6
	vmulps	%xmm6, %xmm9, %xmm2
	vaddps	%xmm0, %xmm2, %xmm4
	vmulps	%xmm3, %xmm4, %xmm7
	vmulps	%xmm7, %xmm7, %xmm8
	vaddps	%xmm7, %xmm7, %xmm15
	vrcpps	%xmm8, %xmm10
	vmulps	%xmm8, %xmm10, %xmm11
	vaddps	%xmm10, %xmm10, %xmm13
	vmulps	%xmm11, %xmm10, %xmm12
	vsubps	%xmm12, %xmm13, %xmm1
	vmulps	%xmm1, %xmm9, %xmm14
	vaddps	%xmm15, %xmm14, %xmm5
	vmulps	%xmm3, %xmm5, %xmm6
	vmulps	%xmm6, %xmm6, %xmm2
	vaddps	%xmm6, %xmm6, %xmm12
	vrcpps	%xmm2, %xmm0
	vmulps	%xmm2, %xmm0, %xmm4
	vaddps	%xmm0, %xmm0, %xmm8
	vmulps	%xmm4, %xmm0, %xmm7
	vsubps	%xmm7, %xmm8, %xmm10
	vmulps	%xmm10, %xmm9, %xmm11
	vaddps	%xmm12, %xmm11, %xmm13
	vmulps	%xmm3, %xmm13, %xmm14
	vmulps	%xmm14, %xmm14, %xmm15
	vaddps	%xmm14, %xmm14, %xmm7
	vrcpps	%xmm15, %xmm1
	vmulps	%xmm15, %xmm1, %xmm5
	vaddps	%xmm1, %xmm1, %xmm2
	vmulps	%xmm5, %xmm1, %xmm6
	vsubps	%xmm6, %xmm2, %xmm0
	vmulps	%xmm0, %xmm9, %xmm4
	vaddps	%xmm7, %xmm4, %xmm8
	vmulps	%xmm3, %xmm8, %xmm10
	vmulps	%xmm10, %xmm10, %xmm11
	vaddps	%xmm10, %xmm10, %xmm6
	vrcpps	%xmm11, %xmm12
	vmulps	%xmm11, %xmm12, %xmm13
	vaddps	%xmm12, %xmm12, %xmm15
	vmulps	%xmm13, %xmm12, %xmm14
	vsubps	%xmm14, %xmm15, %xmm1
	vmulps	%xmm1, %xmm9, %xmm5
	vaddps	%xmm6, %xmm5, %xmm2
	vmulps	%xmm3, %xmm2, %xmm0
	vmulps	%xmm0, %xmm0, %xmm4
	vaddps	%xmm0, %xmm0, %xmm14
	vrcpps	%xmm4, %xmm7
	vmulps	%xmm4, %xmm7, %xmm8
	vaddps	%xmm7, %xmm7, %xmm11
	vmulps	%xmm8, %xmm7, %xmm10
	vsubps	%xmm10, %xmm11, %xmm12
	vmulps	%xmm12, %xmm9, %xmm13
	vaddps	%xmm14, %xmm13, %xmm15
	vmulps	%xmm3, %xmm15, %xmm5
	vmulps	%xmm5, %xmm5, %xmm6
	vaddps	%xmm5, %xmm5, %xmm10
	vrcpps	%xmm6, %xmm1
	vmulps	%xmm6, %xmm1, %xmm2
	vaddps	%xmm1, %xmm1, %xmm4
	vmulps	%xmm2, %xmm1, %xmm0
	vsubps	%xmm0, %xmm4, %xmm7
	vmulps	%xmm7, %xmm9, %xmm8
	vaddps	%xmm10, %xmm8, %xmm11
	vmulps	%xmm3, %xmm11, %xmm12
	vmulps	%xmm12, %xmm12, %xmm13
	vaddps	%xmm12, %xmm12, %xmm2
	vrcpps	%xmm13, %xmm14
	vmulps	%xmm13, %xmm14, %xmm15
	vaddps	%xmm14, %xmm14, %xmm6
	vmulps	%xmm15, %xmm14, %xmm5
	vsubps	%xmm5, %xmm6, %xmm1
	vmulps	%xmm1, %xmm9, %xmm0
	vaddps	%xmm2, %xmm0, %xmm4
	vmulps	%xmm3, %xmm4, %xmm7
	vmulps	%xmm7, %xmm7, %xmm8
	vaddps	%xmm7, %xmm7, %xmm5
	vrcpps	%xmm8, %xmm10
	vmulps	%xmm8, %xmm10, %xmm11
	vaddps	%xmm10, %xmm10, %xmm13
	vmulps	%xmm11, %xmm10, %xmm12
	vsubps	%xmm12, %xmm13, %xmm14
	vmulps	%xmm14, %xmm9, %xmm15
	vaddps	%xmm5, %xmm15, %xmm6
	vmulps	%xmm3, %xmm6, %xmm0
	vmulps	%xmm0, %xmm0, %xmm2
	vaddps	%xmm0, %xmm0, %xmm12
	vrcpps	%xmm2, %xmm1
	vmulps	%xmm2, %xmm1, %xmm4
	vaddps	%xmm1, %xmm1, %xmm8
	vmulps	%xmm4, %xmm1, %xmm7
	vsubps	%xmm7, %xmm8, %xmm10
	vmulps	%xmm10, %xmm9, %xmm11
	vaddps	%xmm12, %xmm11, %xmm13
	vmulps	%xmm3, %xmm13, %xmm14
	vmulps	%xmm14, %xmm14, %xmm15
	vaddps	%xmm14, %xmm14, %xmm4
	vrcpps	%xmm15, %xmm5
	vmulps	%xmm15, %xmm5, %xmm6
	vaddps	%xmm5, %xmm5, %xmm2
	vmulps	%xmm6, %xmm5, %xmm0
	vsubps	%xmm0, %xmm2, %xmm1
	vmulps	%xmm1, %xmm9, %xmm7
	vaddps	%xmm4, %xmm7, %xmm8
	vmulps	%xmm3, %xmm8, %xmm10
	vmulps	%xmm10, %xmm10, %xmm11
	vaddps	%xmm10, %xmm10, %xmm0
	vrcpps	%xmm11, %xmm12
	vmulps	%xmm11, %xmm12, %xmm13
	vaddps	%xmm12, %xmm12, %xmm15
	vmulps	%xmm13, %xmm12, %xmm14
	vsubps	%xmm14, %xmm15, %xmm5
	vmulps	%xmm5, %xmm9, %xmm6
	vaddps	%xmm0, %xmm6, %xmm2
	vmulps	%xmm3, %xmm2, %xmm1
	vmulps	%xmm1, %xmm1, %xmm7
	vaddps	%xmm1, %xmm1, %xmm13
	vrcpps	%xmm7, %xmm8
	vmulps	%xmm7, %xmm8, %xmm4
	vaddps	%xmm8, %xmm8, %xmm11
	vmulps	%xmm4, %xmm8, %xmm10
	vsubps	%xmm10, %xmm11, %xmm12
	vmulps	%xmm12, %xmm9, %xmm9
	vaddps	%xmm13, %xmm9, %xmm14
	vmulps	%xmm3, %xmm14, %xmm3
	vmovups	%xmm3, (%rsi,%rdx,4)
	je	.L111
.L99:
	movslq	%r11d, %r10
	vmovss	.LC0(%rip), %xmm5
	leal	1(%r11), %r8d
	vmovss	(%rcx,%r10,4), %xmm15
	leaq	0(,%r10,4), %rdx
	vmulss	%xmm5, %xmm15, %xmm6
	vmulss	%xmm6, %xmm6, %xmm0
	vaddss	%xmm6, %xmm6, %xmm1
	vdivss	%xmm0, %xmm15, %xmm2
	vaddss	%xmm1, %xmm2, %xmm7
	vmulss	%xmm5, %xmm7, %xmm8
	vmulss	%xmm8, %xmm8, %xmm4
	vaddss	%xmm8, %xmm8, %xmm11
	vdivss	%xmm4, %xmm15, %xmm10
	vaddss	%xmm11, %xmm10, %xmm12
	vmulss	%xmm5, %xmm12, %xmm9
	vmulss	%xmm9, %xmm9, %xmm13
	vaddss	%xmm9, %xmm9, %xmm3
	vdivss	%xmm13, %xmm15, %xmm14
	vaddss	%xmm3, %xmm14, %xmm6
	vmulss	%xmm5, %xmm6, %xmm0
	vmulss	%xmm0, %xmm0, %xmm2
	vaddss	%xmm0, %xmm0, %xmm7
	vdivss	%xmm2, %xmm15, %xmm1
	vaddss	%xmm7, %xmm1, %xmm8
	vmulss	%xmm5, %xmm8, %xmm4
	vmulss	%xmm4, %xmm4, %xmm10
	vaddss	%xmm4, %xmm4, %xmm12
	vdivss	%xmm10, %xmm15, %xmm11
	vaddss	%xmm12, %xmm11, %xmm9
	vmulss	%xmm5, %xmm9, %xmm13
	vmulss	%xmm13, %xmm13, %xmm14
	vaddss	%xmm13, %xmm13, %xmm6
	vdivss	%xmm14, %xmm15, %xmm3
	vaddss	%xmm6, %xmm3, %xmm0
	vmulss	%xmm5, %xmm0, %xmm1
	vmulss	%xmm1, %xmm1, %xmm2
	vaddss	%xmm1, %xmm1, %xmm8
	vdivss	%xmm2, %xmm15, %xmm7
	vaddss	%xmm8, %xmm7, %xmm4
	vmulss	%xmm5, %xmm4, %xmm10
	vmulss	%xmm10, %xmm10, %xmm11
	vaddss	%xmm10, %xmm10, %xmm9
	vdivss	%xmm11, %xmm15, %xmm12
	vaddss	%xmm9, %xmm12, %xmm13
	vmulss	%xmm5, %xmm13, %xmm14
	vmulss	%xmm14, %xmm14, %xmm3
	vaddss	%xmm14, %xmm14, %xmm0
	vdivss	%xmm3, %xmm15, %xmm6
	vaddss	%xmm0, %xmm6, %xmm1
	vmulss	%xmm5, %xmm1, %xmm2
	vmulss	%xmm2, %xmm2, %xmm7
	vaddss	%xmm2, %xmm2, %xmm4
	vdivss	%xmm7, %xmm15, %xmm8
	vaddss	%xmm4, %xmm8, %xmm10
	vmulss	%xmm5, %xmm10, %xmm11
	vmulss	%xmm11, %xmm11, %xmm12
	vaddss	%xmm11, %xmm11, %xmm13
	vdivss	%xmm12, %xmm15, %xmm9
	vaddss	%xmm13, %xmm9, %xmm14
	vmulss	%xmm5, %xmm14, %xmm6
	vmulss	%xmm6, %xmm6, %xmm3
	vaddss	%xmm6, %xmm6, %xmm1
	vdivss	%xmm3, %xmm15, %xmm0
	vaddss	%xmm1, %xmm0, %xmm2
	vmulss	%xmm5, %xmm2, %xmm7
	vmulss	%xmm7, %xmm7, %xmm8
	vaddss	%xmm7, %xmm7, %xmm10
	vdivss	%xmm8, %xmm15, %xmm4
	vaddss	%xmm10, %xmm4, %xmm11
	vmulss	%xmm5, %xmm11, %xmm12
	vmulss	%xmm12, %xmm12, %xmm9
	vaddss	%xmm12, %xmm12, %xmm14
	vdivss	%xmm9, %xmm15, %xmm13
	vaddss	%xmm14, %xmm13, %xmm6
	vmulss	%xmm5, %xmm6, %xmm3
	vmulss	%xmm3, %xmm3, %xmm0
	vaddss	%xmm3, %xmm3, %xmm2
	vdivss	%xmm0, %xmm15, %xmm1
	vaddss	%xmm2, %xmm1, %xmm7
	vmulss	%xmm5, %xmm7, %xmm8
	vmulss	%xmm8, %xmm8, %xmm4
	vaddss	%xmm8, %xmm8, %xmm10
	vdivss	%xmm4, %xmm15, %xmm15
	vaddss	%xmm10, %xmm15, %xmm11
	vmulss	%xmm5, %xmm11, %xmm12
	vmovss	%xmm12, (%rsi,%r10,4)
	cmpl	%r8d, %eax
	jle	.L111
	vmovss	4(%rcx,%rdx), %xmm9
	addl	$2, %r11d
	vmulss	%xmm5, %xmm9, %xmm13
	vmulss	%xmm13, %xmm13, %xmm14
	vaddss	%xmm13, %xmm13, %xmm3
	vdivss	%xmm14, %xmm9, %xmm6
	vaddss	%xmm3, %xmm6, %xmm0
	vmulss	%xmm5, %xmm0, %xmm1
	vmulss	%xmm1, %xmm1, %xmm2
	vaddss	%xmm1, %xmm1, %xmm8
	vdivss	%xmm2, %xmm9, %xmm7
	vaddss	%xmm8, %xmm7, %xmm4
	vmulss	%xmm5, %xmm4, %xmm15
	vmulss	%xmm15, %xmm15, %xmm10
	vaddss	%xmm15, %xmm15, %xmm12
	vdivss	%xmm10, %xmm9, %xmm11
	vaddss	%xmm12, %xmm11, %xmm13
	vmulss	%xmm5, %xmm13, %xmm14
	vmulss	%xmm14, %xmm14, %xmm6
	vaddss	%xmm14, %xmm14, %xmm0
	vdivss	%xmm6, %xmm9, %xmm3
	vaddss	%xmm0, %xmm3, %xmm1
	vmulss	%xmm5, %xmm1, %xmm7
	vmulss	%xmm7, %xmm7, %xmm2
	vaddss	%xmm7, %xmm7, %xmm4
	vdivss	%xmm2, %xmm9, %xmm8
	vaddss	%xmm4, %xmm8, %xmm15
	vmulss	%xmm5, %xmm15, %xmm10
	vmulss	%xmm10, %xmm10, %xmm11
	vaddss	%xmm10, %xmm10, %xmm13
	vdivss	%xmm11, %xmm9, %xmm12
	vaddss	%xmm13, %xmm12, %xmm14
	vmulss	%xmm5, %xmm14, %xmm6
	vmulss	%xmm6, %xmm6, %xmm3
	vaddss	%xmm6, %xmm6, %xmm1
	vdivss	%xmm3, %xmm9, %xmm0
	vaddss	%xmm1, %xmm0, %xmm7
	vmulss	%xmm5, %xmm7, %xmm2
	vmulss	%xmm2, %xmm2, %xmm8
	vaddss	%xmm2, %xmm2, %xmm15
	vdivss	%xmm8, %xmm9, %xmm4
	vaddss	%xmm15, %xmm4, %xmm10
	vmulss	%xmm5, %xmm10, %xmm11
	vmulss	%xmm11, %xmm11, %xmm12
	vaddss	%xmm11, %xmm11, %xmm14
	vdivss	%xmm12, %xmm9, %xmm13
	vaddss	%xmm14, %xmm13, %xmm6
	vmulss	%xmm5, %xmm6, %xmm0
	vmulss	%xmm0, %xmm0, %xmm3
	vaddss	%xmm0, %xmm0, %xmm7
	vdivss	%xmm3, %xmm9, %xmm1
	vaddss	%xmm7, %xmm1, %xmm2
	vmulss	%xmm5, %xmm2, %xmm8
	vmulss	%xmm8, %xmm8, %xmm4
	vaddss	%xmm8, %xmm8, %xmm10
	vdivss	%xmm4, %xmm9, %xmm15
	vaddss	%xmm10, %xmm15, %xmm11
	vmulss	%xmm5, %xmm11, %xmm12
	vmulss	%xmm12, %xmm12, %xmm13
	vaddss	%xmm12, %xmm12, %xmm6
	vdivss	%xmm13, %xmm9, %xmm14
	vaddss	%xmm6, %xmm14, %xmm0
	vmulss	%xmm5, %xmm0, %xmm3
	vmulss	%xmm3, %xmm3, %xmm1
	vaddss	%xmm3, %xmm3, %xmm2
	vdivss	%xmm1, %xmm9, %xmm7
	vaddss	%xmm2, %xmm7, %xmm8
	vmulss	%xmm5, %xmm8, %xmm4
	vmulss	%xmm4, %xmm4, %xmm15
	vaddss	%xmm4, %xmm4, %xmm11
	vdivss	%xmm15, %xmm9, %xmm10
	vaddss	%xmm11, %xmm10, %xmm12
	vmulss	%xmm5, %xmm12, %xmm13
	vmulss	%xmm13, %xmm13, %xmm14
	vaddss	%xmm13, %xmm13, %xmm0
	vdivss	%xmm14, %xmm9, %xmm6
	vaddss	%xmm0, %xmm6, %xmm3
	vmulss	%xmm5, %xmm3, %xmm7
	vmulss	%xmm7, %xmm7, %xmm1
	vaddss	%xmm7, %xmm7, %xmm2
	vdivss	%xmm1, %xmm9, %xmm9
	vaddss	%xmm2, %xmm9, %xmm8
	vmulss	%xmm5, %xmm8, %xmm4
	vmovss	%xmm4, 4(%rsi,%rdx)
	cmpl	%r11d, %eax
	jle	.L111
	vmovss	8(%rcx,%rdx), %xmm15
	vmulss	%xmm5, %xmm15, %xmm10
	vmulss	%xmm10, %xmm10, %xmm11
	vaddss	%xmm10, %xmm10, %xmm13
	vdivss	%xmm11, %xmm15, %xmm12
	vaddss	%xmm13, %xmm12, %xmm14
	vmulss	%xmm5, %xmm14, %xmm6
	vmulss	%xmm6, %xmm6, %xmm0
	vaddss	%xmm6, %xmm6, %xmm7
	vdivss	%xmm0, %xmm15, %xmm3
	vaddss	%xmm7, %xmm3, %xmm1
	vmulss	%xmm5, %xmm1, %xmm9
	vmulss	%xmm9, %xmm9, %xmm2
	vaddss	%xmm9, %xmm9, %xmm4
	vdivss	%xmm2, %xmm15, %xmm8
	vaddss	%xmm4, %xmm8, %xmm10
	vmulss	%xmm5, %xmm10, %xmm11
	vmulss	%xmm11, %xmm11, %xmm12
	vaddss	%xmm11, %xmm11, %xmm14
	vdivss	%xmm12, %xmm15, %xmm13
	vaddss	%xmm14, %xmm13, %xmm6
	vmulss	%xmm5, %xmm6, %xmm0
	vmulss	%xmm0, %xmm0, %xmm3
	vaddss	%xmm0, %xmm0, %xmm1
	vdivss	%xmm3, %xmm15, %xmm7
	vaddss	%xmm1, %xmm7, %xmm9
	vmulss	%xmm5, %xmm9, %xmm2
	vmulss	%xmm2, %xmm2, %xmm8
	vaddss	%xmm2, %xmm2, %xmm10
	vdivss	%xmm8, %xmm15, %xmm4
	vaddss	%xmm10, %xmm4, %xmm11
	vmulss	%xmm5, %xmm11, %xmm12
	vmulss	%xmm12, %xmm12, %xmm13
	vaddss	%xmm12, %xmm12, %xmm6
	vdivss	%xmm13, %xmm15, %xmm14
	vaddss	%xmm6, %xmm14, %xmm0
	vmulss	%xmm5, %xmm0, %xmm7
	vmulss	%xmm7, %xmm7, %xmm3
	vaddss	%xmm7, %xmm7, %xmm9
	vdivss	%xmm3, %xmm15, %xmm1
	vaddss	%xmm9, %xmm1, %xmm2
	vmulss	%xmm5, %xmm2, %xmm8
	vmulss	%xmm8, %xmm8, %xmm4
	vaddss	%xmm8, %xmm8, %xmm11
	vdivss	%xmm4, %xmm15, %xmm10
	vaddss	%xmm11, %xmm10, %xmm12
	vmulss	%xmm5, %xmm12, %xmm13
	vmulss	%xmm13, %xmm13, %xmm14
	vaddss	%xmm13, %xmm13, %xmm0
	vdivss	%xmm14, %xmm15, %xmm6
	vaddss	%xmm0, %xmm6, %xmm7
	vmulss	%xmm5, %xmm7, %xmm3
	vmulss	%xmm3, %xmm3, %xmm1
	vaddss	%xmm3, %xmm3, %xmm2
	vdivss	%xmm1, %xmm15, %xmm9
	vaddss	%xmm2, %xmm9, %xmm8
	vmulss	%xmm5, %xmm8, %xmm4
	vmulss	%xmm4, %xmm4, %xmm10
	vaddss	%xmm4, %xmm4, %xmm12
	vdivss	%xmm10, %xmm15, %xmm11
	vaddss	%xmm12, %xmm11, %xmm13
	vmulss	%xmm5, %xmm13, %xmm14
	vmulss	%xmm14, %xmm14, %xmm6
	vaddss	%xmm14, %xmm14, %xmm7
	vdivss	%xmm6, %xmm15, %xmm0
	vaddss	%xmm7, %xmm0, %xmm3
	vmulss	%xmm5, %xmm3, %xmm1
	vmulss	%xmm1, %xmm1, %xmm9
	vaddss	%xmm1, %xmm1, %xmm2
	vdivss	%xmm9, %xmm15, %xmm8
	vaddss	%xmm2, %xmm8, %xmm4
	vmulss	%xmm5, %xmm4, %xmm10
	vmulss	%xmm10, %xmm10, %xmm11
	vaddss	%xmm10, %xmm10, %xmm13
	vdivss	%xmm11, %xmm15, %xmm12
	vaddss	%xmm13, %xmm12, %xmm14
	vmulss	%xmm5, %xmm14, %xmm6
	vmulss	%xmm6, %xmm6, %xmm0
	vaddss	%xmm6, %xmm6, %xmm7
	vdivss	%xmm0, %xmm15, %xmm15
	vaddss	%xmm7, %xmm15, %xmm3
	vmulss	%xmm5, %xmm3, %xmm5
	vmovss	%xmm5, 8(%rsi,%rdx)
	ret
.L103:
	xorl	%edx, %edx
	xorl	%r11d, %r11d
	jmp	.L94
.L113:
	vzeroupper
	jmp	.L99
	.cfi_endproc
.LFE12772:
	.size	_Z22opt_cube_root_templateILi16EEvPKfPfi, .-_Z22opt_cube_root_templateILi16EEvPKfPfi
	.section	.text._Z23avx2_cube_root_templateILi16EEvPKfPfi,"axG",@progbits,_Z23avx2_cube_root_templateILi16EEvPKfPfi,comdat
	.p2align 4
	.weak	_Z23avx2_cube_root_templateILi16EEvPKfPfi
	.type	_Z23avx2_cube_root_templateILi16EEvPKfPfi, @function
_Z23avx2_cube_root_templateILi16EEvPKfPfi:
.LFB12773:
	.cfi_startproc
	endbr64
	movl	%edx, %eax
	leal	14(%rdx), %edx
	addl	$7, %eax
	cmovns	%eax, %edx
	andl	$-8, %edx
	jle	.L118
	vbroadcastss	.LC0(%rip), %ymm3
	xorl	%ecx, %ecx
	.p2align 4,,10
	.p2align 3
.L116:
	vmovups	(%rdi,%rcx,4), %ymm0
	vmulps	%ymm3, %ymm0, %ymm2
	vmulps	%ymm2, %ymm2, %ymm4
	vaddps	%ymm2, %ymm2, %ymm10
	vrcpps	%ymm4, %ymm1
	vmulps	%ymm4, %ymm1, %ymm5
	vaddps	%ymm1, %ymm1, %ymm7
	vmulps	%ymm5, %ymm1, %ymm6
	vsubps	%ymm6, %ymm7, %ymm8
	vmulps	%ymm8, %ymm0, %ymm9
	vaddps	%ymm10, %ymm9, %ymm11
	vmulps	%ymm3, %ymm11, %ymm12
	vmulps	%ymm12, %ymm12, %ymm13
	vaddps	%ymm12, %ymm12, %ymm6
	vrcpps	%ymm13, %ymm14
	vmulps	%ymm13, %ymm14, %ymm15
	vaddps	%ymm14, %ymm14, %ymm2
	vmulps	%ymm15, %ymm14, %ymm4
	vsubps	%ymm4, %ymm2, %ymm1
	vmulps	%ymm1, %ymm0, %ymm5
	vaddps	%ymm6, %ymm5, %ymm7
	vmulps	%ymm3, %ymm7, %ymm8
	vmulps	%ymm8, %ymm8, %ymm9
	vaddps	%ymm8, %ymm8, %ymm4
	vrcpps	%ymm9, %ymm10
	vmulps	%ymm9, %ymm10, %ymm11
	vaddps	%ymm10, %ymm10, %ymm13
	vmulps	%ymm11, %ymm10, %ymm12
	vsubps	%ymm12, %ymm13, %ymm14
	vmulps	%ymm14, %ymm0, %ymm15
	vaddps	%ymm4, %ymm15, %ymm2
	vmulps	%ymm3, %ymm2, %ymm6
	vmulps	%ymm6, %ymm6, %ymm5
	vaddps	%ymm6, %ymm6, %ymm12
	vrcpps	%ymm5, %ymm1
	vmulps	%ymm5, %ymm1, %ymm7
	vaddps	%ymm1, %ymm1, %ymm9
	vmulps	%ymm7, %ymm1, %ymm8
	vsubps	%ymm8, %ymm9, %ymm10
	vmulps	%ymm10, %ymm0, %ymm11
	vaddps	%ymm12, %ymm11, %ymm13
	vmulps	%ymm3, %ymm13, %ymm14
	vmulps	%ymm14, %ymm14, %ymm15
	vaddps	%ymm14, %ymm14, %ymm8
	vrcpps	%ymm15, %ymm2
	vmulps	%ymm15, %ymm2, %ymm4
	vaddps	%ymm2, %ymm2, %ymm5
	vmulps	%ymm4, %ymm2, %ymm6
	vsubps	%ymm6, %ymm5, %ymm1
	vmulps	%ymm1, %ymm0, %ymm7
	vaddps	%ymm8, %ymm7, %ymm9
	vmulps	%ymm3, %ymm9, %ymm10
	vmulps	%ymm10, %ymm10, %ymm11
	vaddps	%ymm10, %ymm10, %ymm4
	vrcpps	%ymm11, %ymm12
	vmulps	%ymm11, %ymm12, %ymm13
	vaddps	%ymm12, %ymm12, %ymm15
	vmulps	%ymm13, %ymm12, %ymm14
	vsubps	%ymm14, %ymm15, %ymm2
	vmulps	%ymm2, %ymm0, %ymm6
	vaddps	%ymm4, %ymm6, %ymm5
	vmulps	%ymm3, %ymm5, %ymm7
	vmulps	%ymm7, %ymm7, %ymm8
	vaddps	%ymm7, %ymm7, %ymm14
	vrcpps	%ymm8, %ymm1
	vmulps	%ymm8, %ymm1, %ymm9
	vaddps	%ymm1, %ymm1, %ymm11
	vmulps	%ymm9, %ymm1, %ymm10
	vsubps	%ymm10, %ymm11, %ymm12
	vmulps	%ymm12, %ymm0, %ymm13
	vaddps	%ymm14, %ymm13, %ymm15
	vmulps	%ymm3, %ymm15, %ymm6
	vmulps	%ymm6, %ymm6, %ymm2
	vaddps	%ymm6, %ymm6, %ymm10
	vrcpps	%ymm2, %ymm4
	vmulps	%ymm2, %ymm4, %ymm5
	vaddps	%ymm4, %ymm4, %ymm8
	vmulps	%ymm5, %ymm4, %ymm7
	vsubps	%ymm7, %ymm8, %ymm1
	vmulps	%ymm1, %ymm0, %ymm9
	vaddps	%ymm10, %ymm9, %ymm11
	vmulps	%ymm3, %ymm11, %ymm12
	vmulps	%ymm12, %ymm12, %ymm13
	vaddps	%ymm12, %ymm12, %ymm7
	vrcpps	%ymm13, %ymm14
	vmulps	%ymm13, %ymm14, %ymm15
	vaddps	%ymm14, %ymm14, %ymm2
	vmulps	%ymm15, %ymm14, %ymm6
	vsubps	%ymm6, %ymm2, %ymm4
	vmulps	%ymm4, %ymm0, %ymm5
	vaddps	%ymm7, %ymm5, %ymm8
	vmulps	%ymm3, %ymm8, %ymm9
	vmulps	%ymm9, %ymm9, %ymm10
	vaddps	%ymm9, %ymm9, %ymm6
	vrcpps	%ymm10, %ymm1
	vmulps	%ymm10, %ymm1, %ymm11
	vaddps	%ymm1, %ymm1, %ymm13
	vmulps	%ymm11, %ymm1, %ymm12
	vsubps	%ymm12, %ymm13, %ymm14
	vmulps	%ymm14, %ymm0, %ymm15
	vaddps	%ymm6, %ymm15, %ymm2
	vmulps	%ymm3, %ymm2, %ymm7
	vmulps	%ymm7, %ymm7, %ymm4
	vaddps	%ymm7, %ymm7, %ymm12
	vrcpps	%ymm4, %ymm8
	vmulps	%ymm4, %ymm8, %ymm5
	vaddps	%ymm8, %ymm8, %ymm10
	vmulps	%ymm5, %ymm8, %ymm9
	vsubps	%ymm9, %ymm10, %ymm1
	vmulps	%ymm1, %ymm0, %ymm11
	vaddps	%ymm12, %ymm11, %ymm13
	vmulps	%ymm3, %ymm13, %ymm14
	vmulps	%ymm14, %ymm14, %ymm15
	vaddps	%ymm14, %ymm14, %ymm9
	vrcpps	%ymm15, %ymm6
	vmulps	%ymm15, %ymm6, %ymm2
	vaddps	%ymm6, %ymm6, %ymm4
	vmulps	%ymm2, %ymm6, %ymm7
	vsubps	%ymm7, %ymm4, %ymm8
	vmulps	%ymm8, %ymm0, %ymm5
	vaddps	%ymm9, %ymm5, %ymm10
	vmulps	%ymm3, %ymm10, %ymm11
	vmulps	%ymm11, %ymm11, %ymm12
	vaddps	%ymm11, %ymm11, %ymm2
	vrcpps	%ymm12, %ymm1
	vmulps	%ymm12, %ymm1, %ymm13
	vaddps	%ymm1, %ymm1, %ymm15
	vmulps	%ymm13, %ymm1, %ymm14
	vsubps	%ymm14, %ymm15, %ymm6
	vmulps	%ymm6, %ymm0, %ymm7
	vaddps	%ymm2, %ymm7, %ymm4
	vmulps	%ymm3, %ymm4, %ymm8
	vmulps	%ymm8, %ymm8, %ymm5
	vaddps	%ymm8, %ymm8, %ymm14
	vrcpps	%ymm5, %ymm9
	vmulps	%ymm5, %ymm9, %ymm10
	vaddps	%ymm9, %ymm9, %ymm12
	vmulps	%ymm10, %ymm9, %ymm11
	vsubps	%ymm11, %ymm12, %ymm1
	vmulps	%ymm1, %ymm0, %ymm13
	vaddps	%ymm14, %ymm13, %ymm15
	vmulps	%ymm3, %ymm15, %ymm6
	vmulps	%ymm6, %ymm6, %ymm7
	vaddps	%ymm6, %ymm6, %ymm11
	vrcpps	%ymm7, %ymm2
	vmulps	%ymm7, %ymm2, %ymm4
	vaddps	%ymm2, %ymm2, %ymm5
	vmulps	%ymm4, %ymm2, %ymm8
	vsubps	%ymm8, %ymm5, %ymm9
	vmulps	%ymm9, %ymm0, %ymm10
	vaddps	%ymm11, %ymm10, %ymm12
	vmulps	%ymm3, %ymm12, %ymm1
	vmulps	%ymm1, %ymm1, %ymm13
	vaddps	%ymm1, %ymm1, %ymm4
	vrcpps	%ymm13, %ymm14
	vmulps	%ymm13, %ymm14, %ymm15
	vaddps	%ymm14, %ymm14, %ymm7
	vmulps	%ymm15, %ymm14, %ymm6
	vsubps	%ymm6, %ymm7, %ymm2
	vmulps	%ymm2, %ymm0, %ymm0
	vaddps	%ymm4, %ymm0, %ymm8
	vmulps	%ymm3, %ymm8, %ymm5
	vmovups	%ymm5, (%rsi,%rcx,4)
	addq	$8, %rcx
	cmpl	%ecx, %edx
	jg	.L116
	vzeroupper
.L118:
	ret
	.cfi_endproc
.LFE12773:
	.size	_Z23avx2_cube_root_templateILi16EEvPKfPfi, .-_Z23avx2_cube_root_templateILi16EEvPKfPfi
	.section	.text._Z25native_cube_root_templateILi18EEvPKfPfi,"axG",@progbits,_Z25native_cube_root_templateILi18EEvPKfPfi,comdat
	.p2align 4
	.weak	_Z25native_cube_root_templateILi18EEvPKfPfi
	.type	_Z25native_cube_root_templateILi18EEvPKfPfi, @function
_Z25native_cube_root_templateILi18EEvPKfPfi:
.LFB12778:
	.cfi_startproc
	endbr64
	testl	%edx, %edx
	jle	.L126
	movslq	%edx, %rdx
	vmovss	.LC0(%rip), %xmm3
	xorl	%r8d, %r8d
	leaq	0(,%rdx,4), %rcx
	.p2align 4,,10
	.p2align 3
.L122:
	vmovss	(%rdi,%r8), %xmm2
	movl	$18, %eax
	vmulss	%xmm3, %xmm2, %xmm6
	.p2align 4,,10
	.p2align 3
.L121:
	vmulss	%xmm6, %xmm6, %xmm1
	vaddss	%xmm6, %xmm6, %xmm0
	vdivss	%xmm1, %xmm2, %xmm4
	vaddss	%xmm0, %xmm4, %xmm5
	vmulss	%xmm3, %xmm5, %xmm6
	subl	$1, %eax
	jne	.L121
	vmovss	%xmm6, (%rsi,%r8)
	addq	$4, %r8
	cmpq	%r8, %rcx
	jne	.L122
.L126:
	ret
	.cfi_endproc
.LFE12778:
	.size	_Z25native_cube_root_templateILi18EEvPKfPfi, .-_Z25native_cube_root_templateILi18EEvPKfPfi
	.section	.text._Z22opt_cube_root_templateILi18EEvPKfPfi,"axG",@progbits,_Z22opt_cube_root_templateILi18EEvPKfPfi,comdat
	.p2align 4
	.weak	_Z22opt_cube_root_templateILi18EEvPKfPfi
	.type	_Z22opt_cube_root_templateILi18EEvPKfPfi, @function
_Z22opt_cube_root_templateILi18EEvPKfPfi:
.LFB12779:
	.cfi_startproc
	endbr64
	testl	%edx, %edx
	jle	.L142
	movslq	%edx, %rdx
	vmovss	.LC0(%rip), %xmm3
	xorl	%r8d, %r8d
	leaq	0(,%rdx,4), %rcx
	.p2align 4,,10
	.p2align 3
.L130:
	vmovss	(%rdi,%r8), %xmm2
	movl	$18, %eax
	vmulss	%xmm3, %xmm2, %xmm5
.L129:
	vmulss	%xmm5, %xmm5, %xmm1
	vaddss	%xmm5, %xmm5, %xmm0
	vdivss	%xmm1, %xmm2, %xmm4
	vaddss	%xmm0, %xmm4, %xmm5
	vmulss	%xmm3, %xmm5, %xmm6
	vmulss	%xmm6, %xmm6, %xmm7
	vaddss	%xmm6, %xmm6, %xmm9
	vdivss	%xmm7, %xmm2, %xmm8
	vaddss	%xmm9, %xmm8, %xmm10
	vmulss	%xmm3, %xmm10, %xmm11
	vmulss	%xmm11, %xmm11, %xmm12
	vaddss	%xmm11, %xmm11, %xmm14
	vdivss	%xmm12, %xmm2, %xmm13
	vaddss	%xmm14, %xmm13, %xmm15
	vmulss	%xmm3, %xmm15, %xmm4
	vmulss	%xmm4, %xmm4, %xmm1
	vaddss	%xmm4, %xmm4, %xmm0
	vdivss	%xmm1, %xmm2, %xmm5
	vaddss	%xmm0, %xmm5, %xmm6
	vmulss	%xmm3, %xmm6, %xmm7
	vmulss	%xmm7, %xmm7, %xmm8
	vaddss	%xmm7, %xmm7, %xmm10
	vdivss	%xmm8, %xmm2, %xmm9
	vaddss	%xmm10, %xmm9, %xmm11
	vmulss	%xmm3, %xmm11, %xmm12
	vmulss	%xmm12, %xmm12, %xmm13
	vaddss	%xmm12, %xmm12, %xmm15
	vdivss	%xmm13, %xmm2, %xmm14
	vaddss	%xmm15, %xmm14, %xmm4
	vmulss	%xmm3, %xmm4, %xmm1
	vmulss	%xmm1, %xmm1, %xmm5
	vaddss	%xmm1, %xmm1, %xmm6
	vdivss	%xmm5, %xmm2, %xmm0
	vaddss	%xmm6, %xmm0, %xmm7
	vmulss	%xmm3, %xmm7, %xmm8
	vmulss	%xmm8, %xmm8, %xmm9
	vaddss	%xmm8, %xmm8, %xmm11
	vdivss	%xmm9, %xmm2, %xmm10
	vaddss	%xmm11, %xmm10, %xmm12
	vmulss	%xmm3, %xmm12, %xmm13
	vmulss	%xmm13, %xmm13, %xmm14
	vaddss	%xmm13, %xmm13, %xmm4
	vdivss	%xmm14, %xmm2, %xmm15
	vaddss	%xmm4, %xmm15, %xmm1
	vmulss	%xmm3, %xmm1, %xmm5
	subl	$9, %eax
	jne	.L129
	vmovss	%xmm5, (%rsi,%r8)
	addq	$4, %r8
	cmpq	%r8, %rcx
	jne	.L130
.L142:
	ret
	.cfi_endproc
.LFE12779:
	.size	_Z22opt_cube_root_templateILi18EEvPKfPfi, .-_Z22opt_cube_root_templateILi18EEvPKfPfi
	.section	.text._Z23avx2_cube_root_templateILi18EEvPKfPfi,"axG",@progbits,_Z23avx2_cube_root_templateILi18EEvPKfPfi,comdat
	.p2align 4
	.weak	_Z23avx2_cube_root_templateILi18EEvPKfPfi
	.type	_Z23avx2_cube_root_templateILi18EEvPKfPfi, @function
_Z23avx2_cube_root_templateILi18EEvPKfPfi:
.LFB12780:
	.cfi_startproc
	endbr64
	leal	14(%rdx), %ecx
	addl	$7, %edx
	cmovns	%edx, %ecx
	andl	$-8, %ecx
	jle	.L154
	vbroadcastss	.LC0(%rip), %ymm3
	xorl	%edx, %edx
	.p2align 4,,10
	.p2align 3
.L146:
	vmovups	(%rdi,%rdx,4), %ymm2
	movl	$18, %eax
	vmulps	%ymm3, %ymm2, %ymm10
.L145:
	vmulps	%ymm10, %ymm10, %ymm4
	vaddps	%ymm10, %ymm10, %ymm0
	vrcpps	%ymm4, %ymm1
	vmulps	%ymm4, %ymm1, %ymm5
	vaddps	%ymm1, %ymm1, %ymm7
	vmulps	%ymm5, %ymm1, %ymm6
	vsubps	%ymm6, %ymm7, %ymm8
	vmulps	%ymm8, %ymm2, %ymm9
	vaddps	%ymm0, %ymm9, %ymm10
	vmulps	%ymm3, %ymm10, %ymm11
	vmulps	%ymm11, %ymm11, %ymm12
	vaddps	%ymm11, %ymm11, %ymm6
	vrcpps	%ymm12, %ymm13
	vmulps	%ymm12, %ymm13, %ymm14
	vaddps	%ymm13, %ymm13, %ymm4
	vmulps	%ymm14, %ymm13, %ymm15
	vsubps	%ymm15, %ymm4, %ymm1
	vmulps	%ymm1, %ymm2, %ymm5
	vaddps	%ymm6, %ymm5, %ymm7
	vmulps	%ymm3, %ymm7, %ymm8
	vmulps	%ymm8, %ymm8, %ymm9
	vaddps	%ymm8, %ymm8, %ymm15
	vrcpps	%ymm9, %ymm0
	vmulps	%ymm9, %ymm0, %ymm10
	vaddps	%ymm0, %ymm0, %ymm12
	vmulps	%ymm10, %ymm0, %ymm11
	vsubps	%ymm11, %ymm12, %ymm13
	vmulps	%ymm13, %ymm2, %ymm14
	vaddps	%ymm15, %ymm14, %ymm4
	vmulps	%ymm3, %ymm4, %ymm1
	vmulps	%ymm1, %ymm1, %ymm5
	vaddps	%ymm1, %ymm1, %ymm11
	vrcpps	%ymm5, %ymm6
	vmulps	%ymm5, %ymm6, %ymm7
	vaddps	%ymm6, %ymm6, %ymm9
	vmulps	%ymm7, %ymm6, %ymm8
	vsubps	%ymm8, %ymm9, %ymm0
	vmulps	%ymm0, %ymm2, %ymm10
	vaddps	%ymm11, %ymm10, %ymm12
	vmulps	%ymm3, %ymm12, %ymm13
	vmulps	%ymm13, %ymm13, %ymm14
	vaddps	%ymm13, %ymm13, %ymm8
	vrcpps	%ymm14, %ymm15
	vmulps	%ymm14, %ymm15, %ymm4
	vaddps	%ymm15, %ymm15, %ymm1
	vmulps	%ymm4, %ymm15, %ymm5
	vsubps	%ymm5, %ymm1, %ymm6
	vmulps	%ymm6, %ymm2, %ymm7
	vaddps	%ymm8, %ymm7, %ymm9
	vmulps	%ymm3, %ymm9, %ymm10
	vmulps	%ymm10, %ymm10, %ymm11
	vaddps	%ymm10, %ymm10, %ymm5
	vrcpps	%ymm11, %ymm0
	vmulps	%ymm11, %ymm0, %ymm12
	vaddps	%ymm0, %ymm0, %ymm14
	vmulps	%ymm12, %ymm0, %ymm13
	vsubps	%ymm13, %ymm14, %ymm15
	vmulps	%ymm15, %ymm2, %ymm4
	vaddps	%ymm5, %ymm4, %ymm1
	vmulps	%ymm3, %ymm1, %ymm10
	subl	$6, %eax
	jne	.L145
	vmovups	%ymm10, (%rsi,%rdx,4)
	addq	$8, %rdx
	cmpl	%edx, %ecx
	jg	.L146
	vzeroupper
.L154:
	ret
	.cfi_endproc
.LFE12780:
	.size	_Z23avx2_cube_root_templateILi18EEvPKfPfi, .-_Z23avx2_cube_root_templateILi18EEvPKfPfi
	.section	.text._Z25native_cube_root_templateILi100EEvPKfPfi,"axG",@progbits,_Z25native_cube_root_templateILi100EEvPKfPfi,comdat
	.p2align 4
	.weak	_Z25native_cube_root_templateILi100EEvPKfPfi
	.type	_Z25native_cube_root_templateILi100EEvPKfPfi, @function
_Z25native_cube_root_templateILi100EEvPKfPfi:
.LFB12785:
	.cfi_startproc
	endbr64
	movslq	%edx, %rax
	testl	%eax, %eax
	jle	.L162
	vmovss	.LC0(%rip), %xmm3
	leaq	0(,%rax,4), %rcx
	xorl	%edx, %edx
.L158:
	vmovss	(%rdi,%rdx), %xmm2
	movl	$100, %r8d
	vmulss	%xmm3, %xmm2, %xmm6
	.p2align 4,,10
	.p2align 3
.L157:
	vmulss	%xmm6, %xmm6, %xmm1
	vaddss	%xmm6, %xmm6, %xmm0
	vdivss	%xmm1, %xmm2, %xmm4
	vaddss	%xmm0, %xmm4, %xmm5
	vmulss	%xmm3, %xmm5, %xmm6
	subl	$1, %r8d
	jne	.L157
	vmovss	%xmm6, (%rsi,%rdx)
	addq	$4, %rdx
	cmpq	%rdx, %rcx
	jne	.L158
.L162:
	ret
	.cfi_endproc
.LFE12785:
	.size	_Z25native_cube_root_templateILi100EEvPKfPfi, .-_Z25native_cube_root_templateILi100EEvPKfPfi
	.section	.text._Z22opt_cube_root_templateILi100EEvPKfPfi,"axG",@progbits,_Z22opt_cube_root_templateILi100EEvPKfPfi,comdat
	.p2align 4
	.weak	_Z22opt_cube_root_templateILi100EEvPKfPfi
	.type	_Z22opt_cube_root_templateILi100EEvPKfPfi, @function
_Z22opt_cube_root_templateILi100EEvPKfPfi:
.LFB12786:
	.cfi_startproc
	endbr64
	movslq	%edx, %rax
	testl	%eax, %eax
	jle	.L179
	vmovss	.LC0(%rip), %xmm3
	leaq	0(,%rax,4), %rcx
	xorl	%edx, %edx
.L166:
	vmovss	(%rdi,%rdx), %xmm2
	movl	$100, %r8d
	vmulss	%xmm3, %xmm2, %xmm9
	.p2align 4,,10
	.p2align 3
.L165:
	vmulss	%xmm9, %xmm9, %xmm1
	vaddss	%xmm9, %xmm9, %xmm0
	vdivss	%xmm1, %xmm2, %xmm4
	vaddss	%xmm0, %xmm4, %xmm5
	vmulss	%xmm3, %xmm5, %xmm6
	vmulss	%xmm6, %xmm6, %xmm7
	vaddss	%xmm6, %xmm6, %xmm9
	vdivss	%xmm7, %xmm2, %xmm8
	vaddss	%xmm9, %xmm8, %xmm10
	vmulss	%xmm3, %xmm10, %xmm11
	vmulss	%xmm11, %xmm11, %xmm12
	vaddss	%xmm11, %xmm11, %xmm14
	vdivss	%xmm12, %xmm2, %xmm13
	vaddss	%xmm14, %xmm13, %xmm15
	vmulss	%xmm3, %xmm15, %xmm1
	vmulss	%xmm1, %xmm1, %xmm4
	vaddss	%xmm1, %xmm1, %xmm5
	vdivss	%xmm4, %xmm2, %xmm0
	vaddss	%xmm5, %xmm0, %xmm6
	vmulss	%xmm3, %xmm6, %xmm7
	vmulss	%xmm7, %xmm7, %xmm8
	vaddss	%xmm7, %xmm7, %xmm10
	vdivss	%xmm8, %xmm2, %xmm9
	vaddss	%xmm10, %xmm9, %xmm11
	vmulss	%xmm3, %xmm11, %xmm12
	vmulss	%xmm12, %xmm12, %xmm13
	vaddss	%xmm12, %xmm12, %xmm15
	vdivss	%xmm13, %xmm2, %xmm14
	vaddss	%xmm15, %xmm14, %xmm1
	vmulss	%xmm3, %xmm1, %xmm4
	vmulss	%xmm4, %xmm4, %xmm0
	vaddss	%xmm4, %xmm4, %xmm6
	vdivss	%xmm0, %xmm2, %xmm5
	vaddss	%xmm6, %xmm5, %xmm7
	vmulss	%xmm3, %xmm7, %xmm8
	vmulss	%xmm8, %xmm8, %xmm9
	vaddss	%xmm8, %xmm8, %xmm11
	vdivss	%xmm9, %xmm2, %xmm10
	vaddss	%xmm11, %xmm10, %xmm12
	vmulss	%xmm3, %xmm12, %xmm13
	vmulss	%xmm13, %xmm13, %xmm14
	vaddss	%xmm13, %xmm13, %xmm1
	vdivss	%xmm14, %xmm2, %xmm15
	vaddss	%xmm1, %xmm15, %xmm4
	vmulss	%xmm3, %xmm4, %xmm5
	vmulss	%xmm5, %xmm5, %xmm0
	vaddss	%xmm5, %xmm5, %xmm7
	vdivss	%xmm0, %xmm2, %xmm6
	vaddss	%xmm7, %xmm6, %xmm8
	vmulss	%xmm3, %xmm8, %xmm9
	subl	$10, %r8d
	jne	.L165
	vmovss	%xmm9, (%rsi,%rdx)
	addq	$4, %rdx
	cmpq	%rdx, %rcx
	jne	.L166
.L179:
	ret
	.cfi_endproc
.LFE12786:
	.size	_Z22opt_cube_root_templateILi100EEvPKfPfi, .-_Z22opt_cube_root_templateILi100EEvPKfPfi
	.section	.text._Z23avx2_cube_root_templateILi100EEvPKfPfi,"axG",@progbits,_Z23avx2_cube_root_templateILi100EEvPKfPfi,comdat
	.p2align 4
	.weak	_Z23avx2_cube_root_templateILi100EEvPKfPfi
	.type	_Z23avx2_cube_root_templateILi100EEvPKfPfi, @function
_Z23avx2_cube_root_templateILi100EEvPKfPfi:
.LFB12787:
	.cfi_startproc
	endbr64
	movl	%edx, %eax
	leal	14(%rdx), %ecx
	addl	$7, %eax
	cmovns	%eax, %ecx
	andl	$-8, %ecx
	jle	.L194
	vbroadcastss	.LC0(%rip), %ymm3
	xorl	%edx, %edx
.L183:
	vmovups	(%rdi,%rdx,4), %ymm2
	movl	$98, %r8d
	vmulps	%ymm3, %ymm2, %ymm4
	vmulps	%ymm4, %ymm4, %ymm1
	vaddps	%ymm4, %ymm4, %ymm10
	vrcpps	%ymm1, %ymm0
	vmulps	%ymm1, %ymm0, %ymm5
	vaddps	%ymm0, %ymm0, %ymm7
	vmulps	%ymm5, %ymm0, %ymm6
	vsubps	%ymm6, %ymm7, %ymm8
	vmulps	%ymm8, %ymm2, %ymm9
	vaddps	%ymm10, %ymm9, %ymm11
	vmulps	%ymm3, %ymm11, %ymm12
	vmulps	%ymm12, %ymm12, %ymm13
	vaddps	%ymm12, %ymm12, %ymm6
	vrcpps	%ymm13, %ymm14
	vmulps	%ymm13, %ymm14, %ymm15
	vaddps	%ymm14, %ymm14, %ymm1
	vmulps	%ymm15, %ymm14, %ymm4
	vsubps	%ymm4, %ymm1, %ymm0
	vmulps	%ymm0, %ymm2, %ymm5
	vaddps	%ymm6, %ymm5, %ymm7
	vmulps	%ymm3, %ymm7, %ymm0
	.p2align 4,,10
	.p2align 3
.L182:
	vmulps	%ymm0, %ymm0, %ymm8
	vaddps	%ymm0, %ymm0, %ymm15
	vrcpps	%ymm8, %ymm9
	vmulps	%ymm8, %ymm9, %ymm10
	vaddps	%ymm9, %ymm9, %ymm12
	vmulps	%ymm10, %ymm9, %ymm11
	vsubps	%ymm11, %ymm12, %ymm13
	vmulps	%ymm13, %ymm2, %ymm14
	vaddps	%ymm15, %ymm14, %ymm4
	vmulps	%ymm3, %ymm4, %ymm6
	vmulps	%ymm6, %ymm6, %ymm1
	vaddps	%ymm6, %ymm6, %ymm11
	vrcpps	%ymm1, %ymm0
	vmulps	%ymm1, %ymm0, %ymm5
	vaddps	%ymm0, %ymm0, %ymm8
	vmulps	%ymm5, %ymm0, %ymm7
	vsubps	%ymm7, %ymm8, %ymm9
	vmulps	%ymm9, %ymm2, %ymm10
	vaddps	%ymm11, %ymm10, %ymm12
	vmulps	%ymm3, %ymm12, %ymm13
	vmulps	%ymm13, %ymm13, %ymm14
	vaddps	%ymm13, %ymm13, %ymm7
	vrcpps	%ymm14, %ymm15
	vmulps	%ymm14, %ymm15, %ymm4
	vaddps	%ymm15, %ymm15, %ymm1
	vmulps	%ymm4, %ymm15, %ymm6
	vsubps	%ymm6, %ymm1, %ymm0
	vmulps	%ymm0, %ymm2, %ymm5
	vaddps	%ymm7, %ymm5, %ymm8
	vmulps	%ymm3, %ymm8, %ymm9
	vmulps	%ymm9, %ymm9, %ymm10
	vaddps	%ymm9, %ymm9, %ymm4
	vrcpps	%ymm10, %ymm11
	vmulps	%ymm10, %ymm11, %ymm12
	vaddps	%ymm11, %ymm11, %ymm14
	vmulps	%ymm12, %ymm11, %ymm13
	vsubps	%ymm13, %ymm14, %ymm15
	vmulps	%ymm15, %ymm2, %ymm6
	vaddps	%ymm4, %ymm6, %ymm1
	vmulps	%ymm3, %ymm1, %ymm7
	vmulps	%ymm7, %ymm7, %ymm5
	vaddps	%ymm7, %ymm7, %ymm13
	vrcpps	%ymm5, %ymm0
	vmulps	%ymm5, %ymm0, %ymm8
	vaddps	%ymm0, %ymm0, %ymm10
	vmulps	%ymm8, %ymm0, %ymm9
	vsubps	%ymm9, %ymm10, %ymm11
	vmulps	%ymm11, %ymm2, %ymm12
	vaddps	%ymm13, %ymm12, %ymm14
	vmulps	%ymm3, %ymm14, %ymm15
	vmulps	%ymm15, %ymm15, %ymm6
	vaddps	%ymm15, %ymm15, %ymm9
	vrcpps	%ymm6, %ymm4
	vmulps	%ymm6, %ymm4, %ymm1
	vaddps	%ymm4, %ymm4, %ymm5
	vmulps	%ymm1, %ymm4, %ymm7
	vsubps	%ymm7, %ymm5, %ymm0
	vmulps	%ymm0, %ymm2, %ymm8
	vaddps	%ymm9, %ymm8, %ymm10
	vmulps	%ymm3, %ymm10, %ymm11
	vmulps	%ymm11, %ymm11, %ymm12
	vaddps	%ymm11, %ymm11, %ymm1
	vrcpps	%ymm12, %ymm13
	vmulps	%ymm12, %ymm13, %ymm14
	vaddps	%ymm13, %ymm13, %ymm6
	vmulps	%ymm14, %ymm13, %ymm15
	vsubps	%ymm15, %ymm6, %ymm4
	vmulps	%ymm4, %ymm2, %ymm7
	vaddps	%ymm1, %ymm7, %ymm5
	vmulps	%ymm3, %ymm5, %ymm0
	subl	$7, %r8d
	jne	.L182
	vmovups	%ymm0, (%rsi,%rdx,4)
	addq	$8, %rdx
	cmpl	%edx, %ecx
	jg	.L183
	vzeroupper
.L194:
	ret
	.cfi_endproc
.LFE12787:
	.size	_Z23avx2_cube_root_templateILi100EEvPKfPfi, .-_Z23avx2_cube_root_templateILi100EEvPKfPfi
	.section	.text._Z25native_cube_root_templateILi1000EEvPKfPfi,"axG",@progbits,_Z25native_cube_root_templateILi1000EEvPKfPfi,comdat
	.p2align 4
	.weak	_Z25native_cube_root_templateILi1000EEvPKfPfi
	.type	_Z25native_cube_root_templateILi1000EEvPKfPfi, @function
_Z25native_cube_root_templateILi1000EEvPKfPfi:
.LFB12792:
	.cfi_startproc
	endbr64
	movslq	%edx, %rax
	testl	%eax, %eax
	jle	.L202
	vmovss	.LC0(%rip), %xmm3
	leaq	0(,%rax,4), %rcx
	xorl	%edx, %edx
.L198:
	vmovss	(%rdi,%rdx), %xmm2
	movl	$1000, %r8d
	vmulss	%xmm3, %xmm2, %xmm6
	.p2align 4,,10
	.p2align 3
.L197:
	vmulss	%xmm6, %xmm6, %xmm1
	vaddss	%xmm6, %xmm6, %xmm0
	vdivss	%xmm1, %xmm2, %xmm4
	vaddss	%xmm0, %xmm4, %xmm5
	vmulss	%xmm3, %xmm5, %xmm6
	subl	$1, %r8d
	jne	.L197
	vmovss	%xmm6, (%rsi,%rdx)
	addq	$4, %rdx
	cmpq	%rdx, %rcx
	jne	.L198
.L202:
	ret
	.cfi_endproc
.LFE12792:
	.size	_Z25native_cube_root_templateILi1000EEvPKfPfi, .-_Z25native_cube_root_templateILi1000EEvPKfPfi
	.section	.text._Z22opt_cube_root_templateILi1000EEvPKfPfi,"axG",@progbits,_Z22opt_cube_root_templateILi1000EEvPKfPfi,comdat
	.p2align 4
	.weak	_Z22opt_cube_root_templateILi1000EEvPKfPfi
	.type	_Z22opt_cube_root_templateILi1000EEvPKfPfi, @function
_Z22opt_cube_root_templateILi1000EEvPKfPfi:
.LFB12793:
	.cfi_startproc
	endbr64
	movslq	%edx, %rax
	testl	%eax, %eax
	jle	.L217
	vmovss	.LC0(%rip), %xmm3
	leaq	0(,%rax,4), %rcx
	xorl	%edx, %edx
.L206:
	vmovss	(%rdi,%rdx), %xmm2
	movl	$1000, %r8d
	vmulss	%xmm3, %xmm2, %xmm13
	.p2align 4,,10
	.p2align 3
.L205:
	vmulss	%xmm13, %xmm13, %xmm1
	vaddss	%xmm13, %xmm13, %xmm0
	vdivss	%xmm1, %xmm2, %xmm4
	vaddss	%xmm0, %xmm4, %xmm5
	vmulss	%xmm3, %xmm5, %xmm6
	vmulss	%xmm6, %xmm6, %xmm7
	vaddss	%xmm6, %xmm6, %xmm9
	vdivss	%xmm7, %xmm2, %xmm8
	vaddss	%xmm9, %xmm8, %xmm10
	vmulss	%xmm3, %xmm10, %xmm11
	vmulss	%xmm11, %xmm11, %xmm12
	vaddss	%xmm11, %xmm11, %xmm14
	vdivss	%xmm12, %xmm2, %xmm13
	vaddss	%xmm14, %xmm13, %xmm15
	vmulss	%xmm3, %xmm15, %xmm1
	vmulss	%xmm1, %xmm1, %xmm4
	vaddss	%xmm1, %xmm1, %xmm5
	vdivss	%xmm4, %xmm2, %xmm0
	vaddss	%xmm5, %xmm0, %xmm6
	vmulss	%xmm3, %xmm6, %xmm7
	vmulss	%xmm7, %xmm7, %xmm8
	vaddss	%xmm7, %xmm7, %xmm10
	vdivss	%xmm8, %xmm2, %xmm9
	vaddss	%xmm10, %xmm9, %xmm11
	vmulss	%xmm3, %xmm11, %xmm12
	vmulss	%xmm12, %xmm12, %xmm13
	vaddss	%xmm12, %xmm12, %xmm15
	vdivss	%xmm13, %xmm2, %xmm14
	vaddss	%xmm15, %xmm14, %xmm1
	vmulss	%xmm3, %xmm1, %xmm4
	vmulss	%xmm4, %xmm4, %xmm0
	vaddss	%xmm4, %xmm4, %xmm6
	vdivss	%xmm0, %xmm2, %xmm5
	vaddss	%xmm6, %xmm5, %xmm7
	vmulss	%xmm3, %xmm7, %xmm8
	vmulss	%xmm8, %xmm8, %xmm9
	vaddss	%xmm8, %xmm8, %xmm11
	vdivss	%xmm9, %xmm2, %xmm10
	vaddss	%xmm11, %xmm10, %xmm12
	vmulss	%xmm3, %xmm12, %xmm13
	subl	$8, %r8d
	jne	.L205
	vmovss	%xmm13, (%rsi,%rdx)
	addq	$4, %rdx
	cmpq	%rdx, %rcx
	jne	.L206
.L217:
	ret
	.cfi_endproc
.LFE12793:
	.size	_Z22opt_cube_root_templateILi1000EEvPKfPfi, .-_Z22opt_cube_root_templateILi1000EEvPKfPfi
	.section	.text._Z23avx2_cube_root_templateILi1000EEvPKfPfi,"axG",@progbits,_Z23avx2_cube_root_templateILi1000EEvPKfPfi,comdat
	.p2align 4
	.weak	_Z23avx2_cube_root_templateILi1000EEvPKfPfi
	.type	_Z23avx2_cube_root_templateILi1000EEvPKfPfi, @function
_Z23avx2_cube_root_templateILi1000EEvPKfPfi:
.LFB12794:
	.cfi_startproc
	endbr64
	movl	%edx, %eax
	leal	14(%rdx), %ecx
	addl	$7, %eax
	cmovns	%eax, %ecx
	andl	$-8, %ecx
	jle	.L231
	vbroadcastss	.LC0(%rip), %ymm3
	xorl	%edx, %edx
.L221:
	vmovups	(%rdi,%rdx,4), %ymm2
	movl	$1000, %r8d
	vmulps	%ymm3, %ymm2, %ymm0
	.p2align 4,,10
	.p2align 3
.L220:
	vmulps	%ymm0, %ymm0, %ymm4
	vaddps	%ymm0, %ymm0, %ymm0
	vrcpps	%ymm4, %ymm1
	vmulps	%ymm4, %ymm1, %ymm5
	vaddps	%ymm1, %ymm1, %ymm7
	vmulps	%ymm5, %ymm1, %ymm6
	vsubps	%ymm6, %ymm7, %ymm8
	vmulps	%ymm8, %ymm2, %ymm9
	vaddps	%ymm0, %ymm9, %ymm10
	vmulps	%ymm3, %ymm10, %ymm11
	vmulps	%ymm11, %ymm11, %ymm12
	vaddps	%ymm11, %ymm11, %ymm6
	vrcpps	%ymm12, %ymm13
	vmulps	%ymm12, %ymm13, %ymm14
	vaddps	%ymm13, %ymm13, %ymm4
	vmulps	%ymm14, %ymm13, %ymm15
	vsubps	%ymm15, %ymm4, %ymm1
	vmulps	%ymm1, %ymm2, %ymm5
	vaddps	%ymm6, %ymm5, %ymm7
	vmulps	%ymm3, %ymm7, %ymm8
	vmulps	%ymm8, %ymm8, %ymm9
	vaddps	%ymm8, %ymm8, %ymm15
	vrcpps	%ymm9, %ymm0
	vmulps	%ymm9, %ymm0, %ymm10
	vaddps	%ymm0, %ymm0, %ymm12
	vmulps	%ymm10, %ymm0, %ymm11
	vsubps	%ymm11, %ymm12, %ymm13
	vmulps	%ymm13, %ymm2, %ymm14
	vaddps	%ymm15, %ymm14, %ymm4
	vmulps	%ymm3, %ymm4, %ymm1
	vmulps	%ymm1, %ymm1, %ymm5
	vaddps	%ymm1, %ymm1, %ymm11
	vrcpps	%ymm5, %ymm6
	vmulps	%ymm5, %ymm6, %ymm7
	vaddps	%ymm6, %ymm6, %ymm9
	vmulps	%ymm7, %ymm6, %ymm8
	vsubps	%ymm8, %ymm9, %ymm0
	vmulps	%ymm0, %ymm2, %ymm10
	vaddps	%ymm11, %ymm10, %ymm12
	vmulps	%ymm3, %ymm12, %ymm13
	vmulps	%ymm13, %ymm13, %ymm14
	vaddps	%ymm13, %ymm13, %ymm8
	vrcpps	%ymm14, %ymm15
	vmulps	%ymm14, %ymm15, %ymm4
	vaddps	%ymm15, %ymm15, %ymm1
	vmulps	%ymm4, %ymm15, %ymm5
	vsubps	%ymm5, %ymm1, %ymm6
	vmulps	%ymm6, %ymm2, %ymm7
	vaddps	%ymm8, %ymm7, %ymm9
	vmulps	%ymm3, %ymm9, %ymm10
	vmulps	%ymm10, %ymm10, %ymm11
	vaddps	%ymm10, %ymm10, %ymm5
	vrcpps	%ymm11, %ymm0
	vmulps	%ymm11, %ymm0, %ymm12
	vaddps	%ymm0, %ymm0, %ymm14
	vmulps	%ymm12, %ymm0, %ymm13
	vsubps	%ymm13, %ymm14, %ymm15
	vmulps	%ymm15, %ymm2, %ymm4
	vaddps	%ymm5, %ymm4, %ymm1
	vmulps	%ymm3, %ymm1, %ymm6
	vmulps	%ymm6, %ymm6, %ymm7
	vaddps	%ymm6, %ymm6, %ymm13
	vrcpps	%ymm7, %ymm8
	vmulps	%ymm7, %ymm8, %ymm9
	vaddps	%ymm8, %ymm8, %ymm11
	vmulps	%ymm9, %ymm8, %ymm10
	vsubps	%ymm10, %ymm11, %ymm0
	vmulps	%ymm0, %ymm2, %ymm12
	vaddps	%ymm13, %ymm12, %ymm14
	vmulps	%ymm3, %ymm14, %ymm15
	vmulps	%ymm15, %ymm15, %ymm4
	vaddps	%ymm15, %ymm15, %ymm10
	vrcpps	%ymm4, %ymm5
	vmulps	%ymm4, %ymm5, %ymm1
	vaddps	%ymm5, %ymm5, %ymm7
	vmulps	%ymm1, %ymm5, %ymm6
	vsubps	%ymm6, %ymm7, %ymm8
	vmulps	%ymm8, %ymm2, %ymm9
	vaddps	%ymm10, %ymm9, %ymm11
	vmulps	%ymm3, %ymm11, %ymm0
	subl	$8, %r8d
	jne	.L220
	vmovups	%ymm0, (%rsi,%rdx,4)
	addq	$8, %rdx
	cmpl	%edx, %ecx
	jg	.L221
	vzeroupper
.L231:
	ret
	.cfi_endproc
.LFE12794:
	.size	_Z23avx2_cube_root_templateILi1000EEvPKfPfi, .-_Z23avx2_cube_root_templateILi1000EEvPKfPfi
	.section	.text._Z25native_cube_root_templateILi10000EEvPKfPfi,"axG",@progbits,_Z25native_cube_root_templateILi10000EEvPKfPfi,comdat
	.p2align 4
	.weak	_Z25native_cube_root_templateILi10000EEvPKfPfi
	.type	_Z25native_cube_root_templateILi10000EEvPKfPfi, @function
_Z25native_cube_root_templateILi10000EEvPKfPfi:
.LFB12799:
	.cfi_startproc
	endbr64
	movslq	%edx, %rax
	testl	%eax, %eax
	jle	.L239
	vmovss	.LC0(%rip), %xmm3
	leaq	0(,%rax,4), %rcx
	xorl	%edx, %edx
.L235:
	vmovss	(%rdi,%rdx), %xmm2
	movl	$10000, %r8d
	vmulss	%xmm3, %xmm2, %xmm6
	.p2align 4,,10
	.p2align 3
.L234:
	vmulss	%xmm6, %xmm6, %xmm1
	vaddss	%xmm6, %xmm6, %xmm0
	vdivss	%xmm1, %xmm2, %xmm4
	vaddss	%xmm0, %xmm4, %xmm5
	vmulss	%xmm3, %xmm5, %xmm6
	subl	$1, %r8d
	jne	.L234
	vmovss	%xmm6, (%rsi,%rdx)
	addq	$4, %rdx
	cmpq	%rdx, %rcx
	jne	.L235
.L239:
	ret
	.cfi_endproc
.LFE12799:
	.size	_Z25native_cube_root_templateILi10000EEvPKfPfi, .-_Z25native_cube_root_templateILi10000EEvPKfPfi
	.section	.text._Z22opt_cube_root_templateILi10000EEvPKfPfi,"axG",@progbits,_Z22opt_cube_root_templateILi10000EEvPKfPfi,comdat
	.p2align 4
	.weak	_Z22opt_cube_root_templateILi10000EEvPKfPfi
	.type	_Z22opt_cube_root_templateILi10000EEvPKfPfi, @function
_Z22opt_cube_root_templateILi10000EEvPKfPfi:
.LFB12800:
	.cfi_startproc
	endbr64
	movslq	%edx, %rax
	testl	%eax, %eax
	jle	.L254
	vmovss	.LC0(%rip), %xmm3
	leaq	0(,%rax,4), %rcx
	xorl	%edx, %edx
.L243:
	vmovss	(%rdi,%rdx), %xmm2
	movl	$10000, %r8d
	vmulss	%xmm3, %xmm2, %xmm13
	.p2align 4,,10
	.p2align 3
.L242:
	vmulss	%xmm13, %xmm13, %xmm1
	vaddss	%xmm13, %xmm13, %xmm0
	vdivss	%xmm1, %xmm2, %xmm4
	vaddss	%xmm0, %xmm4, %xmm5
	vmulss	%xmm3, %xmm5, %xmm6
	vmulss	%xmm6, %xmm6, %xmm7
	vaddss	%xmm6, %xmm6, %xmm9
	vdivss	%xmm7, %xmm2, %xmm8
	vaddss	%xmm9, %xmm8, %xmm10
	vmulss	%xmm3, %xmm10, %xmm11
	vmulss	%xmm11, %xmm11, %xmm12
	vaddss	%xmm11, %xmm11, %xmm14
	vdivss	%xmm12, %xmm2, %xmm13
	vaddss	%xmm14, %xmm13, %xmm15
	vmulss	%xmm3, %xmm15, %xmm1
	vmulss	%xmm1, %xmm1, %xmm4
	vaddss	%xmm1, %xmm1, %xmm5
	vdivss	%xmm4, %xmm2, %xmm0
	vaddss	%xmm5, %xmm0, %xmm6
	vmulss	%xmm3, %xmm6, %xmm7
	vmulss	%xmm7, %xmm7, %xmm8
	vaddss	%xmm7, %xmm7, %xmm10
	vdivss	%xmm8, %xmm2, %xmm9
	vaddss	%xmm10, %xmm9, %xmm11
	vmulss	%xmm3, %xmm11, %xmm12
	vmulss	%xmm12, %xmm12, %xmm13
	vaddss	%xmm12, %xmm12, %xmm15
	vdivss	%xmm13, %xmm2, %xmm14
	vaddss	%xmm15, %xmm14, %xmm1
	vmulss	%xmm3, %xmm1, %xmm4
	vmulss	%xmm4, %xmm4, %xmm0
	vaddss	%xmm4, %xmm4, %xmm6
	vdivss	%xmm0, %xmm2, %xmm5
	vaddss	%xmm6, %xmm5, %xmm7
	vmulss	%xmm3, %xmm7, %xmm8
	vmulss	%xmm8, %xmm8, %xmm9
	vaddss	%xmm8, %xmm8, %xmm11
	vdivss	%xmm9, %xmm2, %xmm10
	vaddss	%xmm11, %xmm10, %xmm12
	vmulss	%xmm3, %xmm12, %xmm13
	subl	$8, %r8d
	jne	.L242
	vmovss	%xmm13, (%rsi,%rdx)
	addq	$4, %rdx
	cmpq	%rdx, %rcx
	jne	.L243
.L254:
	ret
	.cfi_endproc
.LFE12800:
	.size	_Z22opt_cube_root_templateILi10000EEvPKfPfi, .-_Z22opt_cube_root_templateILi10000EEvPKfPfi
	.section	.text._Z23avx2_cube_root_templateILi10000EEvPKfPfi,"axG",@progbits,_Z23avx2_cube_root_templateILi10000EEvPKfPfi,comdat
	.p2align 4
	.weak	_Z23avx2_cube_root_templateILi10000EEvPKfPfi
	.type	_Z23avx2_cube_root_templateILi10000EEvPKfPfi, @function
_Z23avx2_cube_root_templateILi10000EEvPKfPfi:
.LFB12801:
	.cfi_startproc
	endbr64
	movl	%edx, %eax
	leal	14(%rdx), %ecx
	addl	$7, %eax
	cmovns	%eax, %ecx
	andl	$-8, %ecx
	jle	.L268
	vbroadcastss	.LC0(%rip), %ymm3
	xorl	%edx, %edx
.L258:
	vmovups	(%rdi,%rdx,4), %ymm2
	movl	$10000, %r8d
	vmulps	%ymm3, %ymm2, %ymm0
	.p2align 4,,10
	.p2align 3
.L257:
	vmulps	%ymm0, %ymm0, %ymm4
	vaddps	%ymm0, %ymm0, %ymm0
	vrcpps	%ymm4, %ymm1
	vmulps	%ymm4, %ymm1, %ymm5
	vaddps	%ymm1, %ymm1, %ymm7
	vmulps	%ymm5, %ymm1, %ymm6
	vsubps	%ymm6, %ymm7, %ymm8
	vmulps	%ymm8, %ymm2, %ymm9
	vaddps	%ymm0, %ymm9, %ymm10
	vmulps	%ymm3, %ymm10, %ymm11
	vmulps	%ymm11, %ymm11, %ymm12
	vaddps	%ymm11, %ymm11, %ymm6
	vrcpps	%ymm12, %ymm13
	vmulps	%ymm12, %ymm13, %ymm14
	vaddps	%ymm13, %ymm13, %ymm4
	vmulps	%ymm14, %ymm13, %ymm15
	vsubps	%ymm15, %ymm4, %ymm1
	vmulps	%ymm1, %ymm2, %ymm5
	vaddps	%ymm6, %ymm5, %ymm7
	vmulps	%ymm3, %ymm7, %ymm8
	vmulps	%ymm8, %ymm8, %ymm9
	vaddps	%ymm8, %ymm8, %ymm15
	vrcpps	%ymm9, %ymm0
	vmulps	%ymm9, %ymm0, %ymm10
	vaddps	%ymm0, %ymm0, %ymm12
	vmulps	%ymm10, %ymm0, %ymm11
	vsubps	%ymm11, %ymm12, %ymm13
	vmulps	%ymm13, %ymm2, %ymm14
	vaddps	%ymm15, %ymm14, %ymm4
	vmulps	%ymm3, %ymm4, %ymm1
	vmulps	%ymm1, %ymm1, %ymm5
	vaddps	%ymm1, %ymm1, %ymm11
	vrcpps	%ymm5, %ymm6
	vmulps	%ymm5, %ymm6, %ymm7
	vaddps	%ymm6, %ymm6, %ymm9
	vmulps	%ymm7, %ymm6, %ymm8
	vsubps	%ymm8, %ymm9, %ymm0
	vmulps	%ymm0, %ymm2, %ymm10
	vaddps	%ymm11, %ymm10, %ymm12
	vmulps	%ymm3, %ymm12, %ymm13
	vmulps	%ymm13, %ymm13, %ymm14
	vaddps	%ymm13, %ymm13, %ymm8
	vrcpps	%ymm14, %ymm15
	vmulps	%ymm14, %ymm15, %ymm4
	vaddps	%ymm15, %ymm15, %ymm1
	vmulps	%ymm4, %ymm15, %ymm5
	vsubps	%ymm5, %ymm1, %ymm6
	vmulps	%ymm6, %ymm2, %ymm7
	vaddps	%ymm8, %ymm7, %ymm9
	vmulps	%ymm3, %ymm9, %ymm10
	vmulps	%ymm10, %ymm10, %ymm11
	vaddps	%ymm10, %ymm10, %ymm5
	vrcpps	%ymm11, %ymm0
	vmulps	%ymm11, %ymm0, %ymm12
	vaddps	%ymm0, %ymm0, %ymm14
	vmulps	%ymm12, %ymm0, %ymm13
	vsubps	%ymm13, %ymm14, %ymm15
	vmulps	%ymm15, %ymm2, %ymm4
	vaddps	%ymm5, %ymm4, %ymm1
	vmulps	%ymm3, %ymm1, %ymm6
	vmulps	%ymm6, %ymm6, %ymm7
	vaddps	%ymm6, %ymm6, %ymm13
	vrcpps	%ymm7, %ymm8
	vmulps	%ymm7, %ymm8, %ymm9
	vaddps	%ymm8, %ymm8, %ymm11
	vmulps	%ymm9, %ymm8, %ymm10
	vsubps	%ymm10, %ymm11, %ymm0
	vmulps	%ymm0, %ymm2, %ymm12
	vaddps	%ymm13, %ymm12, %ymm14
	vmulps	%ymm3, %ymm14, %ymm15
	vmulps	%ymm15, %ymm15, %ymm4
	vaddps	%ymm15, %ymm15, %ymm10
	vrcpps	%ymm4, %ymm5
	vmulps	%ymm4, %ymm5, %ymm1
	vaddps	%ymm5, %ymm5, %ymm7
	vmulps	%ymm1, %ymm5, %ymm6
	vsubps	%ymm6, %ymm7, %ymm8
	vmulps	%ymm8, %ymm2, %ymm9
	vaddps	%ymm10, %ymm9, %ymm11
	vmulps	%ymm3, %ymm11, %ymm0
	subl	$8, %r8d
	jne	.L257
	vmovups	%ymm0, (%rsi,%rdx,4)
	addq	$8, %rdx
	cmpl	%edx, %ecx
	jg	.L258
	vzeroupper
.L268:
	ret
	.cfi_endproc
.LFE12801:
	.size	_Z23avx2_cube_root_templateILi10000EEvPKfPfi, .-_Z23avx2_cube_root_templateILi10000EEvPKfPfi
	.section	.text._ZNSt12format_errorD2Ev,"axG",@progbits,_ZNSt12format_errorD5Ev,comdat
	.align 2
	.p2align 4
	.weak	_ZNSt12format_errorD2Ev
	.type	_ZNSt12format_errorD2Ev, @function
_ZNSt12format_errorD2Ev:
.LFB11378:
	.cfi_startproc
	endbr64
	leaq	16+_ZTVSt12format_error(%rip), %rax
	movq	%rax, (%rdi)
	jmp	_ZNSt13runtime_errorD2Ev@PLT
	.cfi_endproc
.LFE11378:
	.size	_ZNSt12format_errorD2Ev, .-_ZNSt12format_errorD2Ev
	.weak	_ZNSt12format_errorD1Ev
	.set	_ZNSt12format_errorD1Ev,_ZNSt12format_errorD2Ev
	.section	.text._ZNSt12format_errorD0Ev,"axG",@progbits,_ZNSt12format_errorD5Ev,comdat
	.align 2
	.p2align 4
	.weak	_ZNSt12format_errorD0Ev
	.type	_ZNSt12format_errorD0Ev, @function
_ZNSt12format_errorD0Ev:
.LFB11380:
	.cfi_startproc
	endbr64
	leaq	16+_ZTVSt12format_error(%rip), %rax
	pushq	%rbx
	.cfi_def_cfa_offset 16
	.cfi_offset 3, -16
	movq	%rdi, %rbx
	movq	%rax, (%rdi)
	call	_ZNSt13runtime_errorD2Ev@PLT
	movq	%rbx, %rdi
	movl	$16, %esi
	popq	%rbx
	.cfi_def_cfa_offset 8
	jmp	_ZdlPvm@PLT
	.cfi_endproc
.LFE11380:
	.size	_ZNSt12format_errorD0Ev, .-_ZNSt12format_errorD0Ev
	.section	.text._Z39manual_avx2_parallel_cube_root_templateILi2EEvPKfPfi._omp_fn.0,"axG",@progbits,_Z39manual_avx2_parallel_cube_root_templateILi2EEvPKfPfi,comdat
	.p2align 4
	.type	_Z39manual_avx2_parallel_cube_root_templateILi2EEvPKfPfi._omp_fn.0, @function
_Z39manual_avx2_parallel_cube_root_templateILi2EEvPKfPfi._omp_fn.0:
.LFB13936:
	.cfi_startproc
	endbr64
	jmp	sched_getcpu@PLT
	.cfi_endproc
.LFE13936:
	.size	_Z39manual_avx2_parallel_cube_root_templateILi2EEvPKfPfi._omp_fn.0, .-_Z39manual_avx2_parallel_cube_root_templateILi2EEvPKfPfi._omp_fn.0
	.section	.text._Z32parallel_avx2_cube_root_templateILi2EEvPKfPfi,"axG",@progbits,_Z32parallel_avx2_cube_root_templateILi2EEvPKfPfi,comdat
	.p2align 4
	.weak	_Z32parallel_avx2_cube_root_templateILi2EEvPKfPfi
	.type	_Z32parallel_avx2_cube_root_templateILi2EEvPKfPfi, @function
_Z32parallel_avx2_cube_root_templateILi2EEvPKfPfi:
.LFB12744:
	.cfi_startproc
	endbr64
	xorl	%ecx, %ecx
	xorl	%edx, %edx
	leaq	_Z32parallel_avx2_cube_root_templateILi2EEvPKfPfi._omp_fn.0(%rip), %rdi
	xorl	%esi, %esi
	jmp	GOMP_parallel@PLT
	.cfi_endproc
.LFE12744:
	.size	_Z32parallel_avx2_cube_root_templateILi2EEvPKfPfi, .-_Z32parallel_avx2_cube_root_templateILi2EEvPKfPfi
	.section	.text._Z40dynamic_avx2_parallel_cube_root_templateILi2EEvPKfPfi,"axG",@progbits,_Z40dynamic_avx2_parallel_cube_root_templateILi2EEvPKfPfi,comdat
	.p2align 4
	.weak	_Z40dynamic_avx2_parallel_cube_root_templateILi2EEvPKfPfi
	.type	_Z40dynamic_avx2_parallel_cube_root_templateILi2EEvPKfPfi, @function
_Z40dynamic_avx2_parallel_cube_root_templateILi2EEvPKfPfi:
.LFB12743:
	.cfi_startproc
	endbr64
	xorl	%ecx, %ecx
	xorl	%edx, %edx
	leaq	_Z40dynamic_avx2_parallel_cube_root_templateILi2EEvPKfPfi._omp_fn.0(%rip), %rdi
	xorl	%esi, %esi
	jmp	GOMP_parallel@PLT
	.cfi_endproc
.LFE12743:
	.size	_Z40dynamic_avx2_parallel_cube_root_templateILi2EEvPKfPfi, .-_Z40dynamic_avx2_parallel_cube_root_templateILi2EEvPKfPfi
	.section	.text._Z27parallel_cube_root_templateILi2EEvPKfPfi,"axG",@progbits,_Z27parallel_cube_root_templateILi2EEvPKfPfi,comdat
	.p2align 4
	.weak	_Z27parallel_cube_root_templateILi2EEvPKfPfi
	.type	_Z27parallel_cube_root_templateILi2EEvPKfPfi, @function
_Z27parallel_cube_root_templateILi2EEvPKfPfi:
.LFB12742:
	.cfi_startproc
	endbr64
	xorl	%ecx, %ecx
	xorl	%edx, %edx
	leaq	_Z27parallel_cube_root_templateILi2EEvPKfPfi._omp_fn.0(%rip), %rdi
	xorl	%esi, %esi
	jmp	GOMP_parallel@PLT
	.cfi_endproc
.LFE12742:
	.size	_Z27parallel_cube_root_templateILi2EEvPKfPfi, .-_Z27parallel_cube_root_templateILi2EEvPKfPfi
	.section	.text._Z32parallel_avx2_cube_root_templateILi16EEvPKfPfi,"axG",@progbits,_Z32parallel_avx2_cube_root_templateILi16EEvPKfPfi,comdat
	.p2align 4
	.weak	_Z32parallel_avx2_cube_root_templateILi16EEvPKfPfi
	.type	_Z32parallel_avx2_cube_root_templateILi16EEvPKfPfi, @function
_Z32parallel_avx2_cube_root_templateILi16EEvPKfPfi:
.LFB12776:
	.cfi_startproc
	endbr64
	xorl	%ecx, %ecx
	xorl	%edx, %edx
	leaq	_Z32parallel_avx2_cube_root_templateILi16EEvPKfPfi._omp_fn.0(%rip), %rdi
	xorl	%esi, %esi
	jmp	GOMP_parallel@PLT
	.cfi_endproc
.LFE12776:
	.size	_Z32parallel_avx2_cube_root_templateILi16EEvPKfPfi, .-_Z32parallel_avx2_cube_root_templateILi16EEvPKfPfi
	.section	.text._Z40dynamic_avx2_parallel_cube_root_templateILi16EEvPKfPfi,"axG",@progbits,_Z40dynamic_avx2_parallel_cube_root_templateILi16EEvPKfPfi,comdat
	.p2align 4
	.weak	_Z40dynamic_avx2_parallel_cube_root_templateILi16EEvPKfPfi
	.type	_Z40dynamic_avx2_parallel_cube_root_templateILi16EEvPKfPfi, @function
_Z40dynamic_avx2_parallel_cube_root_templateILi16EEvPKfPfi:
.LFB12775:
	.cfi_startproc
	endbr64
	xorl	%ecx, %ecx
	xorl	%edx, %edx
	leaq	_Z40dynamic_avx2_parallel_cube_root_templateILi16EEvPKfPfi._omp_fn.0(%rip), %rdi
	xorl	%esi, %esi
	jmp	GOMP_parallel@PLT
	.cfi_endproc
.LFE12775:
	.size	_Z40dynamic_avx2_parallel_cube_root_templateILi16EEvPKfPfi, .-_Z40dynamic_avx2_parallel_cube_root_templateILi16EEvPKfPfi
	.section	.text._Z27parallel_cube_root_templateILi16EEvPKfPfi,"axG",@progbits,_Z27parallel_cube_root_templateILi16EEvPKfPfi,comdat
	.p2align 4
	.weak	_Z27parallel_cube_root_templateILi16EEvPKfPfi
	.type	_Z27parallel_cube_root_templateILi16EEvPKfPfi, @function
_Z27parallel_cube_root_templateILi16EEvPKfPfi:
.LFB12774:
	.cfi_startproc
	endbr64
	xorl	%ecx, %ecx
	xorl	%edx, %edx
	leaq	_Z27parallel_cube_root_templateILi16EEvPKfPfi._omp_fn.0(%rip), %rdi
	xorl	%esi, %esi
	jmp	GOMP_parallel@PLT
	.cfi_endproc
.LFE12774:
	.size	_Z27parallel_cube_root_templateILi16EEvPKfPfi, .-_Z27parallel_cube_root_templateILi16EEvPKfPfi
	.section	.text._Z32parallel_avx2_cube_root_templateILi18EEvPKfPfi,"axG",@progbits,_Z32parallel_avx2_cube_root_templateILi18EEvPKfPfi,comdat
	.p2align 4
	.weak	_Z32parallel_avx2_cube_root_templateILi18EEvPKfPfi
	.type	_Z32parallel_avx2_cube_root_templateILi18EEvPKfPfi, @function
_Z32parallel_avx2_cube_root_templateILi18EEvPKfPfi:
.LFB12783:
	.cfi_startproc
	endbr64
	xorl	%ecx, %ecx
	xorl	%edx, %edx
	leaq	_Z32parallel_avx2_cube_root_templateILi18EEvPKfPfi._omp_fn.0(%rip), %rdi
	xorl	%esi, %esi
	jmp	GOMP_parallel@PLT
	.cfi_endproc
.LFE12783:
	.size	_Z32parallel_avx2_cube_root_templateILi18EEvPKfPfi, .-_Z32parallel_avx2_cube_root_templateILi18EEvPKfPfi
	.section	.text._Z40dynamic_avx2_parallel_cube_root_templateILi18EEvPKfPfi,"axG",@progbits,_Z40dynamic_avx2_parallel_cube_root_templateILi18EEvPKfPfi,comdat
	.p2align 4
	.weak	_Z40dynamic_avx2_parallel_cube_root_templateILi18EEvPKfPfi
	.type	_Z40dynamic_avx2_parallel_cube_root_templateILi18EEvPKfPfi, @function
_Z40dynamic_avx2_parallel_cube_root_templateILi18EEvPKfPfi:
.LFB12782:
	.cfi_startproc
	endbr64
	xorl	%ecx, %ecx
	xorl	%edx, %edx
	leaq	_Z40dynamic_avx2_parallel_cube_root_templateILi18EEvPKfPfi._omp_fn.0(%rip), %rdi
	xorl	%esi, %esi
	jmp	GOMP_parallel@PLT
	.cfi_endproc
.LFE12782:
	.size	_Z40dynamic_avx2_parallel_cube_root_templateILi18EEvPKfPfi, .-_Z40dynamic_avx2_parallel_cube_root_templateILi18EEvPKfPfi
	.section	.text._Z27parallel_cube_root_templateILi18EEvPKfPfi,"axG",@progbits,_Z27parallel_cube_root_templateILi18EEvPKfPfi,comdat
	.p2align 4
	.weak	_Z27parallel_cube_root_templateILi18EEvPKfPfi
	.type	_Z27parallel_cube_root_templateILi18EEvPKfPfi, @function
_Z27parallel_cube_root_templateILi18EEvPKfPfi:
.LFB12781:
	.cfi_startproc
	endbr64
	xorl	%ecx, %ecx
	xorl	%edx, %edx
	leaq	_Z27parallel_cube_root_templateILi18EEvPKfPfi._omp_fn.0(%rip), %rdi
	xorl	%esi, %esi
	jmp	GOMP_parallel@PLT
	.cfi_endproc
.LFE12781:
	.size	_Z27parallel_cube_root_templateILi18EEvPKfPfi, .-_Z27parallel_cube_root_templateILi18EEvPKfPfi
	.section	.text._Z32parallel_avx2_cube_root_templateILi100EEvPKfPfi,"axG",@progbits,_Z32parallel_avx2_cube_root_templateILi100EEvPKfPfi,comdat
	.p2align 4
	.weak	_Z32parallel_avx2_cube_root_templateILi100EEvPKfPfi
	.type	_Z32parallel_avx2_cube_root_templateILi100EEvPKfPfi, @function
_Z32parallel_avx2_cube_root_templateILi100EEvPKfPfi:
.LFB12790:
	.cfi_startproc
	endbr64
	xorl	%ecx, %ecx
	xorl	%edx, %edx
	leaq	_Z32parallel_avx2_cube_root_templateILi100EEvPKfPfi._omp_fn.0(%rip), %rdi
	xorl	%esi, %esi
	jmp	GOMP_parallel@PLT
	.cfi_endproc
.LFE12790:
	.size	_Z32parallel_avx2_cube_root_templateILi100EEvPKfPfi, .-_Z32parallel_avx2_cube_root_templateILi100EEvPKfPfi
	.section	.text._Z40dynamic_avx2_parallel_cube_root_templateILi100EEvPKfPfi,"axG",@progbits,_Z40dynamic_avx2_parallel_cube_root_templateILi100EEvPKfPfi,comdat
	.p2align 4
	.weak	_Z40dynamic_avx2_parallel_cube_root_templateILi100EEvPKfPfi
	.type	_Z40dynamic_avx2_parallel_cube_root_templateILi100EEvPKfPfi, @function
_Z40dynamic_avx2_parallel_cube_root_templateILi100EEvPKfPfi:
.LFB12789:
	.cfi_startproc
	endbr64
	xorl	%ecx, %ecx
	xorl	%edx, %edx
	leaq	_Z40dynamic_avx2_parallel_cube_root_templateILi100EEvPKfPfi._omp_fn.0(%rip), %rdi
	xorl	%esi, %esi
	jmp	GOMP_parallel@PLT
	.cfi_endproc
.LFE12789:
	.size	_Z40dynamic_avx2_parallel_cube_root_templateILi100EEvPKfPfi, .-_Z40dynamic_avx2_parallel_cube_root_templateILi100EEvPKfPfi
	.section	.text._Z27parallel_cube_root_templateILi100EEvPKfPfi,"axG",@progbits,_Z27parallel_cube_root_templateILi100EEvPKfPfi,comdat
	.p2align 4
	.weak	_Z27parallel_cube_root_templateILi100EEvPKfPfi
	.type	_Z27parallel_cube_root_templateILi100EEvPKfPfi, @function
_Z27parallel_cube_root_templateILi100EEvPKfPfi:
.LFB12788:
	.cfi_startproc
	endbr64
	xorl	%ecx, %ecx
	xorl	%edx, %edx
	leaq	_Z27parallel_cube_root_templateILi100EEvPKfPfi._omp_fn.0(%rip), %rdi
	xorl	%esi, %esi
	jmp	GOMP_parallel@PLT
	.cfi_endproc
.LFE12788:
	.size	_Z27parallel_cube_root_templateILi100EEvPKfPfi, .-_Z27parallel_cube_root_templateILi100EEvPKfPfi
	.section	.text._Z32parallel_avx2_cube_root_templateILi1000EEvPKfPfi,"axG",@progbits,_Z32parallel_avx2_cube_root_templateILi1000EEvPKfPfi,comdat
	.p2align 4
	.weak	_Z32parallel_avx2_cube_root_templateILi1000EEvPKfPfi
	.type	_Z32parallel_avx2_cube_root_templateILi1000EEvPKfPfi, @function
_Z32parallel_avx2_cube_root_templateILi1000EEvPKfPfi:
.LFB12797:
	.cfi_startproc
	endbr64
	xorl	%ecx, %ecx
	xorl	%edx, %edx
	leaq	_Z32parallel_avx2_cube_root_templateILi1000EEvPKfPfi._omp_fn.0(%rip), %rdi
	xorl	%esi, %esi
	jmp	GOMP_parallel@PLT
	.cfi_endproc
.LFE12797:
	.size	_Z32parallel_avx2_cube_root_templateILi1000EEvPKfPfi, .-_Z32parallel_avx2_cube_root_templateILi1000EEvPKfPfi
	.section	.text._Z40dynamic_avx2_parallel_cube_root_templateILi1000EEvPKfPfi,"axG",@progbits,_Z40dynamic_avx2_parallel_cube_root_templateILi1000EEvPKfPfi,comdat
	.p2align 4
	.weak	_Z40dynamic_avx2_parallel_cube_root_templateILi1000EEvPKfPfi
	.type	_Z40dynamic_avx2_parallel_cube_root_templateILi1000EEvPKfPfi, @function
_Z40dynamic_avx2_parallel_cube_root_templateILi1000EEvPKfPfi:
.LFB12796:
	.cfi_startproc
	endbr64
	xorl	%ecx, %ecx
	xorl	%edx, %edx
	leaq	_Z40dynamic_avx2_parallel_cube_root_templateILi1000EEvPKfPfi._omp_fn.0(%rip), %rdi
	xorl	%esi, %esi
	jmp	GOMP_parallel@PLT
	.cfi_endproc
.LFE12796:
	.size	_Z40dynamic_avx2_parallel_cube_root_templateILi1000EEvPKfPfi, .-_Z40dynamic_avx2_parallel_cube_root_templateILi1000EEvPKfPfi
	.section	.text._Z27parallel_cube_root_templateILi1000EEvPKfPfi,"axG",@progbits,_Z27parallel_cube_root_templateILi1000EEvPKfPfi,comdat
	.p2align 4
	.weak	_Z27parallel_cube_root_templateILi1000EEvPKfPfi
	.type	_Z27parallel_cube_root_templateILi1000EEvPKfPfi, @function
_Z27parallel_cube_root_templateILi1000EEvPKfPfi:
.LFB12795:
	.cfi_startproc
	endbr64
	xorl	%ecx, %ecx
	xorl	%edx, %edx
	leaq	_Z27parallel_cube_root_templateILi1000EEvPKfPfi._omp_fn.0(%rip), %rdi
	xorl	%esi, %esi
	jmp	GOMP_parallel@PLT
	.cfi_endproc
.LFE12795:
	.size	_Z27parallel_cube_root_templateILi1000EEvPKfPfi, .-_Z27parallel_cube_root_templateILi1000EEvPKfPfi
	.section	.text._Z32parallel_avx2_cube_root_templateILi10000EEvPKfPfi,"axG",@progbits,_Z32parallel_avx2_cube_root_templateILi10000EEvPKfPfi,comdat
	.p2align 4
	.weak	_Z32parallel_avx2_cube_root_templateILi10000EEvPKfPfi
	.type	_Z32parallel_avx2_cube_root_templateILi10000EEvPKfPfi, @function
_Z32parallel_avx2_cube_root_templateILi10000EEvPKfPfi:
.LFB12804:
	.cfi_startproc
	endbr64
	xorl	%ecx, %ecx
	xorl	%edx, %edx
	leaq	_Z32parallel_avx2_cube_root_templateILi10000EEvPKfPfi._omp_fn.0(%rip), %rdi
	xorl	%esi, %esi
	jmp	GOMP_parallel@PLT
	.cfi_endproc
.LFE12804:
	.size	_Z32parallel_avx2_cube_root_templateILi10000EEvPKfPfi, .-_Z32parallel_avx2_cube_root_templateILi10000EEvPKfPfi
	.section	.text._Z40dynamic_avx2_parallel_cube_root_templateILi10000EEvPKfPfi,"axG",@progbits,_Z40dynamic_avx2_parallel_cube_root_templateILi10000EEvPKfPfi,comdat
	.p2align 4
	.weak	_Z40dynamic_avx2_parallel_cube_root_templateILi10000EEvPKfPfi
	.type	_Z40dynamic_avx2_parallel_cube_root_templateILi10000EEvPKfPfi, @function
_Z40dynamic_avx2_parallel_cube_root_templateILi10000EEvPKfPfi:
.LFB12803:
	.cfi_startproc
	endbr64
	xorl	%ecx, %ecx
	xorl	%edx, %edx
	leaq	_Z40dynamic_avx2_parallel_cube_root_templateILi10000EEvPKfPfi._omp_fn.0(%rip), %rdi
	xorl	%esi, %esi
	jmp	GOMP_parallel@PLT
	.cfi_endproc
.LFE12803:
	.size	_Z40dynamic_avx2_parallel_cube_root_templateILi10000EEvPKfPfi, .-_Z40dynamic_avx2_parallel_cube_root_templateILi10000EEvPKfPfi
	.section	.text._Z27parallel_cube_root_templateILi10000EEvPKfPfi,"axG",@progbits,_Z27parallel_cube_root_templateILi10000EEvPKfPfi,comdat
	.p2align 4
	.weak	_Z27parallel_cube_root_templateILi10000EEvPKfPfi
	.type	_Z27parallel_cube_root_templateILi10000EEvPKfPfi, @function
_Z27parallel_cube_root_templateILi10000EEvPKfPfi:
.LFB12802:
	.cfi_startproc
	endbr64
	xorl	%ecx, %ecx
	xorl	%edx, %edx
	leaq	_Z27parallel_cube_root_templateILi10000EEvPKfPfi._omp_fn.0(%rip), %rdi
	xorl	%esi, %esi
	jmp	GOMP_parallel@PLT
	.cfi_endproc
.LFE12802:
	.size	_Z27parallel_cube_root_templateILi10000EEvPKfPfi, .-_Z27parallel_cube_root_templateILi10000EEvPKfPfi
	.section	.rodata._Z39manual_avx2_parallel_cube_root_templateILi2EEvPKfPfi.str1.1,"aMS",@progbits,1
.LC4:
	.string	"too large residual %d\n"
	.section	.rodata._Z39manual_avx2_parallel_cube_root_templateILi2EEvPKfPfi.str1.8,"aMS",@progbits,1
	.align 8
.LC6:
	.string	"workspace_offset[32] %d != size %d\n"
	.section	.text._Z39manual_avx2_parallel_cube_root_templateILi2EEvPKfPfi,"axG",@progbits,_Z39manual_avx2_parallel_cube_root_templateILi2EEvPKfPfi,comdat
	.p2align 4
	.weak	_Z39manual_avx2_parallel_cube_root_templateILi2EEvPKfPfi
	.type	_Z39manual_avx2_parallel_cube_root_templateILi2EEvPKfPfi, @function
_Z39manual_avx2_parallel_cube_root_templateILi2EEvPKfPfi:
.LFB12745:
	.cfi_startproc
	endbr64
	pushq	%rbp
	.cfi_def_cfa_offset 16
	.cfi_offset 6, -16
	vxorps	%xmm0, %xmm0, %xmm0
	vcvtsi2sdl	%edx, %xmm0, %xmm3
	movq	%rsp, %rbp
	.cfi_def_cfa_register 6
	pushq	%r14
	pushq	%r13
	.cfi_offset 14, -24
	.cfi_offset 13, -32
	movl	%edx, %r13d
	pushq	%r12
	.cfi_offset 12, -40
	movl	%edx, %r12d
	pushq	%rbx
	andq	$-32, %rsp
	subq	$192, %rsp
	.cfi_offset 3, -48
	vmovsd	performance_cpu_weight(%rip), %xmm2
	vmovsd	efficient_cpu_weight(%rip), %xmm1
	movq	%fs:40, %rax
	movq	%rax, 184(%rsp)
	xorl	%eax, %eax
	vmulsd	.LC3(%rip), %xmm3, %xmm4
	vaddsd	%xmm1, %xmm2, %xmm5
	vdivsd	%xmm5, %xmm4, %xmm6
	vmulsd	%xmm6, %xmm2, %xmm7
	vmulsd	%xmm6, %xmm1, %xmm8
	vcvttsd2sil	%xmm7, %ebx
	vcvttsd2sil	%xmm8, %r14d
	movl	%ebx, %eax
	sall	$4, %eax
	movl	%r14d, %edx
	subl	%eax, %r13d
	sall	$4, %edx
	subl	%edx, %r13d
	cmpl	$32, %r13d
	jg	.L334
	vmovd	%ebx, %xmm9
	vmovd	%r14d, %xmm11
	movl	$0, 160(%rsp)
	vpbroadcastd	%xmm9, %ymm10
	vpbroadcastd	%xmm11, %ymm12
	vmovdqa	%ymm10, 32(%rsp)
	vmovdqa	%ymm10, 64(%rsp)
	vmovdqa	%ymm12, 96(%rsp)
	vmovdqa	%ymm12, 128(%rsp)
	testl	%r13d, %r13d
	jle	.L333
	leal	-1(%r13), %ecx
	cmpl	$6, %ecx
	jbe	.L303
.L293:
	addl	$1, %ebx
	movl	%r13d, %esi
	vmovd	%ebx, %xmm1
	shrl	$3, %esi
	vpbroadcastd	%xmm1, %ymm0
	vmovdqa	%ymm0, 32(%rsp)
	cmpl	$1, %esi
	je	.L296
	vmovdqa	%ymm0, 64(%rsp)
	cmpl	$2, %esi
	je	.L296
	addl	$1, %r14d
	vmovd	%r14d, %xmm3
	vpbroadcastd	%xmm3, %ymm4
	vmovdqa	%ymm4, 96(%rsp)
	cmpl	$3, %esi
	je	.L296
	vmovdqa	%ymm4, 128(%rsp)
.L296:
	movl	%r13d, %edi
	andl	$-8, %edi
	movl	%edi, %eax
	testb	$7, %r13b
	je	.L333
.L295:
	movl	%r13d, %r8d
	leaq	32(%rsp), %rbx
	subl	%edi, %r8d
	leal	-1(%r8), %r9d
	cmpl	$2, %r9d
	jbe	.L298
	movl	$1, %r11d
	leaq	(%rbx,%rdi,4), %r10
	movl	%r8d, %r14d
	vmovd	%r11d, %xmm5
	andl	$-4, %r14d
	vpshufd	$0, %xmm5, %xmm6
	vpaddd	(%r10), %xmm6, %xmm7
	addl	%r14d, %eax
	andl	$3, %r8d
	vmovdqa	%xmm7, (%r10)
	je	.L294
.L298:
	movslq	%eax, %rdx
	leal	1(%rax), %ecx
	addl	$1, 32(%rsp,%rdx,4)
	cmpl	%ecx, %r13d
	jle	.L294
	movslq	%ecx, %rdi
	addl	$2, %eax
	addl	$1, 32(%rsp,%rdi,4)
	cmpl	%r13d, %eax
	jge	.L294
	cltq
	addl	$1, 32(%rsp,%rax,4)
.L294:
	movl	$0, 160(%rsp)
	movl	32(%rsp), %r13d
	leaq	36(%rsp), %rax
	leaq	164(%rsp), %rsi
.L300:
	addl	(%rax), %r13d
	addq	$32, %rax
	movl	%r13d, -32(%rax)
	addl	-28(%rax), %r13d
	movl	%r13d, -28(%rax)
	addl	-24(%rax), %r13d
	movl	%r13d, -24(%rax)
	addl	-20(%rax), %r13d
	movl	%r13d, -20(%rax)
	addl	-16(%rax), %r13d
	movl	%r13d, -16(%rax)
	addl	-12(%rax), %r13d
	movl	%r13d, -12(%rax)
	addl	-8(%rax), %r13d
	movl	%r13d, -8(%rax)
	addl	-4(%rax), %r13d
	movl	%r13d, -4(%rax)
	cmpq	%rax, %rsi
	jne	.L300
	movl	160(%rsp), %edx
	cmpl	%r12d, %edx
	jne	.L335
	vzeroupper
.L301:
	xorl	%ecx, %ecx
	xorl	%edx, %edx
	leaq	24(%rsp), %rsi
	movq	%rbx, 24(%rsp)
	leaq	_Z39manual_avx2_parallel_cube_root_templateILi2EEvPKfPfi._omp_fn.0(%rip), %rdi
	call	GOMP_parallel@PLT
	movq	184(%rsp), %rax
	subq	%fs:40, %rax
	jne	.L336
	leaq	-32(%rbp), %rsp
	popq	%rbx
	popq	%r12
	popq	%r13
	popq	%r14
	popq	%rbp
	.cfi_remember_state
	.cfi_def_cfa 7, 8
	ret
	.p2align 4,,10
	.p2align 3
.L335:
	.cfi_restore_state
	movl	%r12d, %ecx
	leaq	.LC6(%rip), %rsi
	movl	$2, %edi
	xorl	%eax, %eax
	vzeroupper
	call	__printf_chk@PLT
	jmp	.L301
.L334:
	movl	%r13d, %edx
	leaq	.LC4(%rip), %rsi
	movl	$2, %edi
	xorl	%eax, %eax
	call	__printf_chk@PLT
	vmovd	%ebx, %xmm13
	vmovd	%r14d, %xmm15
	movl	$0, 160(%rsp)
	vpbroadcastd	%xmm15, %ymm2
	vpbroadcastd	%xmm13, %ymm14
	vmovdqa	%ymm14, 64(%rsp)
	vmovdqa	%ymm2, 96(%rsp)
	vmovdqa	%ymm2, 128(%rsp)
	jmp	.L293
.L333:
	leaq	32(%rsp), %rbx
	jmp	.L294
.L303:
	xorl	%edi, %edi
	xorl	%eax, %eax
	jmp	.L295
.L336:
	call	__stack_chk_fail@PLT
	.cfi_endproc
.LFE12745:
	.size	_Z39manual_avx2_parallel_cube_root_templateILi2EEvPKfPfi, .-_Z39manual_avx2_parallel_cube_root_templateILi2EEvPKfPfi
	.section	.text._Z39manual_avx2_parallel_cube_root_templateILi16EEvPKfPfi,"axG",@progbits,_Z39manual_avx2_parallel_cube_root_templateILi16EEvPKfPfi,comdat
	.p2align 4
	.weak	_Z39manual_avx2_parallel_cube_root_templateILi16EEvPKfPfi
	.type	_Z39manual_avx2_parallel_cube_root_templateILi16EEvPKfPfi, @function
_Z39manual_avx2_parallel_cube_root_templateILi16EEvPKfPfi:
.LFB12777:
	.cfi_startproc
	endbr64
	pushq	%rbp
	.cfi_def_cfa_offset 16
	.cfi_offset 6, -16
	vxorps	%xmm0, %xmm0, %xmm0
	vcvtsi2sdl	%edx, %xmm0, %xmm3
	movq	%rsp, %rbp
	.cfi_def_cfa_register 6
	pushq	%r14
	pushq	%r13
	.cfi_offset 14, -24
	.cfi_offset 13, -32
	movl	%edx, %r13d
	pushq	%r12
	.cfi_offset 12, -40
	movl	%edx, %r12d
	pushq	%rbx
	andq	$-32, %rsp
	subq	$192, %rsp
	.cfi_offset 3, -48
	vmovsd	performance_cpu_weight(%rip), %xmm2
	vmovsd	efficient_cpu_weight(%rip), %xmm1
	movq	%fs:40, %rax
	movq	%rax, 184(%rsp)
	xorl	%eax, %eax
	vmulsd	.LC3(%rip), %xmm3, %xmm4
	vaddsd	%xmm1, %xmm2, %xmm5
	vdivsd	%xmm5, %xmm4, %xmm6
	vmulsd	%xmm6, %xmm2, %xmm7
	vmulsd	%xmm6, %xmm1, %xmm8
	vcvttsd2sil	%xmm7, %ebx
	vcvttsd2sil	%xmm8, %r14d
	movl	%ebx, %eax
	sall	$4, %eax
	movl	%r14d, %edx
	subl	%eax, %r13d
	sall	$4, %edx
	subl	%edx, %r13d
	cmpl	$32, %r13d
	jg	.L380
	vmovd	%ebx, %xmm9
	vmovd	%r14d, %xmm11
	movl	$0, 160(%rsp)
	vpbroadcastd	%xmm9, %ymm10
	vpbroadcastd	%xmm11, %ymm12
	vmovdqa	%ymm10, 32(%rsp)
	vmovdqa	%ymm10, 64(%rsp)
	vmovdqa	%ymm12, 96(%rsp)
	vmovdqa	%ymm12, 128(%rsp)
	testl	%r13d, %r13d
	jle	.L379
	leal	-1(%r13), %ecx
	cmpl	$6, %ecx
	jbe	.L349
.L339:
	addl	$1, %ebx
	movl	%r13d, %esi
	vmovd	%ebx, %xmm1
	shrl	$3, %esi
	vpbroadcastd	%xmm1, %ymm0
	vmovdqa	%ymm0, 32(%rsp)
	cmpl	$1, %esi
	je	.L342
	vmovdqa	%ymm0, 64(%rsp)
	cmpl	$2, %esi
	je	.L342
	addl	$1, %r14d
	vmovd	%r14d, %xmm3
	vpbroadcastd	%xmm3, %ymm4
	vmovdqa	%ymm4, 96(%rsp)
	cmpl	$3, %esi
	je	.L342
	vmovdqa	%ymm4, 128(%rsp)
.L342:
	movl	%r13d, %edi
	andl	$-8, %edi
	movl	%edi, %eax
	testb	$7, %r13b
	je	.L379
.L341:
	movl	%r13d, %r8d
	leaq	32(%rsp), %rbx
	subl	%edi, %r8d
	leal	-1(%r8), %r9d
	cmpl	$2, %r9d
	jbe	.L344
	movl	$1, %r11d
	leaq	(%rbx,%rdi,4), %r10
	movl	%r8d, %r14d
	vmovd	%r11d, %xmm5
	andl	$-4, %r14d
	vpshufd	$0, %xmm5, %xmm6
	vpaddd	(%r10), %xmm6, %xmm7
	addl	%r14d, %eax
	andl	$3, %r8d
	vmovdqa	%xmm7, (%r10)
	je	.L340
.L344:
	movslq	%eax, %rdx
	leal	1(%rax), %ecx
	addl	$1, 32(%rsp,%rdx,4)
	cmpl	%ecx, %r13d
	jle	.L340
	movslq	%ecx, %rdi
	addl	$2, %eax
	addl	$1, 32(%rsp,%rdi,4)
	cmpl	%r13d, %eax
	jge	.L340
	cltq
	addl	$1, 32(%rsp,%rax,4)
.L340:
	movl	$0, 160(%rsp)
	movl	32(%rsp), %r13d
	leaq	36(%rsp), %rax
	leaq	164(%rsp), %rsi
.L346:
	addl	(%rax), %r13d
	addq	$32, %rax
	movl	%r13d, -32(%rax)
	addl	-28(%rax), %r13d
	movl	%r13d, -28(%rax)
	addl	-24(%rax), %r13d
	movl	%r13d, -24(%rax)
	addl	-20(%rax), %r13d
	movl	%r13d, -20(%rax)
	addl	-16(%rax), %r13d
	movl	%r13d, -16(%rax)
	addl	-12(%rax), %r13d
	movl	%r13d, -12(%rax)
	addl	-8(%rax), %r13d
	movl	%r13d, -8(%rax)
	addl	-4(%rax), %r13d
	movl	%r13d, -4(%rax)
	cmpq	%rax, %rsi
	jne	.L346
	movl	160(%rsp), %edx
	cmpl	%r12d, %edx
	jne	.L381
	vzeroupper
.L347:
	xorl	%ecx, %ecx
	xorl	%edx, %edx
	leaq	24(%rsp), %rsi
	movq	%rbx, 24(%rsp)
	leaq	_Z39manual_avx2_parallel_cube_root_templateILi16EEvPKfPfi._omp_fn.0(%rip), %rdi
	call	GOMP_parallel@PLT
	movq	184(%rsp), %rax
	subq	%fs:40, %rax
	jne	.L382
	leaq	-32(%rbp), %rsp
	popq	%rbx
	popq	%r12
	popq	%r13
	popq	%r14
	popq	%rbp
	.cfi_remember_state
	.cfi_def_cfa 7, 8
	ret
	.p2align 4,,10
	.p2align 3
.L381:
	.cfi_restore_state
	movl	%r12d, %ecx
	leaq	.LC6(%rip), %rsi
	movl	$2, %edi
	xorl	%eax, %eax
	vzeroupper
	call	__printf_chk@PLT
	jmp	.L347
.L380:
	movl	%r13d, %edx
	leaq	.LC4(%rip), %rsi
	movl	$2, %edi
	xorl	%eax, %eax
	call	__printf_chk@PLT
	vmovd	%ebx, %xmm13
	vmovd	%r14d, %xmm15
	movl	$0, 160(%rsp)
	vpbroadcastd	%xmm15, %ymm2
	vpbroadcastd	%xmm13, %ymm14
	vmovdqa	%ymm14, 64(%rsp)
	vmovdqa	%ymm2, 96(%rsp)
	vmovdqa	%ymm2, 128(%rsp)
	jmp	.L339
.L379:
	leaq	32(%rsp), %rbx
	jmp	.L340
.L349:
	xorl	%edi, %edi
	xorl	%eax, %eax
	jmp	.L341
.L382:
	call	__stack_chk_fail@PLT
	.cfi_endproc
.LFE12777:
	.size	_Z39manual_avx2_parallel_cube_root_templateILi16EEvPKfPfi, .-_Z39manual_avx2_parallel_cube_root_templateILi16EEvPKfPfi
	.section	.text._Z39manual_avx2_parallel_cube_root_templateILi18EEvPKfPfi,"axG",@progbits,_Z39manual_avx2_parallel_cube_root_templateILi18EEvPKfPfi,comdat
	.p2align 4
	.weak	_Z39manual_avx2_parallel_cube_root_templateILi18EEvPKfPfi
	.type	_Z39manual_avx2_parallel_cube_root_templateILi18EEvPKfPfi, @function
_Z39manual_avx2_parallel_cube_root_templateILi18EEvPKfPfi:
.LFB12784:
	.cfi_startproc
	endbr64
	pushq	%rbp
	.cfi_def_cfa_offset 16
	.cfi_offset 6, -16
	vxorps	%xmm0, %xmm0, %xmm0
	vcvtsi2sdl	%edx, %xmm0, %xmm3
	movq	%rsp, %rbp
	.cfi_def_cfa_register 6
	pushq	%r14
	pushq	%r13
	.cfi_offset 14, -24
	.cfi_offset 13, -32
	movl	%edx, %r13d
	pushq	%r12
	.cfi_offset 12, -40
	movl	%edx, %r12d
	pushq	%rbx
	andq	$-32, %rsp
	subq	$192, %rsp
	.cfi_offset 3, -48
	vmovsd	performance_cpu_weight(%rip), %xmm2
	vmovsd	efficient_cpu_weight(%rip), %xmm1
	movq	%fs:40, %rax
	movq	%rax, 184(%rsp)
	xorl	%eax, %eax
	vmulsd	.LC3(%rip), %xmm3, %xmm4
	vaddsd	%xmm1, %xmm2, %xmm5
	vdivsd	%xmm5, %xmm4, %xmm6
	vmulsd	%xmm6, %xmm2, %xmm7
	vmulsd	%xmm6, %xmm1, %xmm8
	vcvttsd2sil	%xmm7, %ebx
	vcvttsd2sil	%xmm8, %r14d
	movl	%ebx, %eax
	sall	$4, %eax
	movl	%r14d, %edx
	subl	%eax, %r13d
	sall	$4, %edx
	subl	%edx, %r13d
	cmpl	$32, %r13d
	jg	.L426
	vmovd	%ebx, %xmm9
	vmovd	%r14d, %xmm11
	movl	$0, 160(%rsp)
	vpbroadcastd	%xmm9, %ymm10
	vpbroadcastd	%xmm11, %ymm12
	vmovdqa	%ymm10, 32(%rsp)
	vmovdqa	%ymm10, 64(%rsp)
	vmovdqa	%ymm12, 96(%rsp)
	vmovdqa	%ymm12, 128(%rsp)
	testl	%r13d, %r13d
	jle	.L425
	leal	-1(%r13), %ecx
	cmpl	$6, %ecx
	jbe	.L395
.L385:
	addl	$1, %ebx
	movl	%r13d, %esi
	vmovd	%ebx, %xmm1
	shrl	$3, %esi
	vpbroadcastd	%xmm1, %ymm0
	vmovdqa	%ymm0, 32(%rsp)
	cmpl	$1, %esi
	je	.L388
	vmovdqa	%ymm0, 64(%rsp)
	cmpl	$2, %esi
	je	.L388
	addl	$1, %r14d
	vmovd	%r14d, %xmm3
	vpbroadcastd	%xmm3, %ymm4
	vmovdqa	%ymm4, 96(%rsp)
	cmpl	$3, %esi
	je	.L388
	vmovdqa	%ymm4, 128(%rsp)
.L388:
	movl	%r13d, %edi
	andl	$-8, %edi
	movl	%edi, %eax
	testb	$7, %r13b
	je	.L425
.L387:
	movl	%r13d, %r8d
	leaq	32(%rsp), %rbx
	subl	%edi, %r8d
	leal	-1(%r8), %r9d
	cmpl	$2, %r9d
	jbe	.L390
	movl	$1, %r11d
	leaq	(%rbx,%rdi,4), %r10
	movl	%r8d, %r14d
	vmovd	%r11d, %xmm5
	andl	$-4, %r14d
	vpshufd	$0, %xmm5, %xmm6
	vpaddd	(%r10), %xmm6, %xmm7
	addl	%r14d, %eax
	andl	$3, %r8d
	vmovdqa	%xmm7, (%r10)
	je	.L386
.L390:
	movslq	%eax, %rdx
	leal	1(%rax), %ecx
	addl	$1, 32(%rsp,%rdx,4)
	cmpl	%ecx, %r13d
	jle	.L386
	movslq	%ecx, %rdi
	addl	$2, %eax
	addl	$1, 32(%rsp,%rdi,4)
	cmpl	%r13d, %eax
	jge	.L386
	cltq
	addl	$1, 32(%rsp,%rax,4)
.L386:
	movl	$0, 160(%rsp)
	movl	32(%rsp), %r13d
	leaq	36(%rsp), %rax
	leaq	164(%rsp), %rsi
.L392:
	addl	(%rax), %r13d
	addq	$32, %rax
	movl	%r13d, -32(%rax)
	addl	-28(%rax), %r13d
	movl	%r13d, -28(%rax)
	addl	-24(%rax), %r13d
	movl	%r13d, -24(%rax)
	addl	-20(%rax), %r13d
	movl	%r13d, -20(%rax)
	addl	-16(%rax), %r13d
	movl	%r13d, -16(%rax)
	addl	-12(%rax), %r13d
	movl	%r13d, -12(%rax)
	addl	-8(%rax), %r13d
	movl	%r13d, -8(%rax)
	addl	-4(%rax), %r13d
	movl	%r13d, -4(%rax)
	cmpq	%rax, %rsi
	jne	.L392
	movl	160(%rsp), %edx
	cmpl	%r12d, %edx
	jne	.L427
	vzeroupper
.L393:
	xorl	%ecx, %ecx
	xorl	%edx, %edx
	leaq	24(%rsp), %rsi
	movq	%rbx, 24(%rsp)
	leaq	_Z39manual_avx2_parallel_cube_root_templateILi18EEvPKfPfi._omp_fn.0(%rip), %rdi
	call	GOMP_parallel@PLT
	movq	184(%rsp), %rax
	subq	%fs:40, %rax
	jne	.L428
	leaq	-32(%rbp), %rsp
	popq	%rbx
	popq	%r12
	popq	%r13
	popq	%r14
	popq	%rbp
	.cfi_remember_state
	.cfi_def_cfa 7, 8
	ret
	.p2align 4,,10
	.p2align 3
.L427:
	.cfi_restore_state
	movl	%r12d, %ecx
	leaq	.LC6(%rip), %rsi
	movl	$2, %edi
	xorl	%eax, %eax
	vzeroupper
	call	__printf_chk@PLT
	jmp	.L393
.L426:
	movl	%r13d, %edx
	leaq	.LC4(%rip), %rsi
	movl	$2, %edi
	xorl	%eax, %eax
	call	__printf_chk@PLT
	vmovd	%ebx, %xmm13
	vmovd	%r14d, %xmm15
	movl	$0, 160(%rsp)
	vpbroadcastd	%xmm15, %ymm2
	vpbroadcastd	%xmm13, %ymm14
	vmovdqa	%ymm14, 64(%rsp)
	vmovdqa	%ymm2, 96(%rsp)
	vmovdqa	%ymm2, 128(%rsp)
	jmp	.L385
.L425:
	leaq	32(%rsp), %rbx
	jmp	.L386
.L395:
	xorl	%edi, %edi
	xorl	%eax, %eax
	jmp	.L387
.L428:
	call	__stack_chk_fail@PLT
	.cfi_endproc
.LFE12784:
	.size	_Z39manual_avx2_parallel_cube_root_templateILi18EEvPKfPfi, .-_Z39manual_avx2_parallel_cube_root_templateILi18EEvPKfPfi
	.section	.text._Z39manual_avx2_parallel_cube_root_templateILi100EEvPKfPfi,"axG",@progbits,_Z39manual_avx2_parallel_cube_root_templateILi100EEvPKfPfi,comdat
	.p2align 4
	.weak	_Z39manual_avx2_parallel_cube_root_templateILi100EEvPKfPfi
	.type	_Z39manual_avx2_parallel_cube_root_templateILi100EEvPKfPfi, @function
_Z39manual_avx2_parallel_cube_root_templateILi100EEvPKfPfi:
.LFB12791:
	.cfi_startproc
	endbr64
	pushq	%rbp
	.cfi_def_cfa_offset 16
	.cfi_offset 6, -16
	vxorps	%xmm0, %xmm0, %xmm0
	vcvtsi2sdl	%edx, %xmm0, %xmm3
	movq	%rsp, %rbp
	.cfi_def_cfa_register 6
	pushq	%r14
	pushq	%r13
	.cfi_offset 14, -24
	.cfi_offset 13, -32
	movl	%edx, %r13d
	pushq	%r12
	.cfi_offset 12, -40
	movl	%edx, %r12d
	pushq	%rbx
	andq	$-32, %rsp
	subq	$192, %rsp
	.cfi_offset 3, -48
	vmovsd	performance_cpu_weight(%rip), %xmm2
	vmovsd	efficient_cpu_weight(%rip), %xmm1
	movq	%fs:40, %rax
	movq	%rax, 184(%rsp)
	xorl	%eax, %eax
	vmulsd	.LC3(%rip), %xmm3, %xmm4
	vaddsd	%xmm1, %xmm2, %xmm5
	vdivsd	%xmm5, %xmm4, %xmm6
	vmulsd	%xmm6, %xmm2, %xmm7
	vmulsd	%xmm6, %xmm1, %xmm8
	vcvttsd2sil	%xmm7, %ebx
	vcvttsd2sil	%xmm8, %r14d
	movl	%ebx, %eax
	sall	$4, %eax
	movl	%r14d, %edx
	subl	%eax, %r13d
	sall	$4, %edx
	subl	%edx, %r13d
	cmpl	$32, %r13d
	jg	.L472
	vmovd	%ebx, %xmm9
	vmovd	%r14d, %xmm11
	movl	$0, 160(%rsp)
	vpbroadcastd	%xmm9, %ymm10
	vpbroadcastd	%xmm11, %ymm12
	vmovdqa	%ymm10, 32(%rsp)
	vmovdqa	%ymm10, 64(%rsp)
	vmovdqa	%ymm12, 96(%rsp)
	vmovdqa	%ymm12, 128(%rsp)
	testl	%r13d, %r13d
	jle	.L471
	leal	-1(%r13), %ecx
	cmpl	$6, %ecx
	jbe	.L441
.L431:
	addl	$1, %ebx
	movl	%r13d, %esi
	vmovd	%ebx, %xmm1
	shrl	$3, %esi
	vpbroadcastd	%xmm1, %ymm0
	vmovdqa	%ymm0, 32(%rsp)
	cmpl	$1, %esi
	je	.L434
	vmovdqa	%ymm0, 64(%rsp)
	cmpl	$2, %esi
	je	.L434
	addl	$1, %r14d
	vmovd	%r14d, %xmm3
	vpbroadcastd	%xmm3, %ymm4
	vmovdqa	%ymm4, 96(%rsp)
	cmpl	$3, %esi
	je	.L434
	vmovdqa	%ymm4, 128(%rsp)
.L434:
	movl	%r13d, %edi
	andl	$-8, %edi
	movl	%edi, %eax
	testb	$7, %r13b
	je	.L471
.L433:
	movl	%r13d, %r8d
	leaq	32(%rsp), %rbx
	subl	%edi, %r8d
	leal	-1(%r8), %r9d
	cmpl	$2, %r9d
	jbe	.L436
	movl	$1, %r11d
	leaq	(%rbx,%rdi,4), %r10
	movl	%r8d, %r14d
	vmovd	%r11d, %xmm5
	andl	$-4, %r14d
	vpshufd	$0, %xmm5, %xmm6
	vpaddd	(%r10), %xmm6, %xmm7
	addl	%r14d, %eax
	andl	$3, %r8d
	vmovdqa	%xmm7, (%r10)
	je	.L432
.L436:
	movslq	%eax, %rdx
	leal	1(%rax), %ecx
	addl	$1, 32(%rsp,%rdx,4)
	cmpl	%ecx, %r13d
	jle	.L432
	movslq	%ecx, %rdi
	addl	$2, %eax
	addl	$1, 32(%rsp,%rdi,4)
	cmpl	%r13d, %eax
	jge	.L432
	cltq
	addl	$1, 32(%rsp,%rax,4)
.L432:
	movl	$0, 160(%rsp)
	movl	32(%rsp), %r13d
	leaq	36(%rsp), %rax
	leaq	164(%rsp), %rsi
.L438:
	addl	(%rax), %r13d
	addq	$32, %rax
	movl	%r13d, -32(%rax)
	addl	-28(%rax), %r13d
	movl	%r13d, -28(%rax)
	addl	-24(%rax), %r13d
	movl	%r13d, -24(%rax)
	addl	-20(%rax), %r13d
	movl	%r13d, -20(%rax)
	addl	-16(%rax), %r13d
	movl	%r13d, -16(%rax)
	addl	-12(%rax), %r13d
	movl	%r13d, -12(%rax)
	addl	-8(%rax), %r13d
	movl	%r13d, -8(%rax)
	addl	-4(%rax), %r13d
	movl	%r13d, -4(%rax)
	cmpq	%rax, %rsi
	jne	.L438
	movl	160(%rsp), %edx
	cmpl	%r12d, %edx
	jne	.L473
	vzeroupper
.L439:
	xorl	%ecx, %ecx
	xorl	%edx, %edx
	leaq	24(%rsp), %rsi
	movq	%rbx, 24(%rsp)
	leaq	_Z39manual_avx2_parallel_cube_root_templateILi100EEvPKfPfi._omp_fn.0(%rip), %rdi
	call	GOMP_parallel@PLT
	movq	184(%rsp), %rax
	subq	%fs:40, %rax
	jne	.L474
	leaq	-32(%rbp), %rsp
	popq	%rbx
	popq	%r12
	popq	%r13
	popq	%r14
	popq	%rbp
	.cfi_remember_state
	.cfi_def_cfa 7, 8
	ret
	.p2align 4,,10
	.p2align 3
.L473:
	.cfi_restore_state
	movl	%r12d, %ecx
	leaq	.LC6(%rip), %rsi
	movl	$2, %edi
	xorl	%eax, %eax
	vzeroupper
	call	__printf_chk@PLT
	jmp	.L439
.L472:
	movl	%r13d, %edx
	leaq	.LC4(%rip), %rsi
	movl	$2, %edi
	xorl	%eax, %eax
	call	__printf_chk@PLT
	vmovd	%ebx, %xmm13
	vmovd	%r14d, %xmm15
	movl	$0, 160(%rsp)
	vpbroadcastd	%xmm15, %ymm2
	vpbroadcastd	%xmm13, %ymm14
	vmovdqa	%ymm14, 64(%rsp)
	vmovdqa	%ymm2, 96(%rsp)
	vmovdqa	%ymm2, 128(%rsp)
	jmp	.L431
.L471:
	leaq	32(%rsp), %rbx
	jmp	.L432
.L441:
	xorl	%edi, %edi
	xorl	%eax, %eax
	jmp	.L433
.L474:
	call	__stack_chk_fail@PLT
	.cfi_endproc
.LFE12791:
	.size	_Z39manual_avx2_parallel_cube_root_templateILi100EEvPKfPfi, .-_Z39manual_avx2_parallel_cube_root_templateILi100EEvPKfPfi
	.section	.text._Z39manual_avx2_parallel_cube_root_templateILi1000EEvPKfPfi,"axG",@progbits,_Z39manual_avx2_parallel_cube_root_templateILi1000EEvPKfPfi,comdat
	.p2align 4
	.weak	_Z39manual_avx2_parallel_cube_root_templateILi1000EEvPKfPfi
	.type	_Z39manual_avx2_parallel_cube_root_templateILi1000EEvPKfPfi, @function
_Z39manual_avx2_parallel_cube_root_templateILi1000EEvPKfPfi:
.LFB12798:
	.cfi_startproc
	endbr64
	pushq	%rbp
	.cfi_def_cfa_offset 16
	.cfi_offset 6, -16
	vxorps	%xmm0, %xmm0, %xmm0
	vcvtsi2sdl	%edx, %xmm0, %xmm3
	movq	%rsp, %rbp
	.cfi_def_cfa_register 6
	pushq	%r14
	pushq	%r13
	.cfi_offset 14, -24
	.cfi_offset 13, -32
	movl	%edx, %r13d
	pushq	%r12
	.cfi_offset 12, -40
	movl	%edx, %r12d
	pushq	%rbx
	andq	$-32, %rsp
	subq	$192, %rsp
	.cfi_offset 3, -48
	vmovsd	performance_cpu_weight(%rip), %xmm2
	vmovsd	efficient_cpu_weight(%rip), %xmm1
	movq	%fs:40, %rax
	movq	%rax, 184(%rsp)
	xorl	%eax, %eax
	vmulsd	.LC3(%rip), %xmm3, %xmm4
	vaddsd	%xmm1, %xmm2, %xmm5
	vdivsd	%xmm5, %xmm4, %xmm6
	vmulsd	%xmm6, %xmm2, %xmm7
	vmulsd	%xmm6, %xmm1, %xmm8
	vcvttsd2sil	%xmm7, %ebx
	vcvttsd2sil	%xmm8, %r14d
	movl	%ebx, %eax
	sall	$4, %eax
	movl	%r14d, %edx
	subl	%eax, %r13d
	sall	$4, %edx
	subl	%edx, %r13d
	cmpl	$32, %r13d
	jg	.L518
	vmovd	%ebx, %xmm9
	vmovd	%r14d, %xmm11
	movl	$0, 160(%rsp)
	vpbroadcastd	%xmm9, %ymm10
	vpbroadcastd	%xmm11, %ymm12
	vmovdqa	%ymm10, 32(%rsp)
	vmovdqa	%ymm10, 64(%rsp)
	vmovdqa	%ymm12, 96(%rsp)
	vmovdqa	%ymm12, 128(%rsp)
	testl	%r13d, %r13d
	jle	.L517
	leal	-1(%r13), %ecx
	cmpl	$6, %ecx
	jbe	.L487
.L477:
	addl	$1, %ebx
	movl	%r13d, %esi
	vmovd	%ebx, %xmm1
	shrl	$3, %esi
	vpbroadcastd	%xmm1, %ymm0
	vmovdqa	%ymm0, 32(%rsp)
	cmpl	$1, %esi
	je	.L480
	vmovdqa	%ymm0, 64(%rsp)
	cmpl	$2, %esi
	je	.L480
	addl	$1, %r14d
	vmovd	%r14d, %xmm3
	vpbroadcastd	%xmm3, %ymm4
	vmovdqa	%ymm4, 96(%rsp)
	cmpl	$3, %esi
	je	.L480
	vmovdqa	%ymm4, 128(%rsp)
.L480:
	movl	%r13d, %edi
	andl	$-8, %edi
	movl	%edi, %eax
	testb	$7, %r13b
	je	.L517
.L479:
	movl	%r13d, %r8d
	leaq	32(%rsp), %rbx
	subl	%edi, %r8d
	leal	-1(%r8), %r9d
	cmpl	$2, %r9d
	jbe	.L482
	movl	$1, %r11d
	leaq	(%rbx,%rdi,4), %r10
	movl	%r8d, %r14d
	vmovd	%r11d, %xmm5
	andl	$-4, %r14d
	vpshufd	$0, %xmm5, %xmm6
	vpaddd	(%r10), %xmm6, %xmm7
	addl	%r14d, %eax
	andl	$3, %r8d
	vmovdqa	%xmm7, (%r10)
	je	.L478
.L482:
	movslq	%eax, %rdx
	leal	1(%rax), %ecx
	addl	$1, 32(%rsp,%rdx,4)
	cmpl	%ecx, %r13d
	jle	.L478
	movslq	%ecx, %rdi
	addl	$2, %eax
	addl	$1, 32(%rsp,%rdi,4)
	cmpl	%r13d, %eax
	jge	.L478
	cltq
	addl	$1, 32(%rsp,%rax,4)
.L478:
	movl	$0, 160(%rsp)
	movl	32(%rsp), %r13d
	leaq	36(%rsp), %rax
	leaq	164(%rsp), %rsi
.L484:
	addl	(%rax), %r13d
	addq	$32, %rax
	movl	%r13d, -32(%rax)
	addl	-28(%rax), %r13d
	movl	%r13d, -28(%rax)
	addl	-24(%rax), %r13d
	movl	%r13d, -24(%rax)
	addl	-20(%rax), %r13d
	movl	%r13d, -20(%rax)
	addl	-16(%rax), %r13d
	movl	%r13d, -16(%rax)
	addl	-12(%rax), %r13d
	movl	%r13d, -12(%rax)
	addl	-8(%rax), %r13d
	movl	%r13d, -8(%rax)
	addl	-4(%rax), %r13d
	movl	%r13d, -4(%rax)
	cmpq	%rax, %rsi
	jne	.L484
	movl	160(%rsp), %edx
	cmpl	%r12d, %edx
	jne	.L519
	vzeroupper
.L485:
	xorl	%ecx, %ecx
	xorl	%edx, %edx
	leaq	24(%rsp), %rsi
	movq	%rbx, 24(%rsp)
	leaq	_Z39manual_avx2_parallel_cube_root_templateILi1000EEvPKfPfi._omp_fn.0(%rip), %rdi
	call	GOMP_parallel@PLT
	movq	184(%rsp), %rax
	subq	%fs:40, %rax
	jne	.L520
	leaq	-32(%rbp), %rsp
	popq	%rbx
	popq	%r12
	popq	%r13
	popq	%r14
	popq	%rbp
	.cfi_remember_state
	.cfi_def_cfa 7, 8
	ret
	.p2align 4,,10
	.p2align 3
.L519:
	.cfi_restore_state
	movl	%r12d, %ecx
	leaq	.LC6(%rip), %rsi
	movl	$2, %edi
	xorl	%eax, %eax
	vzeroupper
	call	__printf_chk@PLT
	jmp	.L485
.L518:
	movl	%r13d, %edx
	leaq	.LC4(%rip), %rsi
	movl	$2, %edi
	xorl	%eax, %eax
	call	__printf_chk@PLT
	vmovd	%ebx, %xmm13
	vmovd	%r14d, %xmm15
	movl	$0, 160(%rsp)
	vpbroadcastd	%xmm15, %ymm2
	vpbroadcastd	%xmm13, %ymm14
	vmovdqa	%ymm14, 64(%rsp)
	vmovdqa	%ymm2, 96(%rsp)
	vmovdqa	%ymm2, 128(%rsp)
	jmp	.L477
.L517:
	leaq	32(%rsp), %rbx
	jmp	.L478
.L487:
	xorl	%edi, %edi
	xorl	%eax, %eax
	jmp	.L479
.L520:
	call	__stack_chk_fail@PLT
	.cfi_endproc
.LFE12798:
	.size	_Z39manual_avx2_parallel_cube_root_templateILi1000EEvPKfPfi, .-_Z39manual_avx2_parallel_cube_root_templateILi1000EEvPKfPfi
	.section	.text._Z39manual_avx2_parallel_cube_root_templateILi10000EEvPKfPfi,"axG",@progbits,_Z39manual_avx2_parallel_cube_root_templateILi10000EEvPKfPfi,comdat
	.p2align 4
	.weak	_Z39manual_avx2_parallel_cube_root_templateILi10000EEvPKfPfi
	.type	_Z39manual_avx2_parallel_cube_root_templateILi10000EEvPKfPfi, @function
_Z39manual_avx2_parallel_cube_root_templateILi10000EEvPKfPfi:
.LFB12805:
	.cfi_startproc
	endbr64
	pushq	%rbp
	.cfi_def_cfa_offset 16
	.cfi_offset 6, -16
	vxorps	%xmm0, %xmm0, %xmm0
	vcvtsi2sdl	%edx, %xmm0, %xmm3
	movq	%rsp, %rbp
	.cfi_def_cfa_register 6
	pushq	%r14
	pushq	%r13
	.cfi_offset 14, -24
	.cfi_offset 13, -32
	movl	%edx, %r13d
	pushq	%r12
	.cfi_offset 12, -40
	movl	%edx, %r12d
	pushq	%rbx
	andq	$-32, %rsp
	subq	$192, %rsp
	.cfi_offset 3, -48
	vmovsd	performance_cpu_weight(%rip), %xmm2
	vmovsd	efficient_cpu_weight(%rip), %xmm1
	movq	%fs:40, %rax
	movq	%rax, 184(%rsp)
	xorl	%eax, %eax
	vmulsd	.LC3(%rip), %xmm3, %xmm4
	vaddsd	%xmm1, %xmm2, %xmm5
	vdivsd	%xmm5, %xmm4, %xmm6
	vmulsd	%xmm6, %xmm2, %xmm7
	vmulsd	%xmm6, %xmm1, %xmm8
	vcvttsd2sil	%xmm7, %ebx
	vcvttsd2sil	%xmm8, %r14d
	movl	%ebx, %eax
	sall	$4, %eax
	movl	%r14d, %edx
	subl	%eax, %r13d
	sall	$4, %edx
	subl	%edx, %r13d
	cmpl	$32, %r13d
	jg	.L564
	vmovd	%ebx, %xmm9
	vmovd	%r14d, %xmm11
	movl	$0, 160(%rsp)
	vpbroadcastd	%xmm9, %ymm10
	vpbroadcastd	%xmm11, %ymm12
	vmovdqa	%ymm10, 32(%rsp)
	vmovdqa	%ymm10, 64(%rsp)
	vmovdqa	%ymm12, 96(%rsp)
	vmovdqa	%ymm12, 128(%rsp)
	testl	%r13d, %r13d
	jle	.L563
	leal	-1(%r13), %ecx
	cmpl	$6, %ecx
	jbe	.L533
.L523:
	addl	$1, %ebx
	movl	%r13d, %esi
	vmovd	%ebx, %xmm1
	shrl	$3, %esi
	vpbroadcastd	%xmm1, %ymm0
	vmovdqa	%ymm0, 32(%rsp)
	cmpl	$1, %esi
	je	.L526
	vmovdqa	%ymm0, 64(%rsp)
	cmpl	$2, %esi
	je	.L526
	addl	$1, %r14d
	vmovd	%r14d, %xmm3
	vpbroadcastd	%xmm3, %ymm4
	vmovdqa	%ymm4, 96(%rsp)
	cmpl	$3, %esi
	je	.L526
	vmovdqa	%ymm4, 128(%rsp)
.L526:
	movl	%r13d, %edi
	andl	$-8, %edi
	movl	%edi, %eax
	testb	$7, %r13b
	je	.L563
.L525:
	movl	%r13d, %r8d
	leaq	32(%rsp), %rbx
	subl	%edi, %r8d
	leal	-1(%r8), %r9d
	cmpl	$2, %r9d
	jbe	.L528
	movl	$1, %r11d
	leaq	(%rbx,%rdi,4), %r10
	movl	%r8d, %r14d
	vmovd	%r11d, %xmm5
	andl	$-4, %r14d
	vpshufd	$0, %xmm5, %xmm6
	vpaddd	(%r10), %xmm6, %xmm7
	addl	%r14d, %eax
	andl	$3, %r8d
	vmovdqa	%xmm7, (%r10)
	je	.L524
.L528:
	movslq	%eax, %rdx
	leal	1(%rax), %ecx
	addl	$1, 32(%rsp,%rdx,4)
	cmpl	%ecx, %r13d
	jle	.L524
	movslq	%ecx, %rdi
	addl	$2, %eax
	addl	$1, 32(%rsp,%rdi,4)
	cmpl	%r13d, %eax
	jge	.L524
	cltq
	addl	$1, 32(%rsp,%rax,4)
.L524:
	movl	$0, 160(%rsp)
	movl	32(%rsp), %r13d
	leaq	36(%rsp), %rax
	leaq	164(%rsp), %rsi
.L530:
	addl	(%rax), %r13d
	addq	$32, %rax
	movl	%r13d, -32(%rax)
	addl	-28(%rax), %r13d
	movl	%r13d, -28(%rax)
	addl	-24(%rax), %r13d
	movl	%r13d, -24(%rax)
	addl	-20(%rax), %r13d
	movl	%r13d, -20(%rax)
	addl	-16(%rax), %r13d
	movl	%r13d, -16(%rax)
	addl	-12(%rax), %r13d
	movl	%r13d, -12(%rax)
	addl	-8(%rax), %r13d
	movl	%r13d, -8(%rax)
	addl	-4(%rax), %r13d
	movl	%r13d, -4(%rax)
	cmpq	%rax, %rsi
	jne	.L530
	movl	160(%rsp), %edx
	cmpl	%r12d, %edx
	jne	.L565
	vzeroupper
.L531:
	xorl	%ecx, %ecx
	xorl	%edx, %edx
	leaq	24(%rsp), %rsi
	movq	%rbx, 24(%rsp)
	leaq	_Z39manual_avx2_parallel_cube_root_templateILi10000EEvPKfPfi._omp_fn.0(%rip), %rdi
	call	GOMP_parallel@PLT
	movq	184(%rsp), %rax
	subq	%fs:40, %rax
	jne	.L566
	leaq	-32(%rbp), %rsp
	popq	%rbx
	popq	%r12
	popq	%r13
	popq	%r14
	popq	%rbp
	.cfi_remember_state
	.cfi_def_cfa 7, 8
	ret
	.p2align 4,,10
	.p2align 3
.L565:
	.cfi_restore_state
	movl	%r12d, %ecx
	leaq	.LC6(%rip), %rsi
	movl	$2, %edi
	xorl	%eax, %eax
	vzeroupper
	call	__printf_chk@PLT
	jmp	.L531
.L564:
	movl	%r13d, %edx
	leaq	.LC4(%rip), %rsi
	movl	$2, %edi
	xorl	%eax, %eax
	call	__printf_chk@PLT
	vmovd	%ebx, %xmm13
	vmovd	%r14d, %xmm15
	movl	$0, 160(%rsp)
	vpbroadcastd	%xmm15, %ymm2
	vpbroadcastd	%xmm13, %ymm14
	vmovdqa	%ymm14, 64(%rsp)
	vmovdqa	%ymm2, 96(%rsp)
	vmovdqa	%ymm2, 128(%rsp)
	jmp	.L523
.L563:
	leaq	32(%rsp), %rbx
	jmp	.L524
.L533:
	xorl	%edi, %edi
	xorl	%eax, %eax
	jmp	.L525
.L566:
	call	__stack_chk_fail@PLT
	.cfi_endproc
.LFE12805:
	.size	_Z39manual_avx2_parallel_cube_root_templateILi10000EEvPKfPfi, .-_Z39manual_avx2_parallel_cube_root_templateILi10000EEvPKfPfi
	.section	.text._Z32parallel_avx2_cube_root_templateILi2EEvPKfPfi._omp_fn.0,"axG",@progbits,_Z32parallel_avx2_cube_root_templateILi2EEvPKfPfi,comdat
	.p2align 4
	.type	_Z32parallel_avx2_cube_root_templateILi2EEvPKfPfi._omp_fn.0, @function
_Z32parallel_avx2_cube_root_templateILi2EEvPKfPfi._omp_fn.0:
.LFB13937:
	.cfi_startproc
	endbr64
	ret
	.cfi_endproc
.LFE13937:
	.size	_Z32parallel_avx2_cube_root_templateILi2EEvPKfPfi._omp_fn.0, .-_Z32parallel_avx2_cube_root_templateILi2EEvPKfPfi._omp_fn.0
	.section	.text._Z40dynamic_avx2_parallel_cube_root_templateILi2EEvPKfPfi._omp_fn.0,"axG",@progbits,_Z40dynamic_avx2_parallel_cube_root_templateILi2EEvPKfPfi,comdat
	.p2align 4
	.type	_Z40dynamic_avx2_parallel_cube_root_templateILi2EEvPKfPfi._omp_fn.0, @function
_Z40dynamic_avx2_parallel_cube_root_templateILi2EEvPKfPfi._omp_fn.0:
.LFB13938:
	.cfi_startproc
	endbr64
	pushq	%rbp
	.cfi_def_cfa_offset 16
	.cfi_offset 6, -16
	xorl	%esi, %esi
	xorl	%edi, %edi
	movl	$1000, %ecx
	movl	$8, %edx
	movq	%rsp, %rbp
	.cfi_def_cfa_register 6
	pushq	%r12
	pushq	%rbx
	andq	$-32, %rsp
	subq	$32, %rsp
	.cfi_offset 12, -24
	.cfi_offset 3, -32
	movq	%fs:40, %rax
	movq	%rax, 24(%rsp)
	xorl	%eax, %eax
	leaq	16(%rsp), %r12
	leaq	8(%rsp), %rbx
	movq	%r12, %r9
	movq	%rbx, %r8
	call	GOMP_loop_nonmonotonic_dynamic_start@PLT
	testb	%al, %al
	je	.L569
	vbroadcastss	.LC0(%rip), %ymm2
	.p2align 4,,10
	.p2align 3
.L571:
	movslq	8(%rsp), %rsi
	xorl	%edx, %edx
	movl	16(%rsp), %edi
	vmovups	(%rdx,%rsi,4), %ymm1
	movl	%esi, %ecx
	leaq	8(%rsi), %rax
	notl	%ecx
	vmulps	%ymm2, %ymm1, %ymm3
	addl	%edi, %ecx
	shrl	$3, %ecx
	andl	$1, %ecx
	vmulps	%ymm3, %ymm3, %ymm4
	vaddps	%ymm3, %ymm3, %ymm10
	vrcpps	%ymm4, %ymm0
	vmulps	%ymm4, %ymm0, %ymm5
	vaddps	%ymm0, %ymm0, %ymm7
	vmulps	%ymm5, %ymm0, %ymm6
	vsubps	%ymm6, %ymm7, %ymm8
	vmulps	%ymm8, %ymm1, %ymm9
	vaddps	%ymm10, %ymm9, %ymm11
	vmulps	%ymm2, %ymm11, %ymm12
	vmulps	%ymm12, %ymm12, %ymm13
	vaddps	%ymm12, %ymm12, %ymm5
	vrcpps	%ymm13, %ymm14
	vmulps	%ymm13, %ymm14, %ymm15
	vaddps	%ymm14, %ymm14, %ymm3
	vmulps	%ymm15, %ymm14, %ymm4
	vsubps	%ymm4, %ymm3, %ymm0
	vmulps	%ymm0, %ymm1, %ymm1
	vaddps	%ymm5, %ymm1, %ymm6
	vmulps	%ymm2, %ymm6, %ymm7
	vmovups	%ymm7, 0(,%rsi,4)
	cmpl	%eax, %edi
	jle	.L584
	testl	%ecx, %ecx
	je	.L570
	xorl	%r8d, %r8d
	vmovups	(%r8,%rax,4), %ymm8
	vmulps	%ymm2, %ymm8, %ymm9
	vmulps	%ymm9, %ymm9, %ymm10
	vaddps	%ymm9, %ymm9, %ymm3
	vrcpps	%ymm10, %ymm11
	vmulps	%ymm10, %ymm11, %ymm12
	vaddps	%ymm11, %ymm11, %ymm14
	vmulps	%ymm12, %ymm11, %ymm13
	vsubps	%ymm13, %ymm14, %ymm15
	vmulps	%ymm15, %ymm8, %ymm4
	vaddps	%ymm3, %ymm4, %ymm0
	vmulps	%ymm2, %ymm0, %ymm5
	vmulps	%ymm5, %ymm5, %ymm1
	vaddps	%ymm5, %ymm5, %ymm12
	vrcpps	%ymm1, %ymm6
	vmulps	%ymm1, %ymm6, %ymm7
	vaddps	%ymm6, %ymm6, %ymm10
	vmulps	%ymm7, %ymm6, %ymm9
	vsubps	%ymm9, %ymm10, %ymm11
	vmulps	%ymm11, %ymm8, %ymm8
	vaddps	%ymm12, %ymm8, %ymm13
	vmulps	%ymm2, %ymm13, %ymm14
	vmovups	%ymm14, 0(,%rax,4)
	leaq	16(%rsi), %rax
	cmpl	%eax, %edi
	jle	.L584
	.p2align 4,,10
	.p2align 3
.L570:
	xorl	%r9d, %r9d
	leaq	8(%rax), %r11
	xorl	%r10d, %r10d
	vmovups	(%r9,%rax,4), %ymm15
	vmulps	%ymm2, %ymm15, %ymm3
	vmulps	%ymm3, %ymm3, %ymm4
	vaddps	%ymm3, %ymm3, %ymm10
	vrcpps	%ymm4, %ymm0
	vmulps	%ymm4, %ymm0, %ymm5
	vaddps	%ymm0, %ymm0, %ymm6
	vmulps	%ymm5, %ymm0, %ymm1
	vsubps	%ymm1, %ymm6, %ymm7
	vmulps	%ymm7, %ymm15, %ymm9
	vmovups	(%r9,%r11,4), %ymm7
	vaddps	%ymm10, %ymm9, %ymm11
	vmulps	%ymm2, %ymm7, %ymm9
	vmulps	%ymm2, %ymm11, %ymm8
	vmulps	%ymm9, %ymm9, %ymm10
	vmulps	%ymm8, %ymm8, %ymm12
	vaddps	%ymm8, %ymm8, %ymm5
	vrcpps	%ymm10, %ymm11
	vrcpps	%ymm12, %ymm13
	vmulps	%ymm10, %ymm11, %ymm8
	vmulps	%ymm12, %ymm13, %ymm14
	vaddps	%ymm13, %ymm13, %ymm3
	vmulps	%ymm8, %ymm11, %ymm12
	vmulps	%ymm14, %ymm13, %ymm4
	vaddps	%ymm11, %ymm11, %ymm13
	vsubps	%ymm12, %ymm13, %ymm14
	vsubps	%ymm4, %ymm3, %ymm0
	vaddps	%ymm9, %ymm9, %ymm3
	vmulps	%ymm14, %ymm7, %ymm4
	vmulps	%ymm0, %ymm15, %ymm15
	vaddps	%ymm3, %ymm4, %ymm0
	vaddps	%ymm5, %ymm15, %ymm1
	vmulps	%ymm2, %ymm0, %ymm15
	vmulps	%ymm2, %ymm1, %ymm6
	vmulps	%ymm15, %ymm15, %ymm5
	vaddps	%ymm15, %ymm15, %ymm8
	vmovups	%ymm6, (%r10,%rax,4)
	addq	$16, %rax
	vrcpps	%ymm5, %ymm1
	vmulps	%ymm5, %ymm1, %ymm6
	vaddps	%ymm1, %ymm1, %ymm10
	vmulps	%ymm6, %ymm1, %ymm9
	vsubps	%ymm9, %ymm10, %ymm11
	vmulps	%ymm11, %ymm7, %ymm7
	vaddps	%ymm8, %ymm7, %ymm12
	vmulps	%ymm2, %ymm12, %ymm13
	vmovups	%ymm13, (%r10,%r11,4)
	cmpl	%eax, %edi
	jg	.L570
.L584:
	movq	%r12, %rsi
	movq	%rbx, %rdi
	vzeroupper
	call	GOMP_loop_nonmonotonic_dynamic_next@PLT
	vmovaps	.LC1(%rip), %ymm2
	testb	%al, %al
	jne	.L571
	vzeroupper
.L569:
	call	GOMP_loop_end_nowait@PLT
	movq	24(%rsp), %rax
	subq	%fs:40, %rax
	jne	.L587
	leaq	-16(%rbp), %rsp
	popq	%rbx
	popq	%r12
	popq	%rbp
	.cfi_remember_state
	.cfi_def_cfa 7, 8
	ret
.L587:
	.cfi_restore_state
	call	__stack_chk_fail@PLT
	.cfi_endproc
.LFE13938:
	.size	_Z40dynamic_avx2_parallel_cube_root_templateILi2EEvPKfPfi._omp_fn.0, .-_Z40dynamic_avx2_parallel_cube_root_templateILi2EEvPKfPfi._omp_fn.0
	.section	.text._Z40dynamic_avx2_parallel_cube_root_templateILi16EEvPKfPfi._omp_fn.0,"axG",@progbits,_Z40dynamic_avx2_parallel_cube_root_templateILi16EEvPKfPfi,comdat
	.p2align 4
	.type	_Z40dynamic_avx2_parallel_cube_root_templateILi16EEvPKfPfi._omp_fn.0, @function
_Z40dynamic_avx2_parallel_cube_root_templateILi16EEvPKfPfi._omp_fn.0:
.LFB13942:
	.cfi_startproc
	endbr64
	pushq	%rbp
	.cfi_def_cfa_offset 16
	.cfi_offset 6, -16
	xorl	%esi, %esi
	xorl	%edi, %edi
	movl	$1000, %ecx
	movl	$8, %edx
	movq	%rsp, %rbp
	.cfi_def_cfa_register 6
	pushq	%r12
	pushq	%rbx
	andq	$-32, %rsp
	subq	$32, %rsp
	.cfi_offset 12, -24
	.cfi_offset 3, -32
	movq	%fs:40, %rax
	movq	%rax, 24(%rsp)
	xorl	%eax, %eax
	leaq	16(%rsp), %r12
	leaq	8(%rsp), %rbx
	movq	%r12, %r9
	movq	%rbx, %r8
	call	GOMP_loop_nonmonotonic_dynamic_start@PLT
	testb	%al, %al
	je	.L589
	vbroadcastss	.LC0(%rip), %ymm3
.L591:
	movl	16(%rsp), %edx
	movslq	8(%rsp), %rax
	.p2align 4,,10
	.p2align 3
.L590:
	vmovups	0(,%rax,4), %ymm0
	vmulps	%ymm3, %ymm0, %ymm2
	vmulps	%ymm2, %ymm2, %ymm4
	vaddps	%ymm2, %ymm2, %ymm10
	vrcpps	%ymm4, %ymm1
	vmulps	%ymm4, %ymm1, %ymm5
	vaddps	%ymm1, %ymm1, %ymm7
	vmulps	%ymm5, %ymm1, %ymm6
	vsubps	%ymm6, %ymm7, %ymm8
	vmulps	%ymm8, %ymm0, %ymm9
	vaddps	%ymm10, %ymm9, %ymm11
	vmulps	%ymm3, %ymm11, %ymm12
	vmulps	%ymm12, %ymm12, %ymm13
	vaddps	%ymm12, %ymm12, %ymm6
	vrcpps	%ymm13, %ymm14
	vmulps	%ymm13, %ymm14, %ymm15
	vaddps	%ymm14, %ymm14, %ymm2
	vmulps	%ymm15, %ymm14, %ymm4
	vsubps	%ymm4, %ymm2, %ymm1
	vmulps	%ymm1, %ymm0, %ymm5
	vaddps	%ymm6, %ymm5, %ymm7
	vmulps	%ymm3, %ymm7, %ymm8
	vmulps	%ymm8, %ymm8, %ymm9
	vaddps	%ymm8, %ymm8, %ymm4
	vrcpps	%ymm9, %ymm10
	vmulps	%ymm9, %ymm10, %ymm11
	vaddps	%ymm10, %ymm10, %ymm13
	vmulps	%ymm11, %ymm10, %ymm12
	vsubps	%ymm12, %ymm13, %ymm14
	vmulps	%ymm14, %ymm0, %ymm15
	vaddps	%ymm4, %ymm15, %ymm2
	vmulps	%ymm3, %ymm2, %ymm6
	vmulps	%ymm6, %ymm6, %ymm5
	vaddps	%ymm6, %ymm6, %ymm12
	vrcpps	%ymm5, %ymm1
	vmulps	%ymm5, %ymm1, %ymm7
	vaddps	%ymm1, %ymm1, %ymm9
	vmulps	%ymm7, %ymm1, %ymm8
	vsubps	%ymm8, %ymm9, %ymm10
	vmulps	%ymm10, %ymm0, %ymm11
	vaddps	%ymm12, %ymm11, %ymm13
	vmulps	%ymm3, %ymm13, %ymm14
	vmulps	%ymm14, %ymm14, %ymm15
	vaddps	%ymm14, %ymm14, %ymm8
	vrcpps	%ymm15, %ymm2
	vmulps	%ymm15, %ymm2, %ymm4
	vaddps	%ymm2, %ymm2, %ymm5
	vmulps	%ymm4, %ymm2, %ymm6
	vsubps	%ymm6, %ymm5, %ymm1
	vmulps	%ymm1, %ymm0, %ymm7
	vaddps	%ymm8, %ymm7, %ymm9
	vmulps	%ymm3, %ymm9, %ymm10
	vmulps	%ymm10, %ymm10, %ymm11
	vaddps	%ymm10, %ymm10, %ymm4
	vrcpps	%ymm11, %ymm12
	vmulps	%ymm11, %ymm12, %ymm13
	vaddps	%ymm12, %ymm12, %ymm15
	vmulps	%ymm13, %ymm12, %ymm14
	vsubps	%ymm14, %ymm15, %ymm2
	vmulps	%ymm2, %ymm0, %ymm6
	vaddps	%ymm4, %ymm6, %ymm5
	vmulps	%ymm3, %ymm5, %ymm7
	vmulps	%ymm7, %ymm7, %ymm8
	vaddps	%ymm7, %ymm7, %ymm14
	vrcpps	%ymm8, %ymm1
	vmulps	%ymm8, %ymm1, %ymm9
	vaddps	%ymm1, %ymm1, %ymm11
	vmulps	%ymm9, %ymm1, %ymm10
	vsubps	%ymm10, %ymm11, %ymm12
	vmulps	%ymm12, %ymm0, %ymm13
	vaddps	%ymm14, %ymm13, %ymm15
	vmulps	%ymm3, %ymm15, %ymm6
	vmulps	%ymm6, %ymm6, %ymm2
	vaddps	%ymm6, %ymm6, %ymm10
	vrcpps	%ymm2, %ymm4
	vmulps	%ymm2, %ymm4, %ymm5
	vaddps	%ymm4, %ymm4, %ymm8
	vmulps	%ymm5, %ymm4, %ymm7
	vsubps	%ymm7, %ymm8, %ymm1
	vmulps	%ymm1, %ymm0, %ymm9
	vaddps	%ymm10, %ymm9, %ymm11
	vmulps	%ymm3, %ymm11, %ymm12
	vmulps	%ymm12, %ymm12, %ymm13
	vaddps	%ymm12, %ymm12, %ymm7
	vrcpps	%ymm13, %ymm14
	vmulps	%ymm13, %ymm14, %ymm15
	vaddps	%ymm14, %ymm14, %ymm2
	vmulps	%ymm15, %ymm14, %ymm6
	vsubps	%ymm6, %ymm2, %ymm4
	vmulps	%ymm4, %ymm0, %ymm5
	vaddps	%ymm7, %ymm5, %ymm8
	vmulps	%ymm3, %ymm8, %ymm9
	vmulps	%ymm9, %ymm9, %ymm10
	vaddps	%ymm9, %ymm9, %ymm6
	vrcpps	%ymm10, %ymm1
	vmulps	%ymm10, %ymm1, %ymm11
	vaddps	%ymm1, %ymm1, %ymm13
	vmulps	%ymm11, %ymm1, %ymm12
	vsubps	%ymm12, %ymm13, %ymm14
	vmulps	%ymm14, %ymm0, %ymm15
	vaddps	%ymm6, %ymm15, %ymm2
	vmulps	%ymm3, %ymm2, %ymm7
	vmulps	%ymm7, %ymm7, %ymm4
	vaddps	%ymm7, %ymm7, %ymm12
	vrcpps	%ymm4, %ymm8
	vmulps	%ymm4, %ymm8, %ymm5
	vaddps	%ymm8, %ymm8, %ymm10
	vmulps	%ymm5, %ymm8, %ymm9
	vsubps	%ymm9, %ymm10, %ymm1
	vmulps	%ymm1, %ymm0, %ymm11
	vaddps	%ymm12, %ymm11, %ymm13
	vmulps	%ymm3, %ymm13, %ymm14
	vmulps	%ymm14, %ymm14, %ymm15
	vaddps	%ymm14, %ymm14, %ymm9
	vrcpps	%ymm15, %ymm6
	vmulps	%ymm15, %ymm6, %ymm2
	vaddps	%ymm6, %ymm6, %ymm4
	vmulps	%ymm2, %ymm6, %ymm7
	vsubps	%ymm7, %ymm4, %ymm8
	vmulps	%ymm8, %ymm0, %ymm5
	vaddps	%ymm9, %ymm5, %ymm10
	vmulps	%ymm3, %ymm10, %ymm11
	vmulps	%ymm11, %ymm11, %ymm12
	vaddps	%ymm11, %ymm11, %ymm2
	vrcpps	%ymm12, %ymm1
	vmulps	%ymm12, %ymm1, %ymm13
	vaddps	%ymm1, %ymm1, %ymm15
	vmulps	%ymm13, %ymm1, %ymm14
	vsubps	%ymm14, %ymm15, %ymm6
	vmulps	%ymm6, %ymm0, %ymm7
	vaddps	%ymm2, %ymm7, %ymm4
	vmulps	%ymm3, %ymm4, %ymm8
	vmulps	%ymm8, %ymm8, %ymm5
	vaddps	%ymm8, %ymm8, %ymm14
	vrcpps	%ymm5, %ymm9
	vmulps	%ymm5, %ymm9, %ymm10
	vaddps	%ymm9, %ymm9, %ymm12
	vmulps	%ymm10, %ymm9, %ymm11
	vsubps	%ymm11, %ymm12, %ymm1
	vmulps	%ymm1, %ymm0, %ymm13
	vaddps	%ymm14, %ymm13, %ymm15
	vmulps	%ymm3, %ymm15, %ymm6
	vmulps	%ymm6, %ymm6, %ymm7
	vaddps	%ymm6, %ymm6, %ymm11
	vrcpps	%ymm7, %ymm2
	vmulps	%ymm7, %ymm2, %ymm4
	vaddps	%ymm2, %ymm2, %ymm5
	vmulps	%ymm4, %ymm2, %ymm8
	vsubps	%ymm8, %ymm5, %ymm9
	vmulps	%ymm9, %ymm0, %ymm10
	vaddps	%ymm11, %ymm10, %ymm12
	vmulps	%ymm3, %ymm12, %ymm1
	vmulps	%ymm1, %ymm1, %ymm13
	vaddps	%ymm1, %ymm1, %ymm4
	vrcpps	%ymm13, %ymm14
	vmulps	%ymm13, %ymm14, %ymm15
	vaddps	%ymm14, %ymm14, %ymm7
	vmulps	%ymm15, %ymm14, %ymm6
	vsubps	%ymm6, %ymm7, %ymm2
	vmulps	%ymm2, %ymm0, %ymm0
	vaddps	%ymm4, %ymm0, %ymm8
	vmulps	%ymm3, %ymm8, %ymm5
	vmovups	%ymm5, 0(,%rax,4)
	addq	$8, %rax
	cmpl	%eax, %edx
	jg	.L590
	movq	%r12, %rsi
	movq	%rbx, %rdi
	vzeroupper
	call	GOMP_loop_nonmonotonic_dynamic_next@PLT
	vmovaps	.LC1(%rip), %ymm3
	testb	%al, %al
	jne	.L591
	vzeroupper
.L589:
	call	GOMP_loop_end_nowait@PLT
	movq	24(%rsp), %rax
	subq	%fs:40, %rax
	jne	.L600
	leaq	-16(%rbp), %rsp
	popq	%rbx
	popq	%r12
	popq	%rbp
	.cfi_remember_state
	.cfi_def_cfa 7, 8
	ret
.L600:
	.cfi_restore_state
	call	__stack_chk_fail@PLT
	.cfi_endproc
.LFE13942:
	.size	_Z40dynamic_avx2_parallel_cube_root_templateILi16EEvPKfPfi._omp_fn.0, .-_Z40dynamic_avx2_parallel_cube_root_templateILi16EEvPKfPfi._omp_fn.0
	.section	.text._Z40dynamic_avx2_parallel_cube_root_templateILi18EEvPKfPfi._omp_fn.0,"axG",@progbits,_Z40dynamic_avx2_parallel_cube_root_templateILi18EEvPKfPfi,comdat
	.p2align 4
	.type	_Z40dynamic_avx2_parallel_cube_root_templateILi18EEvPKfPfi._omp_fn.0, @function
_Z40dynamic_avx2_parallel_cube_root_templateILi18EEvPKfPfi._omp_fn.0:
.LFB13946:
	.cfi_startproc
	endbr64
	pushq	%rbp
	.cfi_def_cfa_offset 16
	.cfi_offset 6, -16
	xorl	%esi, %esi
	xorl	%edi, %edi
	movl	$1000, %ecx
	movl	$8, %edx
	movq	%rsp, %rbp
	.cfi_def_cfa_register 6
	pushq	%r12
	pushq	%rbx
	andq	$-32, %rsp
	subq	$32, %rsp
	.cfi_offset 12, -24
	.cfi_offset 3, -32
	movq	%fs:40, %rax
	movq	%rax, 24(%rsp)
	xorl	%eax, %eax
	leaq	16(%rsp), %r12
	leaq	8(%rsp), %rbx
	movq	%r12, %r9
	movq	%rbx, %r8
	call	GOMP_loop_nonmonotonic_dynamic_start@PLT
	testb	%al, %al
	je	.L602
	vbroadcastss	.LC0(%rip), %ymm3
.L605:
	movl	16(%rsp), %ecx
	movslq	8(%rsp), %rdx
	.p2align 4,,10
	.p2align 3
.L604:
	vmovups	0(,%rdx,4), %ymm2
	movl	$18, %eax
	vmulps	%ymm3, %ymm2, %ymm10
.L603:
	vmulps	%ymm10, %ymm10, %ymm4
	vaddps	%ymm10, %ymm10, %ymm0
	vrcpps	%ymm4, %ymm1
	vmulps	%ymm4, %ymm1, %ymm5
	vaddps	%ymm1, %ymm1, %ymm7
	vmulps	%ymm5, %ymm1, %ymm6
	vsubps	%ymm6, %ymm7, %ymm8
	vmulps	%ymm8, %ymm2, %ymm9
	vaddps	%ymm0, %ymm9, %ymm10
	vmulps	%ymm3, %ymm10, %ymm11
	vmulps	%ymm11, %ymm11, %ymm12
	vaddps	%ymm11, %ymm11, %ymm6
	vrcpps	%ymm12, %ymm13
	vmulps	%ymm12, %ymm13, %ymm14
	vaddps	%ymm13, %ymm13, %ymm4
	vmulps	%ymm14, %ymm13, %ymm15
	vsubps	%ymm15, %ymm4, %ymm1
	vmulps	%ymm1, %ymm2, %ymm5
	vaddps	%ymm6, %ymm5, %ymm7
	vmulps	%ymm3, %ymm7, %ymm8
	vmulps	%ymm8, %ymm8, %ymm9
	vaddps	%ymm8, %ymm8, %ymm15
	vrcpps	%ymm9, %ymm0
	vmulps	%ymm9, %ymm0, %ymm10
	vaddps	%ymm0, %ymm0, %ymm12
	vmulps	%ymm10, %ymm0, %ymm11
	vsubps	%ymm11, %ymm12, %ymm13
	vmulps	%ymm13, %ymm2, %ymm14
	vaddps	%ymm15, %ymm14, %ymm4
	vmulps	%ymm3, %ymm4, %ymm1
	vmulps	%ymm1, %ymm1, %ymm5
	vaddps	%ymm1, %ymm1, %ymm11
	vrcpps	%ymm5, %ymm6
	vmulps	%ymm5, %ymm6, %ymm7
	vaddps	%ymm6, %ymm6, %ymm9
	vmulps	%ymm7, %ymm6, %ymm8
	vsubps	%ymm8, %ymm9, %ymm0
	vmulps	%ymm0, %ymm2, %ymm10
	vaddps	%ymm11, %ymm10, %ymm12
	vmulps	%ymm3, %ymm12, %ymm13
	vmulps	%ymm13, %ymm13, %ymm14
	vaddps	%ymm13, %ymm13, %ymm8
	vrcpps	%ymm14, %ymm15
	vmulps	%ymm14, %ymm15, %ymm4
	vaddps	%ymm15, %ymm15, %ymm1
	vmulps	%ymm4, %ymm15, %ymm5
	vsubps	%ymm5, %ymm1, %ymm6
	vmulps	%ymm6, %ymm2, %ymm7
	vaddps	%ymm8, %ymm7, %ymm9
	vmulps	%ymm3, %ymm9, %ymm10
	vmulps	%ymm10, %ymm10, %ymm11
	vaddps	%ymm10, %ymm10, %ymm5
	vrcpps	%ymm11, %ymm0
	vmulps	%ymm11, %ymm0, %ymm12
	vaddps	%ymm0, %ymm0, %ymm14
	vmulps	%ymm12, %ymm0, %ymm13
	vsubps	%ymm13, %ymm14, %ymm15
	vmulps	%ymm15, %ymm2, %ymm4
	vaddps	%ymm5, %ymm4, %ymm1
	vmulps	%ymm3, %ymm1, %ymm10
	subl	$6, %eax
	jne	.L603
	vmovups	%ymm10, 0(,%rdx,4)
	addq	$8, %rdx
	cmpl	%edx, %ecx
	jg	.L604
	movq	%r12, %rsi
	movq	%rbx, %rdi
	vzeroupper
	call	GOMP_loop_nonmonotonic_dynamic_next@PLT
	vmovaps	.LC1(%rip), %ymm3
	testb	%al, %al
	jne	.L605
	vzeroupper
.L602:
	call	GOMP_loop_end_nowait@PLT
	movq	24(%rsp), %rax
	subq	%fs:40, %rax
	jne	.L620
	leaq	-16(%rbp), %rsp
	popq	%rbx
	popq	%r12
	popq	%rbp
	.cfi_remember_state
	.cfi_def_cfa 7, 8
	ret
.L620:
	.cfi_restore_state
	call	__stack_chk_fail@PLT
	.cfi_endproc
.LFE13946:
	.size	_Z40dynamic_avx2_parallel_cube_root_templateILi18EEvPKfPfi._omp_fn.0, .-_Z40dynamic_avx2_parallel_cube_root_templateILi18EEvPKfPfi._omp_fn.0
	.section	.text._Z40dynamic_avx2_parallel_cube_root_templateILi100EEvPKfPfi._omp_fn.0,"axG",@progbits,_Z40dynamic_avx2_parallel_cube_root_templateILi100EEvPKfPfi,comdat
	.p2align 4
	.type	_Z40dynamic_avx2_parallel_cube_root_templateILi100EEvPKfPfi._omp_fn.0, @function
_Z40dynamic_avx2_parallel_cube_root_templateILi100EEvPKfPfi._omp_fn.0:
.LFB13950:
	.cfi_startproc
	endbr64
	pushq	%rbp
	.cfi_def_cfa_offset 16
	.cfi_offset 6, -16
	xorl	%esi, %esi
	xorl	%edi, %edi
	movl	$1000, %ecx
	movl	$8, %edx
	movq	%rsp, %rbp
	.cfi_def_cfa_register 6
	pushq	%r12
	pushq	%rbx
	andq	$-32, %rsp
	subq	$32, %rsp
	.cfi_offset 12, -24
	.cfi_offset 3, -32
	movq	%fs:40, %rax
	movq	%rax, 24(%rsp)
	xorl	%eax, %eax
	leaq	16(%rsp), %r12
	leaq	8(%rsp), %rbx
	movq	%r12, %r9
	movq	%rbx, %r8
	call	GOMP_loop_nonmonotonic_dynamic_start@PLT
	testb	%al, %al
	je	.L622
	vbroadcastss	.LC0(%rip), %ymm3
.L625:
	movl	16(%rsp), %ecx
	movslq	8(%rsp), %rdx
.L624:
	vmovups	0(,%rdx,4), %ymm2
	movl	$98, %eax
	vmulps	%ymm3, %ymm2, %ymm4
	vmulps	%ymm4, %ymm4, %ymm1
	vaddps	%ymm4, %ymm4, %ymm10
	vrcpps	%ymm1, %ymm0
	vmulps	%ymm1, %ymm0, %ymm5
	vaddps	%ymm0, %ymm0, %ymm7
	vmulps	%ymm5, %ymm0, %ymm6
	vsubps	%ymm6, %ymm7, %ymm8
	vmulps	%ymm8, %ymm2, %ymm9
	vaddps	%ymm10, %ymm9, %ymm11
	vmulps	%ymm3, %ymm11, %ymm12
	vmulps	%ymm12, %ymm12, %ymm13
	vaddps	%ymm12, %ymm12, %ymm6
	vrcpps	%ymm13, %ymm14
	vmulps	%ymm13, %ymm14, %ymm15
	vaddps	%ymm14, %ymm14, %ymm1
	vmulps	%ymm15, %ymm14, %ymm4
	vsubps	%ymm4, %ymm1, %ymm0
	vmulps	%ymm0, %ymm2, %ymm5
	vaddps	%ymm6, %ymm5, %ymm7
	vmulps	%ymm3, %ymm7, %ymm0
	.p2align 4,,10
	.p2align 3
.L623:
	vmulps	%ymm0, %ymm0, %ymm8
	vaddps	%ymm0, %ymm0, %ymm15
	vrcpps	%ymm8, %ymm9
	vmulps	%ymm8, %ymm9, %ymm10
	vaddps	%ymm9, %ymm9, %ymm12
	vmulps	%ymm10, %ymm9, %ymm11
	vsubps	%ymm11, %ymm12, %ymm13
	vmulps	%ymm13, %ymm2, %ymm14
	vaddps	%ymm15, %ymm14, %ymm4
	vmulps	%ymm3, %ymm4, %ymm6
	vmulps	%ymm6, %ymm6, %ymm1
	vaddps	%ymm6, %ymm6, %ymm11
	vrcpps	%ymm1, %ymm0
	vmulps	%ymm1, %ymm0, %ymm5
	vaddps	%ymm0, %ymm0, %ymm8
	vmulps	%ymm5, %ymm0, %ymm7
	vsubps	%ymm7, %ymm8, %ymm9
	vmulps	%ymm9, %ymm2, %ymm10
	vaddps	%ymm11, %ymm10, %ymm12
	vmulps	%ymm3, %ymm12, %ymm13
	vmulps	%ymm13, %ymm13, %ymm14
	vaddps	%ymm13, %ymm13, %ymm7
	vrcpps	%ymm14, %ymm15
	vmulps	%ymm14, %ymm15, %ymm4
	vaddps	%ymm15, %ymm15, %ymm1
	vmulps	%ymm4, %ymm15, %ymm6
	vsubps	%ymm6, %ymm1, %ymm0
	vmulps	%ymm0, %ymm2, %ymm5
	vaddps	%ymm7, %ymm5, %ymm8
	vmulps	%ymm3, %ymm8, %ymm9
	vmulps	%ymm9, %ymm9, %ymm10
	vaddps	%ymm9, %ymm9, %ymm4
	vrcpps	%ymm10, %ymm11
	vmulps	%ymm10, %ymm11, %ymm12
	vaddps	%ymm11, %ymm11, %ymm14
	vmulps	%ymm12, %ymm11, %ymm13
	vsubps	%ymm13, %ymm14, %ymm15
	vmulps	%ymm15, %ymm2, %ymm6
	vaddps	%ymm4, %ymm6, %ymm1
	vmulps	%ymm3, %ymm1, %ymm7
	vmulps	%ymm7, %ymm7, %ymm5
	vaddps	%ymm7, %ymm7, %ymm13
	vrcpps	%ymm5, %ymm0
	vmulps	%ymm5, %ymm0, %ymm8
	vaddps	%ymm0, %ymm0, %ymm10
	vmulps	%ymm8, %ymm0, %ymm9
	vsubps	%ymm9, %ymm10, %ymm11
	vmulps	%ymm11, %ymm2, %ymm12
	vaddps	%ymm13, %ymm12, %ymm14
	vmulps	%ymm3, %ymm14, %ymm15
	vmulps	%ymm15, %ymm15, %ymm6
	vaddps	%ymm15, %ymm15, %ymm9
	vrcpps	%ymm6, %ymm4
	vmulps	%ymm6, %ymm4, %ymm1
	vaddps	%ymm4, %ymm4, %ymm5
	vmulps	%ymm1, %ymm4, %ymm7
	vsubps	%ymm7, %ymm5, %ymm0
	vmulps	%ymm0, %ymm2, %ymm8
	vaddps	%ymm9, %ymm8, %ymm10
	vmulps	%ymm3, %ymm10, %ymm11
	vmulps	%ymm11, %ymm11, %ymm12
	vaddps	%ymm11, %ymm11, %ymm1
	vrcpps	%ymm12, %ymm13
	vmulps	%ymm12, %ymm13, %ymm14
	vaddps	%ymm13, %ymm13, %ymm6
	vmulps	%ymm14, %ymm13, %ymm15
	vsubps	%ymm15, %ymm6, %ymm4
	vmulps	%ymm4, %ymm2, %ymm7
	vaddps	%ymm1, %ymm7, %ymm5
	vmulps	%ymm3, %ymm5, %ymm0
	subl	$7, %eax
	jne	.L623
	vmovups	%ymm0, 0(,%rdx,4)
	addq	$8, %rdx
	cmpl	%edx, %ecx
	jg	.L624
	movq	%r12, %rsi
	movq	%rbx, %rdi
	vzeroupper
	call	GOMP_loop_nonmonotonic_dynamic_next@PLT
	vmovaps	.LC1(%rip), %ymm3
	testb	%al, %al
	jne	.L625
	vzeroupper
.L622:
	call	GOMP_loop_end_nowait@PLT
	movq	24(%rsp), %rax
	subq	%fs:40, %rax
	jne	.L643
	leaq	-16(%rbp), %rsp
	popq	%rbx
	popq	%r12
	popq	%rbp
	.cfi_remember_state
	.cfi_def_cfa 7, 8
	ret
.L643:
	.cfi_restore_state
	call	__stack_chk_fail@PLT
	.cfi_endproc
.LFE13950:
	.size	_Z40dynamic_avx2_parallel_cube_root_templateILi100EEvPKfPfi._omp_fn.0, .-_Z40dynamic_avx2_parallel_cube_root_templateILi100EEvPKfPfi._omp_fn.0
	.section	.text._Z40dynamic_avx2_parallel_cube_root_templateILi1000EEvPKfPfi._omp_fn.0,"axG",@progbits,_Z40dynamic_avx2_parallel_cube_root_templateILi1000EEvPKfPfi,comdat
	.p2align 4
	.type	_Z40dynamic_avx2_parallel_cube_root_templateILi1000EEvPKfPfi._omp_fn.0, @function
_Z40dynamic_avx2_parallel_cube_root_templateILi1000EEvPKfPfi._omp_fn.0:
.LFB13954:
	.cfi_startproc
	endbr64
	pushq	%rbp
	.cfi_def_cfa_offset 16
	.cfi_offset 6, -16
	xorl	%esi, %esi
	xorl	%edi, %edi
	movl	$1000, %ecx
	movl	$8, %edx
	movq	%rsp, %rbp
	.cfi_def_cfa_register 6
	pushq	%r12
	pushq	%rbx
	andq	$-32, %rsp
	subq	$32, %rsp
	.cfi_offset 12, -24
	.cfi_offset 3, -32
	movq	%fs:40, %rax
	movq	%rax, 24(%rsp)
	xorl	%eax, %eax
	leaq	16(%rsp), %r12
	leaq	8(%rsp), %rbx
	movq	%r12, %r9
	movq	%rbx, %r8
	call	GOMP_loop_nonmonotonic_dynamic_start@PLT
	testb	%al, %al
	je	.L645
	vbroadcastss	.LC0(%rip), %ymm3
.L648:
	movl	16(%rsp), %ecx
	movslq	8(%rsp), %rdx
.L647:
	vmovups	0(,%rdx,4), %ymm2
	movl	$1000, %eax
	vmulps	%ymm3, %ymm2, %ymm0
	.p2align 4,,10
	.p2align 3
.L646:
	vmulps	%ymm0, %ymm0, %ymm4
	vaddps	%ymm0, %ymm0, %ymm0
	vrcpps	%ymm4, %ymm1
	vmulps	%ymm4, %ymm1, %ymm5
	vaddps	%ymm1, %ymm1, %ymm7
	vmulps	%ymm5, %ymm1, %ymm6
	vsubps	%ymm6, %ymm7, %ymm8
	vmulps	%ymm8, %ymm2, %ymm9
	vaddps	%ymm0, %ymm9, %ymm10
	vmulps	%ymm3, %ymm10, %ymm11
	vmulps	%ymm11, %ymm11, %ymm12
	vaddps	%ymm11, %ymm11, %ymm6
	vrcpps	%ymm12, %ymm13
	vmulps	%ymm12, %ymm13, %ymm14
	vaddps	%ymm13, %ymm13, %ymm4
	vmulps	%ymm14, %ymm13, %ymm15
	vsubps	%ymm15, %ymm4, %ymm1
	vmulps	%ymm1, %ymm2, %ymm5
	vaddps	%ymm6, %ymm5, %ymm7
	vmulps	%ymm3, %ymm7, %ymm8
	vmulps	%ymm8, %ymm8, %ymm9
	vaddps	%ymm8, %ymm8, %ymm15
	vrcpps	%ymm9, %ymm0
	vmulps	%ymm9, %ymm0, %ymm10
	vaddps	%ymm0, %ymm0, %ymm12
	vmulps	%ymm10, %ymm0, %ymm11
	vsubps	%ymm11, %ymm12, %ymm13
	vmulps	%ymm13, %ymm2, %ymm14
	vaddps	%ymm15, %ymm14, %ymm4
	vmulps	%ymm3, %ymm4, %ymm1
	vmulps	%ymm1, %ymm1, %ymm5
	vaddps	%ymm1, %ymm1, %ymm11
	vrcpps	%ymm5, %ymm6
	vmulps	%ymm5, %ymm6, %ymm7
	vaddps	%ymm6, %ymm6, %ymm9
	vmulps	%ymm7, %ymm6, %ymm8
	vsubps	%ymm8, %ymm9, %ymm0
	vmulps	%ymm0, %ymm2, %ymm10
	vaddps	%ymm11, %ymm10, %ymm12
	vmulps	%ymm3, %ymm12, %ymm13
	vmulps	%ymm13, %ymm13, %ymm14
	vaddps	%ymm13, %ymm13, %ymm8
	vrcpps	%ymm14, %ymm15
	vmulps	%ymm14, %ymm15, %ymm4
	vaddps	%ymm15, %ymm15, %ymm1
	vmulps	%ymm4, %ymm15, %ymm5
	vsubps	%ymm5, %ymm1, %ymm6
	vmulps	%ymm6, %ymm2, %ymm7
	vaddps	%ymm8, %ymm7, %ymm9
	vmulps	%ymm3, %ymm9, %ymm10
	vmulps	%ymm10, %ymm10, %ymm11
	vaddps	%ymm10, %ymm10, %ymm5
	vrcpps	%ymm11, %ymm0
	vmulps	%ymm11, %ymm0, %ymm12
	vaddps	%ymm0, %ymm0, %ymm14
	vmulps	%ymm12, %ymm0, %ymm13
	vsubps	%ymm13, %ymm14, %ymm15
	vmulps	%ymm15, %ymm2, %ymm4
	vaddps	%ymm5, %ymm4, %ymm1
	vmulps	%ymm3, %ymm1, %ymm6
	vmulps	%ymm6, %ymm6, %ymm7
	vaddps	%ymm6, %ymm6, %ymm13
	vrcpps	%ymm7, %ymm8
	vmulps	%ymm7, %ymm8, %ymm9
	vaddps	%ymm8, %ymm8, %ymm11
	vmulps	%ymm9, %ymm8, %ymm10
	vsubps	%ymm10, %ymm11, %ymm0
	vmulps	%ymm0, %ymm2, %ymm12
	vaddps	%ymm13, %ymm12, %ymm14
	vmulps	%ymm3, %ymm14, %ymm15
	vmulps	%ymm15, %ymm15, %ymm4
	vaddps	%ymm15, %ymm15, %ymm10
	vrcpps	%ymm4, %ymm5
	vmulps	%ymm4, %ymm5, %ymm1
	vaddps	%ymm5, %ymm5, %ymm7
	vmulps	%ymm1, %ymm5, %ymm6
	vsubps	%ymm6, %ymm7, %ymm8
	vmulps	%ymm8, %ymm2, %ymm9
	vaddps	%ymm10, %ymm9, %ymm11
	vmulps	%ymm3, %ymm11, %ymm0
	subl	$8, %eax
	jne	.L646
	vmovups	%ymm0, 0(,%rdx,4)
	addq	$8, %rdx
	cmpl	%edx, %ecx
	jg	.L647
	movq	%r12, %rsi
	movq	%rbx, %rdi
	vzeroupper
	call	GOMP_loop_nonmonotonic_dynamic_next@PLT
	vmovaps	.LC1(%rip), %ymm3
	testb	%al, %al
	jne	.L648
	vzeroupper
.L645:
	call	GOMP_loop_end_nowait@PLT
	movq	24(%rsp), %rax
	subq	%fs:40, %rax
	jne	.L665
	leaq	-16(%rbp), %rsp
	popq	%rbx
	popq	%r12
	popq	%rbp
	.cfi_remember_state
	.cfi_def_cfa 7, 8
	ret
.L665:
	.cfi_restore_state
	call	__stack_chk_fail@PLT
	.cfi_endproc
.LFE13954:
	.size	_Z40dynamic_avx2_parallel_cube_root_templateILi1000EEvPKfPfi._omp_fn.0, .-_Z40dynamic_avx2_parallel_cube_root_templateILi1000EEvPKfPfi._omp_fn.0
	.section	.text._Z40dynamic_avx2_parallel_cube_root_templateILi10000EEvPKfPfi._omp_fn.0,"axG",@progbits,_Z40dynamic_avx2_parallel_cube_root_templateILi10000EEvPKfPfi,comdat
	.p2align 4
	.type	_Z40dynamic_avx2_parallel_cube_root_templateILi10000EEvPKfPfi._omp_fn.0, @function
_Z40dynamic_avx2_parallel_cube_root_templateILi10000EEvPKfPfi._omp_fn.0:
.LFB13958:
	.cfi_startproc
	endbr64
	pushq	%rbp
	.cfi_def_cfa_offset 16
	.cfi_offset 6, -16
	xorl	%esi, %esi
	xorl	%edi, %edi
	movl	$1000, %ecx
	movl	$8, %edx
	movq	%rsp, %rbp
	.cfi_def_cfa_register 6
	pushq	%r12
	pushq	%rbx
	andq	$-32, %rsp
	subq	$32, %rsp
	.cfi_offset 12, -24
	.cfi_offset 3, -32
	movq	%fs:40, %rax
	movq	%rax, 24(%rsp)
	xorl	%eax, %eax
	leaq	16(%rsp), %r12
	leaq	8(%rsp), %rbx
	movq	%r12, %r9
	movq	%rbx, %r8
	call	GOMP_loop_nonmonotonic_dynamic_start@PLT
	testb	%al, %al
	je	.L667
	vbroadcastss	.LC0(%rip), %ymm3
.L670:
	movl	16(%rsp), %ecx
	movslq	8(%rsp), %rdx
.L669:
	vmovups	0(,%rdx,4), %ymm2
	movl	$10000, %eax
	vmulps	%ymm3, %ymm2, %ymm0
	.p2align 4,,10
	.p2align 3
.L668:
	vmulps	%ymm0, %ymm0, %ymm4
	vaddps	%ymm0, %ymm0, %ymm0
	vrcpps	%ymm4, %ymm1
	vmulps	%ymm4, %ymm1, %ymm5
	vaddps	%ymm1, %ymm1, %ymm7
	vmulps	%ymm5, %ymm1, %ymm6
	vsubps	%ymm6, %ymm7, %ymm8
	vmulps	%ymm8, %ymm2, %ymm9
	vaddps	%ymm0, %ymm9, %ymm10
	vmulps	%ymm3, %ymm10, %ymm11
	vmulps	%ymm11, %ymm11, %ymm12
	vaddps	%ymm11, %ymm11, %ymm6
	vrcpps	%ymm12, %ymm13
	vmulps	%ymm12, %ymm13, %ymm14
	vaddps	%ymm13, %ymm13, %ymm4
	vmulps	%ymm14, %ymm13, %ymm15
	vsubps	%ymm15, %ymm4, %ymm1
	vmulps	%ymm1, %ymm2, %ymm5
	vaddps	%ymm6, %ymm5, %ymm7
	vmulps	%ymm3, %ymm7, %ymm8
	vmulps	%ymm8, %ymm8, %ymm9
	vaddps	%ymm8, %ymm8, %ymm15
	vrcpps	%ymm9, %ymm0
	vmulps	%ymm9, %ymm0, %ymm10
	vaddps	%ymm0, %ymm0, %ymm12
	vmulps	%ymm10, %ymm0, %ymm11
	vsubps	%ymm11, %ymm12, %ymm13
	vmulps	%ymm13, %ymm2, %ymm14
	vaddps	%ymm15, %ymm14, %ymm4
	vmulps	%ymm3, %ymm4, %ymm1
	vmulps	%ymm1, %ymm1, %ymm5
	vaddps	%ymm1, %ymm1, %ymm11
	vrcpps	%ymm5, %ymm6
	vmulps	%ymm5, %ymm6, %ymm7
	vaddps	%ymm6, %ymm6, %ymm9
	vmulps	%ymm7, %ymm6, %ymm8
	vsubps	%ymm8, %ymm9, %ymm0
	vmulps	%ymm0, %ymm2, %ymm10
	vaddps	%ymm11, %ymm10, %ymm12
	vmulps	%ymm3, %ymm12, %ymm13
	vmulps	%ymm13, %ymm13, %ymm14
	vaddps	%ymm13, %ymm13, %ymm8
	vrcpps	%ymm14, %ymm15
	vmulps	%ymm14, %ymm15, %ymm4
	vaddps	%ymm15, %ymm15, %ymm1
	vmulps	%ymm4, %ymm15, %ymm5
	vsubps	%ymm5, %ymm1, %ymm6
	vmulps	%ymm6, %ymm2, %ymm7
	vaddps	%ymm8, %ymm7, %ymm9
	vmulps	%ymm3, %ymm9, %ymm10
	vmulps	%ymm10, %ymm10, %ymm11
	vaddps	%ymm10, %ymm10, %ymm5
	vrcpps	%ymm11, %ymm0
	vmulps	%ymm11, %ymm0, %ymm12
	vaddps	%ymm0, %ymm0, %ymm14
	vmulps	%ymm12, %ymm0, %ymm13
	vsubps	%ymm13, %ymm14, %ymm15
	vmulps	%ymm15, %ymm2, %ymm4
	vaddps	%ymm5, %ymm4, %ymm1
	vmulps	%ymm3, %ymm1, %ymm6
	vmulps	%ymm6, %ymm6, %ymm7
	vaddps	%ymm6, %ymm6, %ymm13
	vrcpps	%ymm7, %ymm8
	vmulps	%ymm7, %ymm8, %ymm9
	vaddps	%ymm8, %ymm8, %ymm11
	vmulps	%ymm9, %ymm8, %ymm10
	vsubps	%ymm10, %ymm11, %ymm0
	vmulps	%ymm0, %ymm2, %ymm12
	vaddps	%ymm13, %ymm12, %ymm14
	vmulps	%ymm3, %ymm14, %ymm15
	vmulps	%ymm15, %ymm15, %ymm4
	vaddps	%ymm15, %ymm15, %ymm10
	vrcpps	%ymm4, %ymm5
	vmulps	%ymm4, %ymm5, %ymm1
	vaddps	%ymm5, %ymm5, %ymm7
	vmulps	%ymm1, %ymm5, %ymm6
	vsubps	%ymm6, %ymm7, %ymm8
	vmulps	%ymm8, %ymm2, %ymm9
	vaddps	%ymm10, %ymm9, %ymm11
	vmulps	%ymm3, %ymm11, %ymm0
	subl	$8, %eax
	jne	.L668
	vmovups	%ymm0, 0(,%rdx,4)
	addq	$8, %rdx
	cmpl	%edx, %ecx
	jg	.L669
	movq	%r12, %rsi
	movq	%rbx, %rdi
	vzeroupper
	call	GOMP_loop_nonmonotonic_dynamic_next@PLT
	vmovaps	.LC1(%rip), %ymm3
	testb	%al, %al
	jne	.L670
	vzeroupper
.L667:
	call	GOMP_loop_end_nowait@PLT
	movq	24(%rsp), %rax
	subq	%fs:40, %rax
	jne	.L687
	leaq	-16(%rbp), %rsp
	popq	%rbx
	popq	%r12
	popq	%rbp
	.cfi_remember_state
	.cfi_def_cfa 7, 8
	ret
.L687:
	.cfi_restore_state
	call	__stack_chk_fail@PLT
	.cfi_endproc
.LFE13958:
	.size	_Z40dynamic_avx2_parallel_cube_root_templateILi10000EEvPKfPfi._omp_fn.0, .-_Z40dynamic_avx2_parallel_cube_root_templateILi10000EEvPKfPfi._omp_fn.0
	.text
	.p2align 4
	.type	_Z32parallel_avx2_cube_root_templateILi2EEvPKfPfi._omp_fn.0.constprop.0, @function
_Z32parallel_avx2_cube_root_templateILi2EEvPKfPfi._omp_fn.0.constprop.0:
.LFB14027:
	.cfi_startproc
	ret
	.cfi_endproc
.LFE14027:
	.size	_Z32parallel_avx2_cube_root_templateILi2EEvPKfPfi._omp_fn.0.constprop.0, .-_Z32parallel_avx2_cube_root_templateILi2EEvPKfPfi._omp_fn.0.constprop.0
	.section	.text._Z27parallel_cube_root_templateILi10000EEvPKfPfi._omp_fn.0,"axG",@progbits,_Z27parallel_cube_root_templateILi10000EEvPKfPfi,comdat
	.p2align 4
	.type	_Z27parallel_cube_root_templateILi10000EEvPKfPfi._omp_fn.0, @function
_Z27parallel_cube_root_templateILi10000EEvPKfPfi._omp_fn.0:
.LFB14024:
	.cfi_startproc
	endbr64
	ret
	.cfi_endproc
.LFE14024:
	.size	_Z27parallel_cube_root_templateILi10000EEvPKfPfi._omp_fn.0, .-_Z27parallel_cube_root_templateILi10000EEvPKfPfi._omp_fn.0
	.section	.text._Z32parallel_avx2_cube_root_templateILi10000EEvPKfPfi._omp_fn.0,"axG",@progbits,_Z32parallel_avx2_cube_root_templateILi10000EEvPKfPfi,comdat
	.p2align 4
	.type	_Z32parallel_avx2_cube_root_templateILi10000EEvPKfPfi._omp_fn.0, @function
_Z32parallel_avx2_cube_root_templateILi10000EEvPKfPfi._omp_fn.0:
.LFB14022:
	.cfi_startproc
	endbr64
	ret
	.cfi_endproc
.LFE14022:
	.size	_Z32parallel_avx2_cube_root_templateILi10000EEvPKfPfi._omp_fn.0, .-_Z32parallel_avx2_cube_root_templateILi10000EEvPKfPfi._omp_fn.0
	.section	.text._Z27parallel_cube_root_templateILi1000EEvPKfPfi._omp_fn.0,"axG",@progbits,_Z27parallel_cube_root_templateILi1000EEvPKfPfi,comdat
	.p2align 4
	.type	_Z27parallel_cube_root_templateILi1000EEvPKfPfi._omp_fn.0, @function
_Z27parallel_cube_root_templateILi1000EEvPKfPfi._omp_fn.0:
.LFB14020:
	.cfi_startproc
	endbr64
	ret
	.cfi_endproc
.LFE14020:
	.size	_Z27parallel_cube_root_templateILi1000EEvPKfPfi._omp_fn.0, .-_Z27parallel_cube_root_templateILi1000EEvPKfPfi._omp_fn.0
	.section	.text._Z32parallel_avx2_cube_root_templateILi1000EEvPKfPfi._omp_fn.0,"axG",@progbits,_Z32parallel_avx2_cube_root_templateILi1000EEvPKfPfi,comdat
	.p2align 4
	.type	_Z32parallel_avx2_cube_root_templateILi1000EEvPKfPfi._omp_fn.0, @function
_Z32parallel_avx2_cube_root_templateILi1000EEvPKfPfi._omp_fn.0:
.LFB14018:
	.cfi_startproc
	endbr64
	ret
	.cfi_endproc
.LFE14018:
	.size	_Z32parallel_avx2_cube_root_templateILi1000EEvPKfPfi._omp_fn.0, .-_Z32parallel_avx2_cube_root_templateILi1000EEvPKfPfi._omp_fn.0
	.section	.text._Z27parallel_cube_root_templateILi100EEvPKfPfi._omp_fn.0,"axG",@progbits,_Z27parallel_cube_root_templateILi100EEvPKfPfi,comdat
	.p2align 4
	.type	_Z27parallel_cube_root_templateILi100EEvPKfPfi._omp_fn.0, @function
_Z27parallel_cube_root_templateILi100EEvPKfPfi._omp_fn.0:
.LFB14016:
	.cfi_startproc
	endbr64
	ret
	.cfi_endproc
.LFE14016:
	.size	_Z27parallel_cube_root_templateILi100EEvPKfPfi._omp_fn.0, .-_Z27parallel_cube_root_templateILi100EEvPKfPfi._omp_fn.0
	.section	.text._Z32parallel_avx2_cube_root_templateILi100EEvPKfPfi._omp_fn.0,"axG",@progbits,_Z32parallel_avx2_cube_root_templateILi100EEvPKfPfi,comdat
	.p2align 4
	.type	_Z32parallel_avx2_cube_root_templateILi100EEvPKfPfi._omp_fn.0, @function
_Z32parallel_avx2_cube_root_templateILi100EEvPKfPfi._omp_fn.0:
.LFB14014:
	.cfi_startproc
	endbr64
	ret
	.cfi_endproc
.LFE14014:
	.size	_Z32parallel_avx2_cube_root_templateILi100EEvPKfPfi._omp_fn.0, .-_Z32parallel_avx2_cube_root_templateILi100EEvPKfPfi._omp_fn.0
	.section	.text._Z27parallel_cube_root_templateILi18EEvPKfPfi._omp_fn.0,"axG",@progbits,_Z27parallel_cube_root_templateILi18EEvPKfPfi,comdat
	.p2align 4
	.type	_Z27parallel_cube_root_templateILi18EEvPKfPfi._omp_fn.0, @function
_Z27parallel_cube_root_templateILi18EEvPKfPfi._omp_fn.0:
.LFB14012:
	.cfi_startproc
	endbr64
	ret
	.cfi_endproc
.LFE14012:
	.size	_Z27parallel_cube_root_templateILi18EEvPKfPfi._omp_fn.0, .-_Z27parallel_cube_root_templateILi18EEvPKfPfi._omp_fn.0
	.section	.text._Z32parallel_avx2_cube_root_templateILi18EEvPKfPfi._omp_fn.0,"axG",@progbits,_Z32parallel_avx2_cube_root_templateILi18EEvPKfPfi,comdat
	.p2align 4
	.type	_Z32parallel_avx2_cube_root_templateILi18EEvPKfPfi._omp_fn.0, @function
_Z32parallel_avx2_cube_root_templateILi18EEvPKfPfi._omp_fn.0:
.LFB14010:
	.cfi_startproc
	endbr64
	ret
	.cfi_endproc
.LFE14010:
	.size	_Z32parallel_avx2_cube_root_templateILi18EEvPKfPfi._omp_fn.0, .-_Z32parallel_avx2_cube_root_templateILi18EEvPKfPfi._omp_fn.0
	.section	.text._Z27parallel_cube_root_templateILi16EEvPKfPfi._omp_fn.0,"axG",@progbits,_Z27parallel_cube_root_templateILi16EEvPKfPfi,comdat
	.p2align 4
	.type	_Z27parallel_cube_root_templateILi16EEvPKfPfi._omp_fn.0, @function
_Z27parallel_cube_root_templateILi16EEvPKfPfi._omp_fn.0:
.LFB14008:
	.cfi_startproc
	endbr64
	ret
	.cfi_endproc
.LFE14008:
	.size	_Z27parallel_cube_root_templateILi16EEvPKfPfi._omp_fn.0, .-_Z27parallel_cube_root_templateILi16EEvPKfPfi._omp_fn.0
	.section	.text._Z32parallel_avx2_cube_root_templateILi16EEvPKfPfi._omp_fn.0,"axG",@progbits,_Z32parallel_avx2_cube_root_templateILi16EEvPKfPfi,comdat
	.p2align 4
	.type	_Z32parallel_avx2_cube_root_templateILi16EEvPKfPfi._omp_fn.0, @function
_Z32parallel_avx2_cube_root_templateILi16EEvPKfPfi._omp_fn.0:
.LFB14006:
	.cfi_startproc
	endbr64
	ret
	.cfi_endproc
.LFE14006:
	.size	_Z32parallel_avx2_cube_root_templateILi16EEvPKfPfi._omp_fn.0, .-_Z32parallel_avx2_cube_root_templateILi16EEvPKfPfi._omp_fn.0
	.section	.text._Z27parallel_cube_root_templateILi2EEvPKfPfi._omp_fn.0,"axG",@progbits,_Z27parallel_cube_root_templateILi2EEvPKfPfi,comdat
	.p2align 4
	.type	_Z27parallel_cube_root_templateILi2EEvPKfPfi._omp_fn.0, @function
_Z27parallel_cube_root_templateILi2EEvPKfPfi._omp_fn.0:
.LFB14004:
	.cfi_startproc
	endbr64
	ret
	.cfi_endproc
.LFE14004:
	.size	_Z27parallel_cube_root_templateILi2EEvPKfPfi._omp_fn.0, .-_Z27parallel_cube_root_templateILi2EEvPKfPfi._omp_fn.0
	.text
	.p2align 4
	.type	_Z39manual_avx2_parallel_cube_root_templateILi2EEvPKfPfi._omp_fn.0.constprop.0, @function
_Z39manual_avx2_parallel_cube_root_templateILi2EEvPKfPfi._omp_fn.0.constprop.0:
.LFB14026:
	.cfi_startproc
	jmp	sched_getcpu@PLT
	.cfi_endproc
.LFE14026:
	.size	_Z39manual_avx2_parallel_cube_root_templateILi2EEvPKfPfi._omp_fn.0.constprop.0, .-_Z39manual_avx2_parallel_cube_root_templateILi2EEvPKfPfi._omp_fn.0.constprop.0
	.section	.text._Z39manual_avx2_parallel_cube_root_templateILi10000EEvPKfPfi._omp_fn.0,"axG",@progbits,_Z39manual_avx2_parallel_cube_root_templateILi10000EEvPKfPfi,comdat
	.p2align 4
	.type	_Z39manual_avx2_parallel_cube_root_templateILi10000EEvPKfPfi._omp_fn.0, @function
_Z39manual_avx2_parallel_cube_root_templateILi10000EEvPKfPfi._omp_fn.0:
.LFB14002:
	.cfi_startproc
	endbr64
	jmp	_Z39manual_avx2_parallel_cube_root_templateILi2EEvPKfPfi._omp_fn.0.constprop.0
	.cfi_endproc
.LFE14002:
	.size	_Z39manual_avx2_parallel_cube_root_templateILi10000EEvPKfPfi._omp_fn.0, .-_Z39manual_avx2_parallel_cube_root_templateILi10000EEvPKfPfi._omp_fn.0
	.section	.text._Z39manual_avx2_parallel_cube_root_templateILi1000EEvPKfPfi._omp_fn.0,"axG",@progbits,_Z39manual_avx2_parallel_cube_root_templateILi1000EEvPKfPfi,comdat
	.p2align 4
	.type	_Z39manual_avx2_parallel_cube_root_templateILi1000EEvPKfPfi._omp_fn.0, @function
_Z39manual_avx2_parallel_cube_root_templateILi1000EEvPKfPfi._omp_fn.0:
.LFB14000:
	.cfi_startproc
	endbr64
	jmp	_Z39manual_avx2_parallel_cube_root_templateILi2EEvPKfPfi._omp_fn.0.constprop.0
	.cfi_endproc
.LFE14000:
	.size	_Z39manual_avx2_parallel_cube_root_templateILi1000EEvPKfPfi._omp_fn.0, .-_Z39manual_avx2_parallel_cube_root_templateILi1000EEvPKfPfi._omp_fn.0
	.section	.text._Z39manual_avx2_parallel_cube_root_templateILi100EEvPKfPfi._omp_fn.0,"axG",@progbits,_Z39manual_avx2_parallel_cube_root_templateILi100EEvPKfPfi,comdat
	.p2align 4
	.type	_Z39manual_avx2_parallel_cube_root_templateILi100EEvPKfPfi._omp_fn.0, @function
_Z39manual_avx2_parallel_cube_root_templateILi100EEvPKfPfi._omp_fn.0:
.LFB13998:
	.cfi_startproc
	endbr64
	jmp	_Z39manual_avx2_parallel_cube_root_templateILi2EEvPKfPfi._omp_fn.0.constprop.0
	.cfi_endproc
.LFE13998:
	.size	_Z39manual_avx2_parallel_cube_root_templateILi100EEvPKfPfi._omp_fn.0, .-_Z39manual_avx2_parallel_cube_root_templateILi100EEvPKfPfi._omp_fn.0
	.section	.text._Z39manual_avx2_parallel_cube_root_templateILi18EEvPKfPfi._omp_fn.0,"axG",@progbits,_Z39manual_avx2_parallel_cube_root_templateILi18EEvPKfPfi,comdat
	.p2align 4
	.type	_Z39manual_avx2_parallel_cube_root_templateILi18EEvPKfPfi._omp_fn.0, @function
_Z39manual_avx2_parallel_cube_root_templateILi18EEvPKfPfi._omp_fn.0:
.LFB13996:
	.cfi_startproc
	endbr64
	jmp	_Z39manual_avx2_parallel_cube_root_templateILi2EEvPKfPfi._omp_fn.0.constprop.0
	.cfi_endproc
.LFE13996:
	.size	_Z39manual_avx2_parallel_cube_root_templateILi18EEvPKfPfi._omp_fn.0, .-_Z39manual_avx2_parallel_cube_root_templateILi18EEvPKfPfi._omp_fn.0
	.section	.text._Z39manual_avx2_parallel_cube_root_templateILi16EEvPKfPfi._omp_fn.0,"axG",@progbits,_Z39manual_avx2_parallel_cube_root_templateILi16EEvPKfPfi,comdat
	.p2align 4
	.type	_Z39manual_avx2_parallel_cube_root_templateILi16EEvPKfPfi._omp_fn.0, @function
_Z39manual_avx2_parallel_cube_root_templateILi16EEvPKfPfi._omp_fn.0:
.LFB13994:
	.cfi_startproc
	endbr64
	jmp	_Z39manual_avx2_parallel_cube_root_templateILi2EEvPKfPfi._omp_fn.0.constprop.0
	.cfi_endproc
.LFE13994:
	.size	_Z39manual_avx2_parallel_cube_root_templateILi16EEvPKfPfi._omp_fn.0, .-_Z39manual_avx2_parallel_cube_root_templateILi16EEvPKfPfi._omp_fn.0
	.text
	.p2align 4
	.type	_Z9benchmarkPFvPKfPfiES0_S1_iii.constprop.0, @function
_Z9benchmarkPFvPKfPfiES0_S1_iii.constprop.0:
.LFB14028:
	.cfi_startproc
	pushq	%r15
	.cfi_def_cfa_offset 16
	.cfi_offset 15, -16
	movslq	%r8d, %r15
	pushq	%r14
	.cfi_def_cfa_offset 24
	.cfi_offset 14, -24
	movl	%r15d, %eax
	movq	%r15, %r14
	pushq	%r13
	.cfi_def_cfa_offset 32
	.cfi_offset 13, -32
	sarl	$31, %eax
	movl	%ecx, %r13d
	pushq	%r12
	.cfi_def_cfa_offset 40
	.cfi_offset 12, -40
	movq	%rsi, %r12
	pushq	%rbp
	.cfi_def_cfa_offset 48
	.cfi_offset 6, -48
	movq	%rdi, %rbp
	pushq	%rbx
	.cfi_def_cfa_offset 56
	.cfi_offset 3, -56
	movq	%rdx, %rbx
	imulq	$1717986919, %r15, %rdx
	sarq	$34, %rdx
	subq	$40, %rsp
	.cfi_def_cfa_offset 96
	subl	%eax, %edx
	movl	%edx, (%rsp)
	cmpl	$9, %r15d
	jle	.L707
	leal	-1(%rdx), %ecx
	movq	%rbx, %rsi
	movq	%r12, %rdi
	movl	%r13d, %edx
	andl	$7, %ecx
	movl	$1, %r15d
	movl	%ecx, 12(%rsp)
	call	*%rbp
	movl	(%rsp), %esi
	movl	12(%rsp), %edi
	cmpl	%esi, %r15d
	jge	.L785
	testl	%edi, %edi
	je	.L708
	cmpl	$1, %edi
	je	.L765
	cmpl	$2, %edi
	je	.L766
	cmpl	$3, %edi
	je	.L767
	cmpl	$4, %edi
	je	.L768
	cmpl	$5, %edi
	je	.L769
	cmpl	$6, %edi
	je	.L770
	movl	%r13d, %edx
	movq	%rbx, %rsi
	movq	%r12, %rdi
	movl	$2, %r15d
	call	*%rbp
.L770:
	movl	%r13d, %edx
	movq	%rbx, %rsi
	movq	%r12, %rdi
	addl	$1, %r15d
	call	*%rbp
.L769:
	movl	%r13d, %edx
	movq	%rbx, %rsi
	movq	%r12, %rdi
	addl	$1, %r15d
	call	*%rbp
.L768:
	movl	%r13d, %edx
	movq	%rbx, %rsi
	movq	%r12, %rdi
	addl	$1, %r15d
	call	*%rbp
.L767:
	movl	%r13d, %edx
	movq	%rbx, %rsi
	movq	%r12, %rdi
	addl	$1, %r15d
	call	*%rbp
.L766:
	movl	%r13d, %edx
	movq	%rbx, %rsi
	movq	%r12, %rdi
	addl	$1, %r15d
	call	*%rbp
.L765:
	movl	%r13d, %edx
	movq	%rbx, %rsi
	movq	%r12, %rdi
	addl	$1, %r15d
	call	*%rbp
	movl	(%rsp), %r8d
	cmpl	%r8d, %r15d
	jge	.L785
.L708:
	movl	%r13d, %edx
	movq	%rbx, %rsi
	movq	%r12, %rdi
	addl	$8, %r15d
	call	*%rbp
	movl	%r13d, %edx
	movq	%rbx, %rsi
	movq	%r12, %rdi
	call	*%rbp
	movl	%r13d, %edx
	movq	%rbx, %rsi
	movq	%r12, %rdi
	call	*%rbp
	movl	%r13d, %edx
	movq	%rbx, %rsi
	movq	%r12, %rdi
	call	*%rbp
	movl	%r13d, %edx
	movq	%rbx, %rsi
	movq	%r12, %rdi
	call	*%rbp
	movl	%r13d, %edx
	movq	%rbx, %rsi
	movq	%r12, %rdi
	call	*%rbp
	movl	%r13d, %edx
	movq	%rbx, %rsi
	movq	%r12, %rdi
	call	*%rbp
	movl	%r13d, %edx
	movq	%rbx, %rsi
	movq	%r12, %rdi
	call	*%rbp
	movl	(%rsp), %r9d
	cmpl	%r9d, %r15d
	jl	.L708
.L785:
	call	_ZNSt6chrono3_V212system_clock3nowEv@PLT
	movl	$0x00000000, 28(%rsp)
	movq	%rax, (%rsp)
.L712:
	movl	%r14d, %r10d
	xorl	%r15d, %r15d
	andl	$7, %r10d
	je	.L711
	cmpl	$1, %r10d
	je	.L759
	cmpl	$2, %r10d
	je	.L760
	cmpl	$3, %r10d
	je	.L761
	cmpl	$4, %r10d
	je	.L762
	cmpl	$5, %r10d
	je	.L763
	cmpl	$6, %r10d
	jne	.L789
.L764:
	movl	%r13d, %edx
	movq	%rbx, %rsi
	movq	%r12, %rdi
	addl	$1, %r15d
	call	*%rbp
	vmovss	28(%rsp), %xmm2
	vaddss	(%rbx), %xmm2, %xmm3
	vmovss	%xmm3, 28(%rsp)
.L763:
	movl	%r13d, %edx
	movq	%rbx, %rsi
	movq	%r12, %rdi
	addl	$1, %r15d
	call	*%rbp
	vmovss	28(%rsp), %xmm4
	vaddss	(%rbx), %xmm4, %xmm5
	vmovss	%xmm5, 28(%rsp)
.L762:
	movl	%r13d, %edx
	movq	%rbx, %rsi
	movq	%r12, %rdi
	addl	$1, %r15d
	call	*%rbp
	vmovss	28(%rsp), %xmm6
	vaddss	(%rbx), %xmm6, %xmm7
	vmovss	%xmm7, 28(%rsp)
.L761:
	movl	%r13d, %edx
	movq	%rbx, %rsi
	movq	%r12, %rdi
	addl	$1, %r15d
	call	*%rbp
	vmovss	28(%rsp), %xmm8
	vaddss	(%rbx), %xmm8, %xmm9
	vmovss	%xmm9, 28(%rsp)
.L760:
	movl	%r13d, %edx
	movq	%rbx, %rsi
	movq	%r12, %rdi
	addl	$1, %r15d
	call	*%rbp
	vmovss	28(%rsp), %xmm10
	vaddss	(%rbx), %xmm10, %xmm11
	vmovss	%xmm11, 28(%rsp)
.L759:
	movl	%r13d, %edx
	movq	%rbx, %rsi
	movq	%r12, %rdi
	addl	$1, %r15d
	call	*%rbp
	vmovss	28(%rsp), %xmm12
	vaddss	(%rbx), %xmm12, %xmm13
	vmovss	%xmm13, 28(%rsp)
	cmpl	%r15d, %r14d
	je	.L710
.L711:
	movl	%r13d, %edx
	movq	%rbx, %rsi
	movq	%r12, %rdi
	addl	$8, %r15d
	call	*%rbp
	vmovss	28(%rsp), %xmm14
	vaddss	(%rbx), %xmm14, %xmm15
	movl	%r13d, %edx
	movq	%rbx, %rsi
	movq	%r12, %rdi
	vmovss	%xmm15, 28(%rsp)
	call	*%rbp
	vmovss	28(%rsp), %xmm0
	vaddss	(%rbx), %xmm0, %xmm1
	movl	%r13d, %edx
	movq	%rbx, %rsi
	movq	%r12, %rdi
	vmovss	%xmm1, 28(%rsp)
	call	*%rbp
	vmovss	28(%rsp), %xmm2
	vaddss	(%rbx), %xmm2, %xmm3
	movl	%r13d, %edx
	movq	%rbx, %rsi
	movq	%r12, %rdi
	vmovss	%xmm3, 28(%rsp)
	call	*%rbp
	vmovss	28(%rsp), %xmm4
	vaddss	(%rbx), %xmm4, %xmm5
	movl	%r13d, %edx
	movq	%rbx, %rsi
	movq	%r12, %rdi
	vmovss	%xmm5, 28(%rsp)
	call	*%rbp
	vmovss	28(%rsp), %xmm6
	vaddss	(%rbx), %xmm6, %xmm7
	movl	%r13d, %edx
	movq	%rbx, %rsi
	movq	%r12, %rdi
	vmovss	%xmm7, 28(%rsp)
	call	*%rbp
	vmovss	28(%rsp), %xmm8
	vaddss	(%rbx), %xmm8, %xmm9
	movl	%r13d, %edx
	movq	%rbx, %rsi
	movq	%r12, %rdi
	vmovss	%xmm9, 28(%rsp)
	call	*%rbp
	vmovss	28(%rsp), %xmm10
	vaddss	(%rbx), %xmm10, %xmm11
	movl	%r13d, %edx
	movq	%rbx, %rsi
	movq	%r12, %rdi
	vmovss	%xmm11, 28(%rsp)
	call	*%rbp
	vmovss	28(%rsp), %xmm12
	vaddss	(%rbx), %xmm12, %xmm13
	vmovss	%xmm13, 28(%rsp)
	cmpl	%r15d, %r14d
	jne	.L711
.L710:
	call	_ZNSt6chrono3_V212system_clock3nowEv@PLT
	movq	(%rsp), %r11
	vxorpd	%xmm14, %xmm14, %xmm14
	subq	%r11, %rax
	vcvtsi2sdq	%rax, %xmm14, %xmm15
	vmulsd	.LC8(%rip), %xmm15, %xmm0
	vmovsd	%xmm0, (%rsp)
	call	omp_get_max_threads@PLT
	movl	%eax, %edi
	call	omp_set_num_threads@PLT
	vxorpd	%xmm1, %xmm1, %xmm1
	vmovsd	(%rsp), %xmm3
	addq	$40, %rsp
	.cfi_remember_state
	.cfi_def_cfa_offset 56
	vcvtsi2sdl	%r14d, %xmm1, %xmm2
	popq	%rbx
	.cfi_def_cfa_offset 48
	popq	%rbp
	.cfi_def_cfa_offset 40
	popq	%r12
	.cfi_def_cfa_offset 32
	popq	%r13
	.cfi_def_cfa_offset 24
	popq	%r14
	.cfi_def_cfa_offset 16
	popq	%r15
	.cfi_def_cfa_offset 8
	vdivsd	%xmm2, %xmm3, %xmm0
	ret
	.p2align 4,,10
	.p2align 3
.L789:
	.cfi_restore_state
	movl	%r13d, %edx
	movq	%rbx, %rsi
	movq	%r12, %rdi
	movl	$1, %r15d
	call	*%rbp
	vmovss	28(%rsp), %xmm0
	vaddss	(%rbx), %xmm0, %xmm1
	vmovss	%xmm1, 28(%rsp)
	jmp	.L764
	.p2align 4,,10
	.p2align 3
.L707:
	call	_ZNSt6chrono3_V212system_clock3nowEv@PLT
	movl	$0x00000000, 28(%rsp)
	movq	%rax, (%rsp)
	testl	%r15d, %r15d
	jle	.L710
	jmp	.L712
	.cfi_endproc
.LFE14028:
	.size	_Z9benchmarkPFvPKfPfiES0_S1_iii.constprop.0, .-_Z9benchmarkPFvPKfPfiES0_S1_iii.constprop.0
	.align 2
	.p2align 4
	.type	_ZNSt7__cxx1112basic_stringIcSt11char_traitsIcESaIcEEaSEOS4_.isra.0, @function
_ZNSt7__cxx1112basic_stringIcSt11char_traitsIcESaIcEEaSEOS4_.isra.0:
.LFB14029:
	.cfi_startproc
	pushq	%rbp
	.cfi_def_cfa_offset 16
	.cfi_offset 6, -16
	movq	%rdi, %rbp
	pushq	%rbx
	.cfi_def_cfa_offset 24
	.cfi_offset 3, -24
	leaq	16(%rbp), %rax
	movq	%rsi, %rbx
	leaq	16(%rbx), %r8
	subq	$8, %rsp
	.cfi_def_cfa_offset 32
	movq	(%rdi), %rdi
	movq	(%rsi), %rsi
	movq	8(%rbx), %rdx
	cmpq	%rax, %rdi
	je	.L806
	cmpq	%rsi, %r8
	je	.L792
	movq	%rsi, 0(%rbp)
	movq	16(%rbp), %rcx
	movq	%rdx, 8(%rbp)
	movq	16(%rbx), %rdx
	movq	%rdx, 16(%rbp)
	testq	%rdi, %rdi
	je	.L800
	movq	%rdi, (%rbx)
	movq	%rcx, 16(%rbx)
.L795:
	movq	$0, 8(%rbx)
	movb	$0, (%rdi)
	addq	$8, %rsp
	.cfi_remember_state
	.cfi_def_cfa_offset 24
	popq	%rbx
	.cfi_def_cfa_offset 16
	popq	%rbp
	.cfi_def_cfa_offset 8
	ret
	.p2align 4,,10
	.p2align 3
.L806:
	.cfi_restore_state
	cmpq	%rsi, %r8
	je	.L792
	movq	%rsi, 0(%rbp)
	movq	%r8, %rdi
	movq	%rdx, 8(%rbp)
	movq	16(%rbx), %rsi
	movq	%rsi, 16(%rbp)
.L798:
	movq	%rdi, (%rbx)
	jmp	.L795
	.p2align 4,,10
	.p2align 3
.L792:
	cmpq	%rbx, %rbp
	je	.L799
	testq	%rdx, %rdx
	je	.L796
	cmpq	$1, %rdx
	je	.L807
	call	memcpy@PLT
	movq	8(%rbx), %rdx
	movq	0(%rbp), %rdi
.L796:
	movq	%rdx, 8(%rbp)
	movb	$0, (%rdi,%rdx)
	movq	(%rbx), %rdi
	jmp	.L795
	.p2align 4,,10
	.p2align 3
.L800:
	movq	%r8, %rdi
	jmp	.L798
	.p2align 4,,10
	.p2align 3
.L807:
	movzbl	(%rsi), %r9d
	movb	%r9b, (%rdi)
	movq	8(%rbx), %rdx
	movq	0(%rbp), %rdi
	jmp	.L796
	.p2align 4,,10
	.p2align 3
.L799:
	movq	%rsi, %rdi
	jmp	.L795
	.cfi_endproc
.LFE14029:
	.size	_ZNSt7__cxx1112basic_stringIcSt11char_traitsIcESaIcEEaSEOS4_.isra.0, .-_ZNSt7__cxx1112basic_stringIcSt11char_traitsIcESaIcEEaSEOS4_.isra.0
	.section	.rodata.str1.1,"aMS",@progbits,1
.LC9:
	.string	"basic_string_view::substr"
	.section	.rodata.str1.8,"aMS",@progbits,1
	.align 8
.LC10:
	.string	"%s: __pos (which is %zu) > __size (which is %zu)"
	.text
	.align 2
	.p2align 4
	.type	_ZNKSt17basic_string_viewIcSt11char_traitsIcEE6substrEmm.isra.0, @function
_ZNKSt17basic_string_viewIcSt11char_traitsIcEE6substrEmm.isra.0:
.LFB14031:
	.cfi_startproc
	cmpq	%rdx, %rdi
	jb	.L813
	subq	%rdx, %rdi
	movq	%rcx, %rax
	cmpq	%rcx, %rdi
	cmovbe	%rdi, %rax
	addq	%rsi, %rdx
	ret
.L813:
	pushq	%rax
	.cfi_def_cfa_offset 16
	movq	%rdi, %rcx
	leaq	.LC9(%rip), %rsi
	xorl	%eax, %eax
	leaq	.LC10(%rip), %rdi
	call	_ZSt24__throw_out_of_range_fmtPKcz@PLT
	.cfi_endproc
.LFE14031:
	.size	_ZNKSt17basic_string_viewIcSt11char_traitsIcEE6substrEmm.isra.0, .-_ZNKSt17basic_string_viewIcSt11char_traitsIcEE6substrEmm.isra.0
	.p2align 4
	.type	_ZSt4endlIcSt11char_traitsIcEERSt13basic_ostreamIT_T0_ES6_.isra.0, @function
_ZSt4endlIcSt11char_traitsIcEERSt13basic_ostreamIT_T0_ES6_.isra.0:
.LFB14033:
	.cfi_startproc
	pushq	%rbp
	.cfi_def_cfa_offset 16
	.cfi_offset 6, -16
	pushq	%rbx
	.cfi_def_cfa_offset 24
	.cfi_offset 3, -24
	subq	$8, %rsp
	.cfi_def_cfa_offset 32
	movq	(%rdi), %rax
	movq	-24(%rax), %rdx
	movq	240(%rdi,%rdx), %rbp
	testq	%rbp, %rbp
	je	.L820
	cmpb	$0, 56(%rbp)
	movq	%rdi, %rbx
	je	.L816
	movsbl	67(%rbp), %esi
.L817:
	movq	%rbx, %rdi
	call	_ZNSo3putEc@PLT
	addq	$8, %rsp
	.cfi_remember_state
	.cfi_def_cfa_offset 24
	popq	%rbx
	.cfi_def_cfa_offset 16
	movq	%rax, %rdi
	popq	%rbp
	.cfi_def_cfa_offset 8
	jmp	_ZNSo5flushEv@PLT
	.p2align 4,,10
	.p2align 3
.L816:
	.cfi_restore_state
	movq	%rbp, %rdi
	call	_ZNKSt5ctypeIcE13_M_widen_initEv@PLT
	movq	0(%rbp), %rcx
	movl	$10, %esi
	leaq	_ZNKSt5ctypeIcE8do_widenEc(%rip), %rdi
	movq	48(%rcx), %rax
	cmpq	%rdi, %rax
	je	.L817
	movq	%rbp, %rdi
	call	*%rax
	movsbl	%al, %esi
	jmp	.L817
.L820:
	call	_ZSt16__throw_bad_castv@PLT
	.cfi_endproc
.LFE14033:
	.size	_ZSt4endlIcSt11char_traitsIcEERSt13basic_ostreamIT_T0_ES6_.isra.0, .-_ZSt4endlIcSt11char_traitsIcEERSt13basic_ostreamIT_T0_ES6_.isra.0
	.section	.text._ZNSt8__format10_Iter_sinkIcNS_10_Sink_iterIcEEE11_M_overflowEv,"axG",@progbits,_ZNSt8__format10_Iter_sinkIcNS_10_Sink_iterIcEEE11_M_overflowEv,comdat
	.align 2
	.p2align 4
	.weak	_ZNSt8__format10_Iter_sinkIcNS_10_Sink_iterIcEEE11_M_overflowEv
	.type	_ZNSt8__format10_Iter_sinkIcNS_10_Sink_iterIcEEE11_M_overflowEv, @function
_ZNSt8__format10_Iter_sinkIcNS_10_Sink_iterIcEEE11_M_overflowEv:
.LFB13500:
	.cfi_startproc
	endbr64
	pushq	%r15
	.cfi_def_cfa_offset 16
	.cfi_offset 15, -16
	pushq	%r14
	.cfi_def_cfa_offset 24
	.cfi_offset 14, -24
	pushq	%r13
	.cfi_def_cfa_offset 32
	.cfi_offset 13, -32
	pushq	%r12
	.cfi_def_cfa_offset 40
	.cfi_offset 12, -40
	movq	%rdi, %r12
	pushq	%rbp
	.cfi_def_cfa_offset 48
	.cfi_offset 6, -48
	pushq	%rbx
	.cfi_def_cfa_offset 56
	.cfi_offset 3, -56
	subq	$8, %rsp
	.cfi_def_cfa_offset 64
	movq	24(%rdi), %r13
	movq	8(%rdi), %rbp
	movq	296(%rdi), %rax
	movq	%r13, %r14
	subq	%rbp, %r14
	testq	%rax, %rax
	js	.L879
	movq	304(%rdi), %r15
	cmpq	%rax, %r15
	jnb	.L826
	subq	%r15, %rax
	movq	288(%rdi), %rbx
	cmpq	%r14, %rax
	cmova	%r14, %rax
	testq	%rax, %rax
	jle	.L827
	leaq	0(%rbp,%rax), %r15
	andl	$3, %eax
	je	.L829
	cmpq	$1, %rax
	je	.L864
	cmpq	$2, %rax
	je	.L865
	movq	24(%rbx), %rsi
	movzbl	0(%rbp), %edx
	leaq	1(%rsi), %rcx
	movq	%rcx, 24(%rbx)
	movb	%dl, (%rsi)
	movq	24(%rbx), %rdi
	subq	8(%rbx), %rdi
	cmpq	16(%rbx), %rdi
	je	.L880
.L847:
	addq	$1, %rbp
.L865:
	movq	24(%rbx), %r10
	movzbl	0(%rbp), %r9d
	leaq	1(%r10), %r11
	movq	%r11, 24(%rbx)
	movb	%r9b, (%r10)
	movq	24(%rbx), %r13
	subq	8(%rbx), %r13
	cmpq	16(%rbx), %r13
	je	.L881
.L850:
	addq	$1, %rbp
.L864:
	movq	24(%rbx), %rsi
	movzbl	0(%rbp), %edx
	leaq	1(%rsi), %rcx
	movq	%rcx, 24(%rbx)
	movb	%dl, (%rsi)
	movq	24(%rbx), %rdi
	subq	8(%rbx), %rdi
	cmpq	16(%rbx), %rdi
	je	.L882
.L853:
	addq	$1, %rbp
	cmpq	%r15, %rbp
	je	.L877
.L829:
	movq	24(%rbx), %r10
	movzbl	0(%rbp), %r9d
	leaq	1(%r10), %r11
	movq	%r11, 24(%rbx)
	movb	%r9b, (%r10)
	movq	24(%rbx), %r13
	subq	8(%rbx), %r13
	cmpq	16(%rbx), %r13
	je	.L883
.L828:
	movq	24(%rbx), %rdx
	leaq	1(%rbp), %r13
	movzbl	1(%rbp), %ebp
	leaq	1(%rdx), %rsi
	movq	%rsi, 24(%rbx)
	movb	%bpl, (%rdx)
	movq	24(%rbx), %rcx
	subq	8(%rbx), %rcx
	cmpq	16(%rbx), %rcx
	je	.L884
.L856:
	movq	24(%rbx), %r9
	movzbl	1(%r13), %edi
	leaq	1(%r9), %r10
	movq	%r10, 24(%rbx)
	movb	%dil, (%r9)
	movq	24(%rbx), %r11
	subq	8(%rbx), %r11
	cmpq	16(%rbx), %r11
	je	.L885
.L858:
	movq	24(%rbx), %rdx
	movzbl	2(%r13), %ebp
	leaq	1(%rdx), %rsi
	movq	%rsi, 24(%rbx)
	movb	%bpl, (%rdx)
	movq	24(%rbx), %rcx
	subq	8(%rbx), %rcx
	cmpq	16(%rbx), %rcx
	je	.L886
.L860:
	leaq	3(%r13), %rbp
	cmpq	%r15, %rbp
	jne	.L829
.L877:
	movq	8(%r12), %rbp
	movq	304(%r12), %r15
.L827:
	movq	%rbx, 288(%r12)
.L826:
	addq	%r14, %r15
	movq	%rbp, 24(%r12)
	movq	%r15, 304(%r12)
	addq	$8, %rsp
	.cfi_remember_state
	.cfi_def_cfa_offset 56
	popq	%rbx
	.cfi_def_cfa_offset 48
	popq	%rbp
	.cfi_def_cfa_offset 40
	popq	%r12
	.cfi_def_cfa_offset 32
	popq	%r13
	.cfi_def_cfa_offset 24
	popq	%r14
	.cfi_def_cfa_offset 16
	popq	%r15
	.cfi_def_cfa_offset 8
	ret
	.p2align 4,,10
	.p2align 3
.L879:
	.cfi_restore_state
	movq	288(%rdi), %rbx
	testq	%r14, %r14
	jle	.L823
	movq	%r14, %rdi
	andl	$3, %edi
	je	.L825
	cmpq	$1, %rdi
	je	.L862
	cmpq	$2, %rdi
	je	.L863
	movq	24(%rbx), %r10
	movzbl	0(%rbp), %r9d
	leaq	1(%r10), %r11
	movq	%r11, 24(%rbx)
	movb	%r9b, (%r10)
	movq	24(%rbx), %rax
	subq	8(%rbx), %rax
	cmpq	16(%rbx), %rax
	je	.L887
.L832:
	addq	$1, %rbp
.L863:
	movq	24(%rbx), %r8
	movzbl	0(%rbp), %esi
	leaq	1(%r8), %rcx
	movq	%rcx, 24(%rbx)
	movb	%sil, (%r8)
	movq	24(%rbx), %r15
	subq	8(%rbx), %r15
	cmpq	16(%rbx), %r15
	je	.L888
.L835:
	addq	$1, %rbp
.L862:
	movq	24(%rbx), %r10
	movzbl	0(%rbp), %edi
	leaq	1(%r10), %r11
	movq	%r11, 24(%rbx)
	movb	%dil, (%r10)
	movq	24(%rbx), %rax
	subq	8(%rbx), %rax
	cmpq	16(%rbx), %rax
	je	.L889
.L838:
	addq	$1, %rbp
	cmpq	%rbp, %r13
	je	.L876
.L825:
	movq	24(%rbx), %r8
	movzbl	0(%rbp), %esi
	leaq	1(%r8), %rcx
	movq	%rcx, 24(%rbx)
	movb	%sil, (%r8)
	movq	24(%rbx), %r15
	subq	8(%rbx), %r15
	cmpq	16(%rbx), %r15
	je	.L890
.L824:
	movq	24(%rbx), %rdi
	leaq	1(%rbp), %r15
	movzbl	1(%rbp), %ebp
	leaq	1(%rdi), %r10
	movq	%r10, 24(%rbx)
	movb	%bpl, (%rdi)
	movq	24(%rbx), %r11
	subq	8(%rbx), %r11
	cmpq	16(%rbx), %r11
	je	.L891
.L841:
	movq	24(%rbx), %rsi
	movzbl	1(%r15), %edx
	leaq	1(%rsi), %r8
	movq	%r8, 24(%rbx)
	movb	%dl, (%rsi)
	movq	24(%rbx), %rcx
	subq	8(%rbx), %rcx
	cmpq	16(%rbx), %rcx
	je	.L892
.L843:
	movq	24(%rbx), %rdi
	movzbl	2(%r15), %ebp
	leaq	1(%rdi), %r10
	movq	%r10, 24(%rbx)
	movb	%bpl, (%rdi)
	movq	24(%rbx), %r11
	subq	8(%rbx), %r11
	cmpq	16(%rbx), %r11
	je	.L893
.L845:
	leaq	3(%r15), %rbp
	cmpq	%rbp, %r13
	jne	.L825
.L876:
	movq	8(%r12), %rbp
.L823:
	movq	%rbx, 288(%r12)
	movq	304(%r12), %r15
	jmp	.L826
	.p2align 4,,10
	.p2align 3
.L890:
	movq	(%rbx), %r9
	movq	%rbx, %rdi
	call	*(%r9)
	jmp	.L824
	.p2align 4,,10
	.p2align 3
.L893:
	movq	(%rbx), %rax
	movq	%rbx, %rdi
	call	*(%rax)
	jmp	.L845
	.p2align 4,,10
	.p2align 3
.L892:
	movq	(%rbx), %r9
	movq	%rbx, %rdi
	call	*(%r9)
	jmp	.L843
	.p2align 4,,10
	.p2align 3
.L891:
	movq	(%rbx), %rax
	movq	%rbx, %rdi
	call	*(%rax)
	jmp	.L841
	.p2align 4,,10
	.p2align 3
.L886:
	movq	(%rbx), %r8
	movq	%rbx, %rdi
	call	*(%r8)
	jmp	.L860
	.p2align 4,,10
	.p2align 3
.L885:
	movq	(%rbx), %rax
	movq	%rbx, %rdi
	call	*(%rax)
	jmp	.L858
	.p2align 4,,10
	.p2align 3
.L884:
	movq	(%rbx), %r8
	movq	%rbx, %rdi
	call	*(%r8)
	jmp	.L856
	.p2align 4,,10
	.p2align 3
.L883:
	movq	(%rbx), %rax
	movq	%rbx, %rdi
	call	*(%rax)
	jmp	.L828
.L889:
	movq	(%rbx), %rdx
	movq	%rbx, %rdi
	call	*(%rdx)
	jmp	.L838
.L882:
	movq	(%rbx), %r8
	movq	%rbx, %rdi
	call	*(%r8)
	jmp	.L853
.L888:
	movq	(%rbx), %r9
	movq	%rbx, %rdi
	call	*(%r9)
	jmp	.L835
.L881:
	movq	(%rbx), %rax
	movq	%rbx, %rdi
	call	*(%rax)
	jmp	.L850
.L887:
	movq	(%rbx), %rdx
	movq	%rbx, %rdi
	call	*(%rdx)
	jmp	.L832
.L880:
	movq	(%rbx), %r8
	movq	%rbx, %rdi
	call	*(%r8)
	jmp	.L847
	.cfi_endproc
.LFE13500:
	.size	_ZNSt8__format10_Iter_sinkIcNS_10_Sink_iterIcEEE11_M_overflowEv, .-_ZNSt8__format10_Iter_sinkIcNS_10_Sink_iterIcEEE11_M_overflowEv
	.section	.rodata.str1.1
.LC11:
	.string	"basic_string::_M_replace_aux"
.LC12:
	.string	"basic_string::_M_create"
	.text
	.align 2
	.p2align 4
	.type	_ZNSt7__cxx1112basic_stringIcSt11char_traitsIcESaIcEE14_M_replace_auxEmmmc.isra.0, @function
_ZNSt7__cxx1112basic_stringIcSt11char_traitsIcESaIcEE14_M_replace_auxEmmmc.isra.0:
.LFB14035:
	.cfi_startproc
	movabsq	$9223372036854775807, %rax
	pushq	%r15
	.cfi_def_cfa_offset 16
	.cfi_offset 15, -16
	pushq	%r14
	.cfi_def_cfa_offset 24
	.cfi_offset 14, -24
	addq	%rdx, %rax
	pushq	%r13
	.cfi_def_cfa_offset 32
	.cfi_offset 13, -32
	pushq	%r12
	.cfi_def_cfa_offset 40
	.cfi_offset 12, -40
	pushq	%rbp
	.cfi_def_cfa_offset 48
	.cfi_offset 6, -48
	pushq	%rbx
	.cfi_def_cfa_offset 56
	.cfi_offset 3, -56
	subq	$40, %rsp
	.cfi_def_cfa_offset 96
	movq	8(%rdi), %r13
	movl	%r8d, 4(%rsp)
	subq	%r13, %rax
	cmpq	%rcx, %rax
	jb	.L933
	movq	%rcx, %r8
	movq	(%rdi), %rax
	leaq	16(%rdi), %r10
	movq	%rdi, %rbx
	subq	%rdx, %r8
	movq	%rsi, %r9
	movq	%rdx, %rbp
	movq	%rcx, %r12
	leaq	(%r8,%r13), %r14
	cmpq	%r10, %rax
	je	.L934
	movq	16(%rdi), %r15
	cmpq	%r14, %r15
	jb	.L935
.L897:
	leaq	0(%rbp,%r9), %rdi
	subq	%rdi, %r13
	je	.L901
	cmpq	%r12, %rbp
	je	.L901
	addq	%r9, %rax
	leaq	(%rax,%rbp), %rsi
	leaq	(%rax,%r12), %rdi
	cmpq	$1, %r13
	je	.L936
	movq	%r13, %rdx
	movq	%r9, 8(%rsp)
	call	memmove@PLT
	movq	(%rbx), %rax
	movq	8(%rsp), %r9
.L901:
	testq	%r12, %r12
	je	.L914
.L941:
	leaq	(%rax,%r9), %rdi
	cmpq	$1, %r12
	je	.L937
	movsbl	4(%rsp), %esi
	movq	%r12, %rdx
	call	memset@PLT
	movq	(%rbx), %rax
.L914:
	movq	%r14, 8(%rbx)
	movb	$0, (%rax,%r14)
	addq	$40, %rsp
	.cfi_remember_state
	.cfi_def_cfa_offset 56
	popq	%rbx
	.cfi_def_cfa_offset 48
	popq	%rbp
	.cfi_def_cfa_offset 40
	popq	%r12
	.cfi_def_cfa_offset 32
	popq	%r13
	.cfi_def_cfa_offset 24
	popq	%r14
	.cfi_def_cfa_offset 16
	popq	%r15
	.cfi_def_cfa_offset 8
	ret
	.p2align 4,,10
	.p2align 3
.L935:
	.cfi_restore_state
	testq	%r14, %r14
	js	.L898
	addq	%rsi, %rbp
	addq	%r15, %r15
	subq	%rbp, %r13
	cmpq	%r15, %r14
	jb	.L938
.L904:
	movq	%r14, %rdi
	movq	%r14, %r15
	addq	$1, %rdi
	js	.L905
.L906:
	movq	%r9, 16(%rsp)
	movq	%r10, 8(%rsp)
	call	_Znwm@PLT
	movq	16(%rsp), %r9
	movq	(%rbx), %r11
	movq	8(%rsp), %r8
	testq	%r9, %r9
	je	.L908
	cmpq	$1, %r9
	je	.L939
	movq	%r9, %rdx
	movq	%r11, %rsi
	movq	%rax, %rdi
	movq	%r8, 24(%rsp)
	movq	%r9, 16(%rsp)
	movq	%r11, 8(%rsp)
	call	memcpy@PLT
	movq	24(%rsp), %r8
	movq	16(%rsp), %r9
	movq	8(%rsp), %r11
.L908:
	testq	%r13, %r13
	jne	.L940
.L911:
	cmpq	%r11, %r8
	je	.L913
	movq	16(%rbx), %rcx
	movq	%r11, %rdi
	movq	%r9, 16(%rsp)
	movq	%rax, 8(%rsp)
	leaq	1(%rcx), %rsi
	call	_ZdlPvm@PLT
	movq	16(%rsp), %r9
	movq	8(%rsp), %rax
.L913:
	movq	%rax, (%rbx)
	movq	%r15, 16(%rbx)
	testq	%r12, %r12
	je	.L914
	jmp	.L941
	.p2align 4,,10
	.p2align 3
.L940:
	leaq	(%r12,%r9), %rdi
	leaq	(%r11,%rbp), %rsi
	addq	%rax, %rdi
	cmpq	$1, %r13
	je	.L942
	movq	%r13, %rdx
	movq	%r9, 24(%rsp)
	movq	%r8, 8(%rsp)
	movq	%rax, 16(%rsp)
	call	memcpy@PLT
	movq	(%rbx), %r11
	movq	24(%rsp), %r9
	movq	16(%rsp), %rax
	movq	8(%rsp), %r8
	jmp	.L911
	.p2align 4,,10
	.p2align 3
.L938:
	leaq	1(%r15), %rdi
	testq	%r15, %r15
	jns	.L906
.L905:
	call	_ZSt17__throw_bad_allocv@PLT
	.p2align 4,,10
	.p2align 3
.L934:
	cmpq	$15, %r14
	jbe	.L897
	testq	%r14, %r14
	js	.L898
	addq	%rsi, %rbp
	subq	%rbp, %r13
	cmpq	$29, %r14
	ja	.L904
	movl	$31, %edi
	movl	$30, %r15d
	jmp	.L906
	.p2align 4,,10
	.p2align 3
.L937:
	movzbl	4(%rsp), %ebp
	movb	%bpl, (%rdi)
	movq	(%rbx), %rax
	jmp	.L914
	.p2align 4,,10
	.p2align 3
.L936:
	movzbl	(%rsi), %r13d
	movb	%r13b, (%rdi)
	movq	(%rbx), %rax
	testq	%r12, %r12
	je	.L914
	jmp	.L941
	.p2align 4,,10
	.p2align 3
.L942:
	movzbl	(%rsi), %esi
	movb	%sil, (%rdi)
	movq	(%rbx), %r11
	jmp	.L911
	.p2align 4,,10
	.p2align 3
.L939:
	movzbl	(%r11), %edx
	movb	%dl, (%rax)
	jmp	.L908
.L933:
	leaq	.LC11(%rip), %rdi
	call	_ZSt20__throw_length_errorPKc@PLT
.L898:
	leaq	.LC12(%rip), %rdi
	call	_ZSt20__throw_length_errorPKc@PLT
	.cfi_endproc
.LFE14035:
	.size	_ZNSt7__cxx1112basic_stringIcSt11char_traitsIcESaIcEE14_M_replace_auxEmmmc.isra.0, .-_ZNSt7__cxx1112basic_stringIcSt11char_traitsIcESaIcEE14_M_replace_auxEmmmc.isra.0
	.section	.text._ZNSt8__format19_Formatting_scannerINS_10_Sink_iterIcEEcE11_M_on_charsEPKc,"axG",@progbits,_ZNSt8__format19_Formatting_scannerINS_10_Sink_iterIcEEcE11_M_on_charsEPKc,comdat
	.align 2
	.p2align 4
	.weak	_ZNSt8__format19_Formatting_scannerINS_10_Sink_iterIcEEcE11_M_on_charsEPKc
	.type	_ZNSt8__format19_Formatting_scannerINS_10_Sink_iterIcEEcE11_M_on_charsEPKc, @function
_ZNSt8__format19_Formatting_scannerINS_10_Sink_iterIcEEcE11_M_on_charsEPKc:
.LFB13439:
	.cfi_startproc
	endbr64
	pushq	%r14
	.cfi_def_cfa_offset 16
	.cfi_offset 14, -16
	pushq	%r13
	.cfi_def_cfa_offset 24
	.cfi_offset 13, -24
	pushq	%r12
	.cfi_def_cfa_offset 32
	.cfi_offset 12, -32
	pushq	%rbp
	.cfi_def_cfa_offset 40
	.cfi_offset 6, -40
	pushq	%rbx
	.cfi_def_cfa_offset 48
	.cfi_offset 3, -48
	movq	48(%rdi), %r14
	movq	8(%rdi), %r13
	movq	16(%r14), %rbx
	subq	%r13, %rsi
	jne	.L958
.L944:
	movq	%rbx, 16(%r14)
	popq	%rbx
	.cfi_remember_state
	.cfi_def_cfa_offset 40
	popq	%rbp
	.cfi_def_cfa_offset 32
	popq	%r12
	.cfi_def_cfa_offset 24
	popq	%r13
	.cfi_def_cfa_offset 16
	popq	%r14
	.cfi_def_cfa_offset 8
	ret
	.p2align 4,,10
	.p2align 3
.L958:
	.cfi_restore_state
	movq	24(%rbx), %rdi
	movq	16(%rbx), %rbp
	movq	%rsi, %r12
	movq	%rdi, %rax
	subq	8(%rbx), %rax
	subq	%rax, %rbp
	cmpq	%rbp, %rsi
	jnb	.L949
	jmp	.L945
	.p2align 4,,10
	.p2align 3
.L960:
	movq	%r13, %rsi
	movq	%rbp, %rdx
	addq	%rbp, %r13
	subq	%rbp, %r12
	call	memcpy@PLT
	addq	%rbp, 24(%rbx)
.L957:
	movq	(%rbx), %rdx
	movq	%rbx, %rdi
	call	*(%rdx)
	movq	24(%rbx), %rdi
	movq	16(%rbx), %rbp
	movq	%rdi, %rcx
	subq	8(%rbx), %rcx
	subq	%rcx, %rbp
	cmpq	%rbp, %r12
	jb	.L959
.L949:
	testq	%rbp, %rbp
	jne	.L960
	movq	%rdi, 24(%rbx)
	jmp	.L957
	.p2align 4,,10
	.p2align 3
.L959:
	testq	%r12, %r12
	je	.L944
.L945:
	movq	%r12, %rdx
	movq	%r13, %rsi
	call	memcpy@PLT
	addq	%r12, 24(%rbx)
	movq	%rbx, 16(%r14)
	popq	%rbx
	.cfi_def_cfa_offset 40
	popq	%rbp
	.cfi_def_cfa_offset 32
	popq	%r12
	.cfi_def_cfa_offset 24
	popq	%r13
	.cfi_def_cfa_offset 16
	popq	%r14
	.cfi_def_cfa_offset 8
	ret
	.cfi_endproc
.LFE13439:
	.size	_ZNSt8__format19_Formatting_scannerINS_10_Sink_iterIcEEcE11_M_on_charsEPKc, .-_ZNSt8__format19_Formatting_scannerINS_10_Sink_iterIcEEcE11_M_on_charsEPKc
	.section	.rodata.str1.1
.LC13:
	.string	"basic_string::_M_replace"
	.section	.text.unlikely,"ax",@progbits
	.align 2
.LCOLDB14:
	.text
.LHOTB14:
	.align 2
	.p2align 4
	.type	_ZNSt7__cxx1112basic_stringIcSt11char_traitsIcESaIcEE10_M_replaceEmmPKcm.isra.0, @function
_ZNSt7__cxx1112basic_stringIcSt11char_traitsIcESaIcEE10_M_replaceEmmPKcm.isra.0:
.LFB14043:
	.cfi_startproc
	pushq	%r15
	.cfi_def_cfa_offset 16
	.cfi_offset 15, -16
	movq	%rdx, %rax
	movabsq	$9223372036854775807, %rdx
	pushq	%r14
	.cfi_def_cfa_offset 24
	.cfi_offset 14, -24
	addq	%rax, %rdx
	pushq	%r13
	.cfi_def_cfa_offset 32
	.cfi_offset 13, -32
	pushq	%r12
	.cfi_def_cfa_offset 40
	.cfi_offset 12, -40
	pushq	%rbp
	.cfi_def_cfa_offset 48
	.cfi_offset 6, -48
	pushq	%rbx
	.cfi_def_cfa_offset 56
	.cfi_offset 3, -56
	subq	$40, %rsp
	.cfi_def_cfa_offset 96
	movq	8(%rdi), %r13
	subq	%r13, %rdx
	cmpq	%r8, %rdx
	jb	.L1010
	movq	%r8, %r15
	movq	%rsi, %r9
	movq	(%rdi), %rsi
	movq	%r8, %rbp
	subq	%rax, %r15
	leaq	16(%rdi), %r8
	movq	%rdi, %rbx
	addq	%r13, %r15
	cmpq	%r8, %rsi
	je	.L1011
	movq	16(%rdi), %r14
	cmpq	%r15, %r14
	jb	.L1012
.L964:
	leaq	(%rsi,%r9), %r14
	movq	%r13, %rdx
	addq	%rax, %r9
	subq	%r9, %rdx
	cmpq	%rsi, %rcx
	jnb	.L1013
.L968:
	testq	%rdx, %rdx
	je	.L970
	cmpq	%rbp, %rax
	je	.L970
	leaq	(%r14,%rax), %rsi
	leaq	(%r14,%rbp), %rdi
	cmpq	$1, %rdx
	je	.L1014
	movq	%rcx, (%rsp)
	call	memmove@PLT
	movq	(%rsp), %rcx
.L970:
	testq	%rbp, %rbp
	je	.L1009
.L972:
	cmpq	$1, %rbp
	je	.L1015
	movq	%rbp, %rdx
	movq	%rcx, %rsi
	movq	%r14, %rdi
	call	memcpy@PLT
	movq	(%rbx), %r12
	jmp	.L973
	.p2align 4,,10
	.p2align 3
.L1015:
	movzbl	(%rcx), %ebp
	movb	%bpl, (%r14)
.L1009:
	movq	(%rbx), %r12
.L973:
	movq	%r15, 8(%rbx)
	movb	$0, (%r12,%r15)
	addq	$40, %rsp
	.cfi_remember_state
	.cfi_def_cfa_offset 56
	popq	%rbx
	.cfi_def_cfa_offset 48
	popq	%rbp
	.cfi_def_cfa_offset 40
	popq	%r12
	.cfi_def_cfa_offset 32
	popq	%r13
	.cfi_def_cfa_offset 24
	popq	%r14
	.cfi_def_cfa_offset 16
	popq	%r15
	.cfi_def_cfa_offset 8
	ret
	.p2align 4,,10
	.p2align 3
.L1013:
	.cfi_restore_state
	addq	%r13, %rsi
	cmpq	%rcx, %rsi
	jnb	.L969
	jmp	.L968
	.p2align 4,,10
	.p2align 3
.L1012:
	testq	%r15, %r15
	js	.L965
	addq	%r9, %rax
	addq	%r14, %r14
	movq	%rax, 24(%rsp)
	subq	%rax, %r13
	cmpq	%r14, %r15
	jb	.L1016
.L976:
	movq	%r15, %rdi
	movq	%r15, %r14
	addq	$1, %rdi
	js	.L977
.L978:
	movq	%rcx, 16(%rsp)
	movq	%r9, 8(%rsp)
	movq	%r8, (%rsp)
	call	_Znwm@PLT
	movq	8(%rsp), %r10
	movq	(%rsp), %r9
	movq	16(%rsp), %rcx
	movq	%rax, %r12
	testq	%r10, %r10
	je	.L979
	movq	(%rbx), %rsi
	cmpq	$1, %r10
	je	.L1017
	movq	%r10, %rdx
	movq	%rax, %rdi
	movq	%rcx, 16(%rsp)
	movq	%r9, 8(%rsp)
	movq	%r10, (%rsp)
	call	memcpy@PLT
	movq	16(%rsp), %rcx
	movq	8(%rsp), %r9
	movq	(%rsp), %r10
.L979:
	testq	%rcx, %rcx
	je	.L981
	testq	%rbp, %rbp
	je	.L981
	leaq	(%r12,%r10), %rdi
	cmpq	$1, %rbp
	je	.L1018
	movq	%rbp, %rdx
	movq	%rcx, %rsi
	movq	%r10, 8(%rsp)
	movq	%r9, (%rsp)
	call	memcpy@PLT
	movq	8(%rsp), %r10
	movq	(%rsp), %r9
.L981:
	movq	(%rbx), %rdx
	testq	%r13, %r13
	jne	.L1019
.L983:
	cmpq	%rdx, %r9
	je	.L985
	movq	16(%rbx), %r13
	movq	%rdx, %rdi
	leaq	1(%r13), %rsi
	call	_ZdlPvm@PLT
.L985:
	movq	%r12, (%rbx)
	movq	%r14, 16(%rbx)
	jmp	.L973
	.p2align 4,,10
	.p2align 3
.L1019:
	movq	24(%rsp), %rsi
	addq	%r10, %rbp
	leaq	(%r12,%rbp), %rdi
	addq	%rdx, %rsi
	cmpq	$1, %r13
	je	.L1020
	movq	%rdx, 8(%rsp)
	movq	%r13, %rdx
	movq	%r9, (%rsp)
	call	memcpy@PLT
	movq	8(%rsp), %rdx
	movq	(%rsp), %r9
	jmp	.L983
	.p2align 4,,10
	.p2align 3
.L1016:
	leaq	1(%r14), %rdi
	testq	%r14, %r14
	jns	.L978
.L977:
	call	_ZSt17__throw_bad_allocv@PLT
	.p2align 4,,10
	.p2align 3
.L1011:
	cmpq	$15, %r15
	jbe	.L964
	testq	%r15, %r15
	js	.L965
	addq	%r9, %rax
	movq	%rax, 24(%rsp)
	subq	%rax, %r13
	cmpq	$29, %r15
	ja	.L976
	movl	$31, %edi
	movl	$30, %r14d
	jmp	.L978
	.p2align 4,,10
	.p2align 3
.L1014:
	movzbl	(%rsi), %esi
	movb	%sil, (%rdi)
	testq	%rbp, %rbp
	jne	.L972
	jmp	.L1009
	.p2align 4,,10
	.p2align 3
.L1020:
	movzbl	(%rsi), %eax
	movb	%al, (%rdi)
	jmp	.L983
	.p2align 4,,10
	.p2align 3
.L1018:
	movzbl	(%rcx), %r11d
	movb	%r11b, (%rdi)
	jmp	.L981
	.p2align 4,,10
	.p2align 3
.L1017:
	movzbl	(%rsi), %edi
	movb	%dil, (%rax)
	jmp	.L979
.L1010:
	leaq	.LC13(%rip), %rdi
	call	_ZSt20__throw_length_errorPKc@PLT
.L965:
	leaq	.LC12(%rip), %rdi
	call	_ZSt20__throw_length_errorPKc@PLT
	.cfi_endproc
	.section	.text.unlikely
	.cfi_startproc
	.type	_ZNSt7__cxx1112basic_stringIcSt11char_traitsIcESaIcEE10_M_replaceEmmPKcm.isra.0.cold, @function
_ZNSt7__cxx1112basic_stringIcSt11char_traitsIcESaIcEE10_M_replaceEmmPKcm.isra.0.cold:
.LFSB14043:
.L969:
	.cfi_def_cfa_offset 96
	.cfi_offset 3, -56
	.cfi_offset 6, -48
	.cfi_offset 12, -40
	.cfi_offset 13, -32
	.cfi_offset 14, -24
	.cfi_offset 15, -16
	movq	%rdx, %r9
	movq	%rbp, %r8
	movq	%rax, %rdx
	movq	%r14, %rsi
	movq	%rbx, %rdi
	call	_ZNSt7__cxx1112basic_stringIcSt11char_traitsIcESaIcEE15_M_replace_coldEPcmPKcmm@PLT
	movq	(%rbx), %r12
	jmp	.L973
	.cfi_endproc
.LFE14043:
	.text
	.size	_ZNSt7__cxx1112basic_stringIcSt11char_traitsIcESaIcEE10_M_replaceEmmPKcm.isra.0, .-_ZNSt7__cxx1112basic_stringIcSt11char_traitsIcESaIcEE10_M_replaceEmmPKcm.isra.0
	.section	.text.unlikely
	.size	_ZNSt7__cxx1112basic_stringIcSt11char_traitsIcESaIcEE10_M_replaceEmmPKcm.isra.0.cold, .-_ZNSt7__cxx1112basic_stringIcSt11char_traitsIcESaIcEE10_M_replaceEmmPKcm.isra.0.cold
.LCOLDE14:
	.text
.LHOTE14:
	.section	.text.unlikely._ZSt20__throw_format_errorPKc,"axG",@progbits,_ZSt20__throw_format_errorPKc,comdat
	.weak	_ZSt20__throw_format_errorPKc
	.type	_ZSt20__throw_format_errorPKc, @function
_ZSt20__throw_format_errorPKc:
.LFB11376:
	.cfi_startproc
	.cfi_personality 0x9b,DW.ref.__gxx_personality_v0
	.cfi_lsda 0x1b,.LLSDA11376
	endbr64
	pushq	%rbp
	.cfi_def_cfa_offset 16
	.cfi_offset 6, -16
	movq	%rdi, %rbp
	movl	$16, %edi
	pushq	%rbx
	.cfi_def_cfa_offset 24
	.cfi_offset 3, -24
	pushq	%rax
	.cfi_def_cfa_offset 32
	call	__cxa_allocate_exception@PLT
	movq	%rbp, %rsi
	movq	%rax, %rdi
	movq	%rax, %rbx
.LEHB0:
	call	_ZNSt13runtime_errorC2EPKc@PLT
.LEHE0:
	leaq	16+_ZTVSt12format_error(%rip), %rax
	leaq	_ZNSt12format_errorD1Ev(%rip), %rdx
	movq	%rbx, %rdi
	leaq	_ZTISt12format_error(%rip), %rsi
	movq	%rax, (%rbx)
.LEHB1:
	call	__cxa_throw@PLT
.L1023:
	endbr64
	movq	%rax, %rbp
.L1022:
	movq	%rbx, %rdi
	vzeroupper
	call	__cxa_free_exception@PLT
	movq	%rbp, %rdi
	call	_Unwind_Resume@PLT
.LEHE1:
	.cfi_endproc
.LFE11376:
	.globl	__gxx_personality_v0
	.section	.gcc_except_table._ZSt20__throw_format_errorPKc,"aG",@progbits,_ZSt20__throw_format_errorPKc,comdat
.LLSDA11376:
	.byte	0xff
	.byte	0xff
	.byte	0x1
	.uleb128 .LLSDACSE11376-.LLSDACSB11376
.LLSDACSB11376:
	.uleb128 .LEHB0-.LFB11376
	.uleb128 .LEHE0-.LEHB0
	.uleb128 .L1023-.LFB11376
	.uleb128 0
	.uleb128 .LEHB1-.LFB11376
	.uleb128 .LEHE1-.LEHB1
	.uleb128 0
	.uleb128 0
.LLSDACSE11376:
	.section	.text.unlikely._ZSt20__throw_format_errorPKc,"axG",@progbits,_ZSt20__throw_format_errorPKc,comdat
	.size	_ZSt20__throw_format_errorPKc, .-_ZSt20__throw_format_errorPKc
	.section	.rodata._ZNSt8__format39__unmatched_left_brace_in_format_stringEv.str1.8,"aMS",@progbits,1
	.align 8
.LC15:
	.string	"format error: unmatched '{' in format string"
	.section	.text.unlikely._ZNSt8__format39__unmatched_left_brace_in_format_stringEv,"axG",@progbits,_ZNSt8__format39__unmatched_left_brace_in_format_stringEv,comdat
	.weak	_ZNSt8__format39__unmatched_left_brace_in_format_stringEv
	.type	_ZNSt8__format39__unmatched_left_brace_in_format_stringEv, @function
_ZNSt8__format39__unmatched_left_brace_in_format_stringEv:
.LFB11381:
	.cfi_startproc
	endbr64
	pushq	%rax
	.cfi_def_cfa_offset 16
	popq	%rax
	.cfi_def_cfa_offset 8
	leaq	.LC15(%rip), %rdi
	pushq	%rax
	.cfi_def_cfa_offset 16
	call	_ZSt20__throw_format_errorPKc
	.cfi_endproc
.LFE11381:
	.size	_ZNSt8__format39__unmatched_left_brace_in_format_stringEv, .-_ZNSt8__format39__unmatched_left_brace_in_format_stringEv
	.section	.rodata._ZNSt8__format39__conflicting_indexing_in_format_stringEv.str1.8,"aMS",@progbits,1
	.align 8
.LC16:
	.string	"format error: conflicting indexing style in format string"
	.section	.text.unlikely._ZNSt8__format39__conflicting_indexing_in_format_stringEv,"axG",@progbits,_ZNSt8__format39__conflicting_indexing_in_format_stringEv,comdat
	.weak	_ZNSt8__format39__conflicting_indexing_in_format_stringEv
	.type	_ZNSt8__format39__conflicting_indexing_in_format_stringEv, @function
_ZNSt8__format39__conflicting_indexing_in_format_stringEv:
.LFB11383:
	.cfi_startproc
	endbr64
	pushq	%rax
	.cfi_def_cfa_offset 16
	popq	%rax
	.cfi_def_cfa_offset 8
	leaq	.LC16(%rip), %rdi
	pushq	%rax
	.cfi_def_cfa_offset 16
	call	_ZSt20__throw_format_errorPKc
	.cfi_endproc
.LFE11383:
	.size	_ZNSt8__format39__conflicting_indexing_in_format_stringEv, .-_ZNSt8__format39__conflicting_indexing_in_format_stringEv
	.section	.rodata._ZNSt8__format33__invalid_arg_id_in_format_stringEv.str1.8,"aMS",@progbits,1
	.align 8
.LC17:
	.string	"format error: invalid arg-id in format string"
	.section	.text.unlikely._ZNSt8__format33__invalid_arg_id_in_format_stringEv,"axG",@progbits,_ZNSt8__format33__invalid_arg_id_in_format_stringEv,comdat
	.weak	_ZNSt8__format33__invalid_arg_id_in_format_stringEv
	.type	_ZNSt8__format33__invalid_arg_id_in_format_stringEv, @function
_ZNSt8__format33__invalid_arg_id_in_format_stringEv:
.LFB11384:
	.cfi_startproc
	endbr64
	pushq	%rax
	.cfi_def_cfa_offset 16
	popq	%rax
	.cfi_def_cfa_offset 8
	leaq	.LC17(%rip), %rdi
	pushq	%rax
	.cfi_def_cfa_offset 16
	call	_ZSt20__throw_format_errorPKc
	.cfi_endproc
.LFE11384:
	.size	_ZNSt8__format33__invalid_arg_id_in_format_stringEv, .-_ZNSt8__format33__invalid_arg_id_in_format_stringEv
	.section	.rodata.str1.8
	.align 8
.LC18:
	.string	"format error: argument used for width or precision must be a non-negative integer"
	.section	.text.unlikely
	.align 2
.LCOLDB19:
	.text
.LHOTB19:
	.align 2
	.p2align 4
	.type	_ZNKSt8__format5_SpecIcE16_M_get_precisionISt20basic_format_contextINS_10_Sink_iterIcEEcEEEmRT_.part.0.isra.0, @function
_ZNKSt8__format5_SpecIcE16_M_get_precisionISt20basic_format_contextINS_10_Sink_iterIcEEcEEEmRT_.part.0.isra.0:
.LFB14044:
	.cfi_startproc
	pushq	%rbp
	.cfi_def_cfa_offset 16
	.cfi_offset 6, -16
	movzwl	%di, %edi
	movq	%rsp, %rbp
	.cfi_def_cfa_register 6
	subq	$64, %rsp
	movzbl	(%rsi), %eax
	movl	%eax, %edx
	andl	$15, %eax
	andl	$15, %edx
	cmpq	%rax, %rdi
	jb	.L1046
	testb	%dl, %dl
	jne	.L1034
	movq	(%rsi), %rcx
	shrq	$4, %rcx
	cmpq	%rcx, %rdi
	jnb	.L1034
	salq	$5, %rdi
	addq	8(%rsi), %rdi
	vmovdqu	(%rdi), %xmm2
	movzbl	16(%rdi), %r8d
	vmovdqa	%xmm2, 32(%rsp)
	jmp	.L1033
	.p2align 4,,10
	.p2align 3
.L1046:
	movq	(%rsi), %r8
	leaq	(%rdi,%rdi,4), %rcx
	salq	$4, %rdi
	addq	8(%rsi), %rdi
	vmovdqa	(%rdi), %xmm1
	shrq	$4, %r8
	shrq	%cl, %r8
	vmovdqa	%xmm1, 32(%rsp)
	andl	$31, %r8d
.L1033:
	leaq	.L1037(%rip), %r9
	movzbl	%r8b, %esi
	movb	%r8b, 48(%rsp)
	vmovdqu	32(%rsp), %ymm0
	movslq	(%r9,%rsi,4), %r10
	vmovdqu	%ymm0, (%rsp)
	addq	%r9, %r10
	notrack jmp	*%r10
	.section	.rodata
	.align 4
	.align 4
.L1037:
	.long	.L1044-.L1037
	.long	.L1036-.L1037
	.long	.L1036-.L1037
	.long	.L1041-.L1037
	.long	.L1040-.L1037
	.long	.L1039-.L1037
	.long	.L1038-.L1037
	.long	.L1036-.L1037
	.long	.L1036-.L1037
	.long	.L1036-.L1037
	.long	.L1036-.L1037
	.long	.L1036-.L1037
	.long	.L1036-.L1037
	.long	.L1036-.L1037
	.long	.L1036-.L1037
	.long	.L1036-.L1037
	.long	.L1036-.L1037
	.long	.L1036-.L1037
	.long	.L1036-.L1037
	.long	.L1036-.L1037
	.long	.L1036-.L1037
	.text
	.p2align 4,,10
	.p2align 3
.L1039:
	movq	(%rsp), %rax
	testq	%rax, %rax
	js	.L1042
	vzeroupper
	leave
	.cfi_remember_state
	.cfi_def_cfa 7, 8
	ret
	.p2align 4,,10
	.p2align 3
.L1040:
	.cfi_restore_state
	movl	(%rsp), %eax
	vzeroupper
	leave
	.cfi_remember_state
	.cfi_def_cfa 7, 8
	ret
	.p2align 4,,10
	.p2align 3
.L1041:
	.cfi_restore_state
	movslq	(%rsp), %rax
	testl	%eax, %eax
	js	.L1042
	vzeroupper
	leave
	.cfi_remember_state
	.cfi_def_cfa 7, 8
	ret
	.p2align 4,,10
	.p2align 3
.L1038:
	.cfi_restore_state
	movq	(%rsp), %rax
	vzeroupper
	leave
	.cfi_remember_state
	.cfi_def_cfa 7, 8
	ret
	.p2align 4,,10
	.p2align 3
.L1044:
	.cfi_restore_state
	vzeroupper
	jmp	.L1034
	.cfi_endproc
	.section	.text.unlikely
	.cfi_startproc
	.type	_ZNKSt8__format5_SpecIcE16_M_get_precisionISt20basic_format_contextINS_10_Sink_iterIcEEcEEEmRT_.part.0.isra.0.cold, @function
_ZNKSt8__format5_SpecIcE16_M_get_precisionISt20basic_format_contextINS_10_Sink_iterIcEEcEEEmRT_.part.0.isra.0.cold:
.LFSB14044:
.L1036:
	.cfi_def_cfa 6, 16
	.cfi_offset 6, -16
	leaq	.LC18(%rip), %rdi
	vzeroupper
	call	_ZSt20__throw_format_errorPKc
.L1042:
	leaq	.LC18(%rip), %rdi
	vzeroupper
	call	_ZSt20__throw_format_errorPKc
.L1034:
	call	_ZNSt8__format33__invalid_arg_id_in_format_stringEv
	.cfi_endproc
.LFE14044:
	.text
	.size	_ZNKSt8__format5_SpecIcE16_M_get_precisionISt20basic_format_contextINS_10_Sink_iterIcEEcEEEmRT_.part.0.isra.0, .-_ZNKSt8__format5_SpecIcE16_M_get_precisionISt20basic_format_contextINS_10_Sink_iterIcEEcEEEmRT_.part.0.isra.0
	.section	.text.unlikely
	.size	_ZNKSt8__format5_SpecIcE16_M_get_precisionISt20basic_format_contextINS_10_Sink_iterIcEEcEEEmRT_.part.0.isra.0.cold, .-_ZNKSt8__format5_SpecIcE16_M_get_precisionISt20basic_format_contextINS_10_Sink_iterIcEEcEEEmRT_.part.0.isra.0.cold
.LCOLDE19:
	.text
.LHOTE19:
	.section	.text.unlikely
	.align 2
.LCOLDB20:
	.text
.LHOTB20:
	.align 2
	.p2align 4
	.type	_ZNKSt8__format5_SpecIcE12_M_get_widthISt20basic_format_contextINS_10_Sink_iterIcEEcEEEmRT_.part.0.isra.0, @function
_ZNKSt8__format5_SpecIcE12_M_get_widthISt20basic_format_contextINS_10_Sink_iterIcEEcEEEmRT_.part.0.isra.0:
.LFB14047:
	.cfi_startproc
	pushq	%rbp
	.cfi_def_cfa_offset 16
	.cfi_offset 6, -16
	movzwl	%di, %edi
	movq	%rsp, %rbp
	.cfi_def_cfa_register 6
	subq	$64, %rsp
	movzbl	(%rsi), %eax
	movl	%eax, %edx
	andl	$15, %eax
	andl	$15, %edx
	cmpq	%rax, %rdi
	jb	.L1062
	testb	%dl, %dl
	jne	.L1050
	movq	(%rsi), %rcx
	shrq	$4, %rcx
	cmpq	%rcx, %rdi
	jnb	.L1050
	salq	$5, %rdi
	addq	8(%rsi), %rdi
	vmovdqu	(%rdi), %xmm2
	movzbl	16(%rdi), %r8d
	vmovdqa	%xmm2, 32(%rsp)
	jmp	.L1049
	.p2align 4,,10
	.p2align 3
.L1062:
	movq	(%rsi), %r8
	leaq	(%rdi,%rdi,4), %rcx
	salq	$4, %rdi
	addq	8(%rsi), %rdi
	vmovdqa	(%rdi), %xmm1
	shrq	$4, %r8
	shrq	%cl, %r8
	vmovdqa	%xmm1, 32(%rsp)
	andl	$31, %r8d
.L1049:
	leaq	.L1053(%rip), %r9
	movzbl	%r8b, %esi
	movb	%r8b, 48(%rsp)
	vmovdqu	32(%rsp), %ymm0
	movslq	(%r9,%rsi,4), %r10
	vmovdqu	%ymm0, (%rsp)
	addq	%r9, %r10
	notrack jmp	*%r10
	.section	.rodata
	.align 4
	.align 4
.L1053:
	.long	.L1060-.L1053
	.long	.L1052-.L1053
	.long	.L1052-.L1053
	.long	.L1057-.L1053
	.long	.L1056-.L1053
	.long	.L1055-.L1053
	.long	.L1054-.L1053
	.long	.L1052-.L1053
	.long	.L1052-.L1053
	.long	.L1052-.L1053
	.long	.L1052-.L1053
	.long	.L1052-.L1053
	.long	.L1052-.L1053
	.long	.L1052-.L1053
	.long	.L1052-.L1053
	.long	.L1052-.L1053
	.long	.L1052-.L1053
	.long	.L1052-.L1053
	.long	.L1052-.L1053
	.long	.L1052-.L1053
	.long	.L1052-.L1053
	.text
	.p2align 4,,10
	.p2align 3
.L1055:
	movq	(%rsp), %rax
	testq	%rax, %rax
	js	.L1058
	vzeroupper
	leave
	.cfi_remember_state
	.cfi_def_cfa 7, 8
	ret
	.p2align 4,,10
	.p2align 3
.L1056:
	.cfi_restore_state
	movl	(%rsp), %eax
	vzeroupper
	leave
	.cfi_remember_state
	.cfi_def_cfa 7, 8
	ret
	.p2align 4,,10
	.p2align 3
.L1057:
	.cfi_restore_state
	movslq	(%rsp), %rax
	testl	%eax, %eax
	js	.L1058
	vzeroupper
	leave
	.cfi_remember_state
	.cfi_def_cfa 7, 8
	ret
	.p2align 4,,10
	.p2align 3
.L1054:
	.cfi_restore_state
	movq	(%rsp), %rax
	vzeroupper
	leave
	.cfi_remember_state
	.cfi_def_cfa 7, 8
	ret
	.p2align 4,,10
	.p2align 3
.L1060:
	.cfi_restore_state
	vzeroupper
	jmp	.L1050
	.cfi_endproc
	.section	.text.unlikely
	.cfi_startproc
	.type	_ZNKSt8__format5_SpecIcE12_M_get_widthISt20basic_format_contextINS_10_Sink_iterIcEEcEEEmRT_.part.0.isra.0.cold, @function
_ZNKSt8__format5_SpecIcE12_M_get_widthISt20basic_format_contextINS_10_Sink_iterIcEEcEEEmRT_.part.0.isra.0.cold:
.LFSB14047:
.L1052:
	.cfi_def_cfa 6, 16
	.cfi_offset 6, -16
	leaq	.LC18(%rip), %rdi
	vzeroupper
	call	_ZSt20__throw_format_errorPKc
.L1058:
	leaq	.LC18(%rip), %rdi
	vzeroupper
	call	_ZSt20__throw_format_errorPKc
.L1050:
	call	_ZNSt8__format33__invalid_arg_id_in_format_stringEv
	.cfi_endproc
.LFE14047:
	.text
	.size	_ZNKSt8__format5_SpecIcE12_M_get_widthISt20basic_format_contextINS_10_Sink_iterIcEEcEEEmRT_.part.0.isra.0, .-_ZNKSt8__format5_SpecIcE12_M_get_widthISt20basic_format_contextINS_10_Sink_iterIcEEcEEEmRT_.part.0.isra.0
	.section	.text.unlikely
	.size	_ZNKSt8__format5_SpecIcE12_M_get_widthISt20basic_format_contextINS_10_Sink_iterIcEEcEEEmRT_.part.0.isra.0.cold, .-_ZNKSt8__format5_SpecIcE12_M_get_widthISt20basic_format_contextINS_10_Sink_iterIcEEcEEEmRT_.part.0.isra.0.cold
.LCOLDE20:
	.text
.LHOTE20:
	.section	.rodata._ZNSt8__format29__failed_to_parse_format_specEv.str1.8,"aMS",@progbits,1
	.align 8
.LC21:
	.string	"format error: failed to parse format-spec"
	.section	.text.unlikely._ZNSt8__format29__failed_to_parse_format_specEv,"axG",@progbits,_ZNSt8__format29__failed_to_parse_format_specEv,comdat
	.weak	_ZNSt8__format29__failed_to_parse_format_specEv
	.type	_ZNSt8__format29__failed_to_parse_format_specEv, @function
_ZNSt8__format29__failed_to_parse_format_specEv:
.LFB11385:
	.cfi_startproc
	endbr64
	pushq	%rax
	.cfi_def_cfa_offset 16
	popq	%rax
	.cfi_def_cfa_offset 8
	leaq	.LC21(%rip), %rdi
	pushq	%rax
	.cfi_def_cfa_offset 16
	call	_ZSt20__throw_format_errorPKc
	.cfi_endproc
.LFE11385:
	.size	_ZNSt8__format29__failed_to_parse_format_specEv, .-_ZNSt8__format29__failed_to_parse_format_specEv
	.text
	.p2align 4
	.globl	_Z9benchmarkPFvPKfPfiES0_S1_iii
	.type	_Z9benchmarkPFvPKfPfiES0_S1_iii, @function
_Z9benchmarkPFvPKfPfiES0_S1_iii:
.LFB11757:
	.cfi_startproc
	endbr64
	pushq	%r15
	.cfi_def_cfa_offset 16
	.cfi_offset 15, -16
	pushq	%r14
	.cfi_def_cfa_offset 24
	.cfi_offset 14, -24
	movl	%r8d, %r14d
	pushq	%r13
	.cfi_def_cfa_offset 32
	.cfi_offset 13, -32
	movl	%ecx, %r13d
	pushq	%r12
	.cfi_def_cfa_offset 40
	.cfi_offset 12, -40
	movq	%rsi, %r12
	pushq	%rbp
	.cfi_def_cfa_offset 48
	.cfi_offset 6, -48
	movq	%rdi, %rbp
	pushq	%rbx
	.cfi_def_cfa_offset 56
	.cfi_offset 3, -56
	movq	%rdx, %rbx
	subq	$40, %rsp
	.cfi_def_cfa_offset 96
	testl	%r9d, %r9d
	jle	.L1066
	movl	%r9d, %edi
	call	omp_set_num_threads@PLT
.L1066:
	movslq	%r14d, %r15
	movl	%r14d, %eax
	imulq	$1717986919, %r15, %rdx
	sarl	$31, %eax
	sarq	$34, %rdx
	subl	%eax, %edx
	movl	%edx, (%rsp)
	cmpl	$9, %r14d
	jle	.L1067
	leal	-1(%rdx), %esi
	movq	%r12, %rdi
	movl	%r13d, %edx
	movl	$1, %r15d
	andl	$7, %esi
	movl	%esi, 12(%rsp)
	movq	%rbx, %rsi
	call	*%rbp
	movl	(%rsp), %edi
	movl	12(%rsp), %r8d
	cmpl	%edi, %r15d
	jge	.L1145
	testl	%r8d, %r8d
	je	.L1068
	cmpl	$1, %r8d
	je	.L1125
	cmpl	$2, %r8d
	je	.L1126
	cmpl	$3, %r8d
	je	.L1127
	cmpl	$4, %r8d
	je	.L1128
	cmpl	$5, %r8d
	je	.L1129
	cmpl	$6, %r8d
	je	.L1130
	movl	%r13d, %edx
	movq	%rbx, %rsi
	movq	%r12, %rdi
	movl	$2, %r15d
	call	*%rbp
.L1130:
	movl	%r13d, %edx
	movq	%rbx, %rsi
	movq	%r12, %rdi
	addl	$1, %r15d
	call	*%rbp
.L1129:
	movl	%r13d, %edx
	movq	%rbx, %rsi
	movq	%r12, %rdi
	addl	$1, %r15d
	call	*%rbp
.L1128:
	movl	%r13d, %edx
	movq	%rbx, %rsi
	movq	%r12, %rdi
	addl	$1, %r15d
	call	*%rbp
.L1127:
	movl	%r13d, %edx
	movq	%rbx, %rsi
	movq	%r12, %rdi
	addl	$1, %r15d
	call	*%rbp
.L1126:
	movl	%r13d, %edx
	movq	%rbx, %rsi
	movq	%r12, %rdi
	addl	$1, %r15d
	call	*%rbp
.L1125:
	movl	%r13d, %edx
	movq	%rbx, %rsi
	movq	%r12, %rdi
	addl	$1, %r15d
	call	*%rbp
	movl	(%rsp), %r9d
	cmpl	%r9d, %r15d
	jge	.L1145
.L1068:
	movl	%r13d, %edx
	movq	%rbx, %rsi
	movq	%r12, %rdi
	addl	$8, %r15d
	call	*%rbp
	movl	%r13d, %edx
	movq	%rbx, %rsi
	movq	%r12, %rdi
	call	*%rbp
	movl	%r13d, %edx
	movq	%rbx, %rsi
	movq	%r12, %rdi
	call	*%rbp
	movl	%r13d, %edx
	movq	%rbx, %rsi
	movq	%r12, %rdi
	call	*%rbp
	movl	%r13d, %edx
	movq	%rbx, %rsi
	movq	%r12, %rdi
	call	*%rbp
	movl	%r13d, %edx
	movq	%rbx, %rsi
	movq	%r12, %rdi
	call	*%rbp
	movl	%r13d, %edx
	movq	%rbx, %rsi
	movq	%r12, %rdi
	call	*%rbp
	movl	%r13d, %edx
	movq	%rbx, %rsi
	movq	%r12, %rdi
	call	*%rbp
	movl	(%rsp), %r10d
	cmpl	%r10d, %r15d
	jl	.L1068
.L1145:
	call	_ZNSt6chrono3_V212system_clock3nowEv@PLT
	movl	$0x00000000, 28(%rsp)
	movq	%rax, (%rsp)
.L1072:
	movl	%r14d, %r11d
	xorl	%r15d, %r15d
	andl	$7, %r11d
	je	.L1071
	cmpl	$1, %r11d
	je	.L1119
	cmpl	$2, %r11d
	je	.L1120
	cmpl	$3, %r11d
	je	.L1121
	cmpl	$4, %r11d
	je	.L1122
	cmpl	$5, %r11d
	je	.L1123
	cmpl	$6, %r11d
	jne	.L1149
.L1124:
	movl	%r13d, %edx
	movq	%rbx, %rsi
	movq	%r12, %rdi
	addl	$1, %r15d
	call	*%rbp
	vmovss	28(%rsp), %xmm2
	vaddss	(%rbx), %xmm2, %xmm3
	vmovss	%xmm3, 28(%rsp)
.L1123:
	movl	%r13d, %edx
	movq	%rbx, %rsi
	movq	%r12, %rdi
	addl	$1, %r15d
	call	*%rbp
	vmovss	28(%rsp), %xmm4
	vaddss	(%rbx), %xmm4, %xmm5
	vmovss	%xmm5, 28(%rsp)
.L1122:
	movl	%r13d, %edx
	movq	%rbx, %rsi
	movq	%r12, %rdi
	addl	$1, %r15d
	call	*%rbp
	vmovss	28(%rsp), %xmm6
	vaddss	(%rbx), %xmm6, %xmm7
	vmovss	%xmm7, 28(%rsp)
.L1121:
	movl	%r13d, %edx
	movq	%rbx, %rsi
	movq	%r12, %rdi
	addl	$1, %r15d
	call	*%rbp
	vmovss	28(%rsp), %xmm8
	vaddss	(%rbx), %xmm8, %xmm9
	vmovss	%xmm9, 28(%rsp)
.L1120:
	movl	%r13d, %edx
	movq	%rbx, %rsi
	movq	%r12, %rdi
	addl	$1, %r15d
	call	*%rbp
	vmovss	28(%rsp), %xmm10
	vaddss	(%rbx), %xmm10, %xmm11
	vmovss	%xmm11, 28(%rsp)
.L1119:
	movl	%r13d, %edx
	movq	%rbx, %rsi
	movq	%r12, %rdi
	addl	$1, %r15d
	call	*%rbp
	vmovss	28(%rsp), %xmm12
	vaddss	(%rbx), %xmm12, %xmm13
	vmovss	%xmm13, 28(%rsp)
	cmpl	%r15d, %r14d
	je	.L1070
.L1071:
	movl	%r13d, %edx
	movq	%rbx, %rsi
	movq	%r12, %rdi
	addl	$8, %r15d
	call	*%rbp
	vmovss	28(%rsp), %xmm14
	vaddss	(%rbx), %xmm14, %xmm15
	movl	%r13d, %edx
	movq	%rbx, %rsi
	movq	%r12, %rdi
	vmovss	%xmm15, 28(%rsp)
	call	*%rbp
	vmovss	28(%rsp), %xmm0
	vaddss	(%rbx), %xmm0, %xmm1
	movl	%r13d, %edx
	movq	%rbx, %rsi
	movq	%r12, %rdi
	vmovss	%xmm1, 28(%rsp)
	call	*%rbp
	vmovss	28(%rsp), %xmm2
	vaddss	(%rbx), %xmm2, %xmm3
	movl	%r13d, %edx
	movq	%rbx, %rsi
	movq	%r12, %rdi
	vmovss	%xmm3, 28(%rsp)
	call	*%rbp
	vmovss	28(%rsp), %xmm4
	vaddss	(%rbx), %xmm4, %xmm5
	movl	%r13d, %edx
	movq	%rbx, %rsi
	movq	%r12, %rdi
	vmovss	%xmm5, 28(%rsp)
	call	*%rbp
	vmovss	28(%rsp), %xmm6
	vaddss	(%rbx), %xmm6, %xmm7
	movl	%r13d, %edx
	movq	%rbx, %rsi
	movq	%r12, %rdi
	vmovss	%xmm7, 28(%rsp)
	call	*%rbp
	vmovss	28(%rsp), %xmm8
	vaddss	(%rbx), %xmm8, %xmm9
	movl	%r13d, %edx
	movq	%rbx, %rsi
	movq	%r12, %rdi
	vmovss	%xmm9, 28(%rsp)
	call	*%rbp
	vmovss	28(%rsp), %xmm10
	vaddss	(%rbx), %xmm10, %xmm11
	movl	%r13d, %edx
	movq	%rbx, %rsi
	movq	%r12, %rdi
	vmovss	%xmm11, 28(%rsp)
	call	*%rbp
	vmovss	28(%rsp), %xmm12
	vaddss	(%rbx), %xmm12, %xmm13
	vmovss	%xmm13, 28(%rsp)
	cmpl	%r15d, %r14d
	jne	.L1071
.L1070:
	call	_ZNSt6chrono3_V212system_clock3nowEv@PLT
	movq	(%rsp), %rdx
	vxorpd	%xmm14, %xmm14, %xmm14
	subq	%rdx, %rax
	vcvtsi2sdq	%rax, %xmm14, %xmm15
	vmulsd	.LC8(%rip), %xmm15, %xmm0
	vmovsd	%xmm0, (%rsp)
	call	omp_get_max_threads@PLT
	movl	%eax, %edi
	call	omp_set_num_threads@PLT
	vxorpd	%xmm1, %xmm1, %xmm1
	vmovsd	(%rsp), %xmm3
	addq	$40, %rsp
	.cfi_remember_state
	.cfi_def_cfa_offset 56
	vcvtsi2sdl	%r14d, %xmm1, %xmm2
	popq	%rbx
	.cfi_def_cfa_offset 48
	popq	%rbp
	.cfi_def_cfa_offset 40
	popq	%r12
	.cfi_def_cfa_offset 32
	popq	%r13
	.cfi_def_cfa_offset 24
	popq	%r14
	.cfi_def_cfa_offset 16
	popq	%r15
	.cfi_def_cfa_offset 8
	vdivsd	%xmm2, %xmm3, %xmm0
	ret
	.p2align 4,,10
	.p2align 3
.L1149:
	.cfi_restore_state
	movl	%r13d, %edx
	movq	%rbx, %rsi
	movq	%r12, %rdi
	movl	$1, %r15d
	call	*%rbp
	vmovss	28(%rsp), %xmm0
	vaddss	(%rbx), %xmm0, %xmm1
	vmovss	%xmm1, 28(%rsp)
	jmp	.L1124
	.p2align 4,,10
	.p2align 3
.L1067:
	call	_ZNSt6chrono3_V212system_clock3nowEv@PLT
	movl	$0x00000000, 28(%rsp)
	movq	%rax, (%rsp)
	testl	%r14d, %r14d
	jle	.L1070
	jmp	.L1072
	.cfi_endproc
.LFE11757:
	.size	_Z9benchmarkPFvPKfPfiES0_S1_iii, .-_Z9benchmarkPFvPKfPfiES0_S1_iii
	.section	.text._ZNSt8__format5_SpecIcE23_M_parse_fill_and_alignEPKcS3_,"axG",@progbits,_ZNSt8__format5_SpecIcE23_M_parse_fill_and_alignEPKcS3_,comdat
	.align 2
	.p2align 4
	.weak	_ZNSt8__format5_SpecIcE23_M_parse_fill_and_alignEPKcS3_
	.type	_ZNSt8__format5_SpecIcE23_M_parse_fill_and_alignEPKcS3_, @function
_ZNSt8__format5_SpecIcE23_M_parse_fill_and_alignEPKcS3_:
.LFB11822:
	.cfi_startproc
	endbr64
	movzbl	(%rsi), %ecx
	movq	%rdi, %rax
	movq	%rsi, %r10
	cmpb	$123, %cl
	je	.L1150
	subq	%rsi, %rdx
	cmpq	$1, %rdx
	jle	.L1152
	movzbl	1(%rsi), %edx
	cmpb	$62, %dl
	je	.L1156
	cmpb	$94, %dl
	je	.L1157
	movl	$1, %edi
	cmpb	$60, %dl
	jne	.L1152
.L1153:
	movzbl	(%rax), %r11d
	movb	%cl, 6(%rax)
	leaq	2(%rsi), %r10
	andl	$-4, %r11d
	orl	%edi, %r11d
	movb	%r11b, (%rax)
.L1150:
	movq	%r10, %rax
	ret
	.p2align 4,,10
	.p2align 3
.L1152:
	cmpb	$62, %cl
	je	.L1158
	cmpb	$94, %cl
	je	.L1159
	movq	%rsi, %r10
	cmpb	$60, %cl
	jne	.L1150
	movl	$1, %r8d
.L1154:
	movzbl	(%rax), %r9d
	leaq	1(%rsi), %r10
	movb	$32, 6(%rax)
	andl	$-4, %r9d
	orl	%r8d, %r9d
	movb	%r9b, (%rax)
	movq	%r10, %rax
	ret
	.p2align 4,,10
	.p2align 3
.L1157:
	movl	$3, %edi
	jmp	.L1153
	.p2align 4,,10
	.p2align 3
.L1159:
	movl	$3, %r8d
	jmp	.L1154
	.p2align 4,,10
	.p2align 3
.L1156:
	movl	$2, %edi
	jmp	.L1153
	.p2align 4,,10
	.p2align 3
.L1158:
	movl	$2, %r8d
	jmp	.L1154
	.cfi_endproc
.LFE11822:
	.size	_ZNSt8__format5_SpecIcE23_M_parse_fill_and_alignEPKcS3_, .-_ZNSt8__format5_SpecIcE23_M_parse_fill_and_alignEPKcS3_
	.section	.rodata._ZNSt8__format5_SpecIcE14_M_parse_widthEPKcS3_RSt26basic_format_parse_contextIcE.str1.8,"aMS",@progbits,1
	.align 8
.LC22:
	.string	"format error: width must be non-zero in format string"
	.align 8
.LC23:
	.string	"format error: invalid width or precision in format-spec"
	.section	.text._ZNSt8__format5_SpecIcE14_M_parse_widthEPKcS3_RSt26basic_format_parse_contextIcE,"axG",@progbits,_ZNSt8__format5_SpecIcE14_M_parse_widthEPKcS3_RSt26basic_format_parse_contextIcE,comdat
	.align 2
	.p2align 4
	.weak	_ZNSt8__format5_SpecIcE14_M_parse_widthEPKcS3_RSt26basic_format_parse_contextIcE
	.type	_ZNSt8__format5_SpecIcE14_M_parse_widthEPKcS3_RSt26basic_format_parse_contextIcE, @function
_ZNSt8__format5_SpecIcE14_M_parse_widthEPKcS3_RSt26basic_format_parse_contextIcE:
.LFB11824:
	.cfi_startproc
	endbr64
	pushq	%rbp
	.cfi_def_cfa_offset 16
	.cfi_offset 6, -16
	movq	%rdx, %r11
	movq	%rsi, %r9
	pushq	%rbx
	.cfi_def_cfa_offset 24
	.cfi_offset 3, -24
	subq	$8, %rsp
	.cfi_def_cfa_offset 32
	movzbl	(%rsi), %edx
	cmpb	$48, %dl
	je	.L1266
	movq	%rcx, %rsi
	movzbl	%dl, %eax
	leaq	_ZNSt8__detail31__from_chars_alnum_to_val_tableILb0EE5valueE(%rip), %rcx
	movq	%rdi, %r10
	cmpb	$9, (%rcx,%rax)
	movq	%r9, %rcx
	ja	.L1164
	movq	%r11, %rbp
	xorl	%eax, %eax
	movl	$16, %esi
	subq	%r9, %rbp
	andl	$3, %ebp
	je	.L1173
	cmpq	$1, %rbp
	je	.L1230
	cmpq	$2, %rbp
	jne	.L1267
.L1231:
	movzbl	(%rcx), %edx
	leal	-48(%rdx), %r8d
	cmpb	$9, %r8b
	ja	.L1165
	subl	$4, %esi
	js	.L1268
	leal	(%rax,%rax,4), %eax
	movzbl	%r8b, %ebp
	leal	0(%rbp,%rax,2), %eax
.L1245:
	addq	$1, %rcx
.L1230:
	movzbl	(%rcx), %edx
	leal	-48(%rdx), %r8d
	cmpb	$9, %r8b
	ja	.L1165
	subl	$4, %esi
	js	.L1269
	leal	(%rax,%rax,4), %eax
	movzbl	%r8b, %ebp
	leal	0(%rbp,%rax,2), %eax
.L1247:
	addq	$1, %rcx
	cmpq	%rcx, %r11
	je	.L1175
.L1173:
	movzbl	(%rcx), %edx
	leal	-48(%rdx), %r8d
	cmpb	$9, %r8b
	ja	.L1165
	subl	$4, %esi
	js	.L1166
	leal	(%rax,%rax,4), %eax
	movzbl	%r8b, %ebp
	leal	0(%rbp,%rax,2), %eax
.L1167:
	movzbl	1(%rcx), %edx
	leaq	1(%rcx), %rdi
	movq	%rdi, %rcx
	leal	-48(%rdx), %r8d
	cmpb	$9, %r8b
	ja	.L1165
	movl	%esi, %ecx
	subl	$4, %ecx
	js	.L1270
	leal	(%rax,%rax,4), %eax
	movzbl	%r8b, %edx
	leal	(%rdx,%rax,2), %eax
.L1250:
	movzbl	1(%rdi), %r8d
	leaq	1(%rdi), %rcx
	leal	-48(%r8), %ebp
	cmpb	$9, %bpl
	ja	.L1165
	movl	%esi, %ecx
	subl	$8, %ecx
	js	.L1271
	leal	(%rax,%rax,4), %eax
	movzbl	%bpl, %r8d
	leal	(%r8,%rax,2), %eax
.L1252:
	movzbl	2(%rdi), %ebp
	leaq	2(%rdi), %rcx
	leal	-48(%rbp), %ebx
	cmpb	$9, %bl
	ja	.L1165
	subl	$12, %esi
	js	.L1272
	leal	(%rax,%rax,4), %eax
	movzbl	%bl, %r8d
	leal	(%r8,%rax,2), %eax
.L1254:
	leaq	3(%rdi), %rcx
	cmpq	%rcx, %r11
	jne	.L1173
	.p2align 4,,10
	.p2align 3
.L1175:
	movw	%ax, 2(%r10)
	movl	$1, %r9d
.L1174:
	movzwl	(%r10), %r11d
	andl	$3, %r9d
	sall	$7, %r9d
	andw	$-385, %r11w
	orl	%r9d, %r11d
	movw	%r11w, (%r10)
.L1162:
	addq	$8, %rsp
	.cfi_remember_state
	.cfi_def_cfa_offset 24
	movq	%rcx, %rax
	popq	%rbx
	.cfi_def_cfa_offset 16
	popq	%rbp
	.cfi_def_cfa_offset 8
	ret
	.p2align 4,,10
	.p2align 3
.L1164:
	.cfi_restore_state
	cmpb	$123, %dl
	jne	.L1162
	leaq	1(%r9), %rcx
	cmpq	%rcx, %r11
	je	.L1273
	movsbw	1(%r9), %ax
	cmpb	$125, %al
	je	.L1274
	cmpb	$48, %al
	je	.L1275
	leal	-49(%rax), %ebx
	cmpb	$8, %bl
	ja	.L1183
	leaq	2(%r9), %rdi
	cmpq	%rdi, %r11
	je	.L1183
	movzbl	2(%r9), %ebp
	leal	-48(%rbp), %r8d
	cmpb	$9, %r8b
	jbe	.L1197
	subl	$48, %eax
	movq	%rdi, %rcx
	.p2align 4,,10
	.p2align 3
.L1185:
	cmpb	$125, (%rcx)
	jne	.L1183
	cmpl	$2, 16(%rsi)
	je	.L1195
	movl	$1, 16(%rsi)
	movw	%ax, 2(%r10)
	jmp	.L1180
	.p2align 4,,10
	.p2align 3
.L1267:
	subl	$48, %edx
	cmpb	$9, %dl
	ja	.L1165
	movl	$12, %esi
	movzbl	%dl, %eax
	leaq	1(%r9), %rcx
	jmp	.L1231
	.p2align 4,,10
	.p2align 3
.L1165:
	cmpq	%rcx, %r9
	jne	.L1175
.L1170:
	leaq	.LC23(%rip), %rdi
	call	_ZSt20__throw_format_errorPKc
	.p2align 4,,10
	.p2align 3
.L1166:
	movl	$10, %edi
	mulw	%di
	jo	.L1170
	movzbl	%r8b, %ebx
	addw	%ax, %bx
	jc	.L1170
	movl	%ebx, %eax
	jmp	.L1167
	.p2align 4,,10
	.p2align 3
.L1270:
	movl	$10, %ebx
	mulw	%bx
	jo	.L1170
	movzbl	%r8b, %ebp
	addw	%ax, %bp
	jc	.L1170
	movl	%ebp, %eax
	jmp	.L1250
	.p2align 4,,10
	.p2align 3
.L1271:
	movl	$10, %ebx
	mulw	%bx
	jo	.L1170
	movzbl	%bpl, %edx
	addw	%ax, %dx
	jc	.L1170
	movl	%edx, %eax
	jmp	.L1252
	.p2align 4,,10
	.p2align 3
.L1272:
	movl	$10, %ecx
	mulw	%cx
	jo	.L1170
	movzbl	%bl, %edx
	addw	%ax, %dx
	jc	.L1170
	movl	%edx, %eax
	jmp	.L1254
	.p2align 4,,10
	.p2align 3
.L1274:
	cmpl	$1, 16(%rsi)
	je	.L1195
	movq	24(%rsi), %rdi
	movl	$2, 16(%rsi)
	leaq	1(%rdi), %rbx
	movq	%rbx, 24(%rsi)
	movw	%di, 2(%r10)
.L1180:
	addq	$1, %rcx
	cmpq	%rcx, %r9
	je	.L1162
	movl	$2, %r9d
	jmp	.L1174
.L1275:
	leaq	2(%r9), %rcx
	cmpq	%rcx, %r11
	sete	%r11b
	xorl	%eax, %eax
.L1182:
	testb	%r11b, %r11b
	je	.L1185
.L1183:
	call	_ZNSt8__format33__invalid_arg_id_in_format_stringEv
	.p2align 4,,10
	.p2align 3
.L1269:
	movl	$10, %edi
	mulw	%di
	jo	.L1170
	movzbl	%r8b, %ebx
	addw	%ax, %bx
	jc	.L1170
	movl	%ebx, %eax
	jmp	.L1247
.L1268:
	movl	$10, %edi
	mulw	%di
	jo	.L1170
	movzbl	%r8b, %ebx
	addw	%ax, %bx
	jc	.L1170
	movl	%ebx, %eax
	jmp	.L1245
.L1197:
	movq	%r11, %rdx
	movq	%rcx, %r8
	xorl	%eax, %eax
	movl	$16, %edi
	subq	%rcx, %rdx
	andl	$3, %edx
	je	.L1184
	cmpq	$1, %rdx
	je	.L1232
	cmpq	$2, %rdx
	je	.L1233
	movzbl	(%rcx), %ebx
	leal	-48(%rbx), %ebp
	cmpb	$9, %bpl
	ja	.L1186
	movl	$12, %edi
	movzbl	%bpl, %eax
	leaq	1(%rcx), %r8
.L1233:
	movzbl	(%r8), %ebx
	subl	$48, %ebx
	cmpb	$9, %bl
	ja	.L1186
	subl	$4, %edi
	js	.L1276
	leal	(%rax,%rax,4), %eax
	movzbl	%bl, %ebx
	leal	(%rbx,%rax,2), %eax
.L1256:
	addq	$1, %r8
.L1232:
	movzbl	(%r8), %ebp
	subl	$48, %ebp
	cmpb	$9, %bpl
	ja	.L1186
	subl	$4, %edi
	js	.L1277
	leal	(%rax,%rax,4), %eax
	movzbl	%bpl, %ebp
	leal	0(%rbp,%rax,2), %eax
.L1258:
	addq	$1, %r8
	cmpq	%r8, %r11
	je	.L1193
.L1184:
	movzbl	(%r8), %ebx
	subl	$48, %ebx
	cmpb	$9, %bl
	ja	.L1186
	subl	$4, %edi
	js	.L1187
	leal	(%rax,%rax,4), %eax
	movzbl	%bl, %ebx
	leal	(%rbx,%rax,2), %eax
.L1188:
	movzbl	1(%r8), %edx
	leaq	1(%r8), %rbx
	movq	%rbx, %r8
	leal	-48(%rdx), %ebp
	cmpb	$9, %bpl
	ja	.L1186
	movl	%edi, %r8d
	subl	$4, %r8d
	js	.L1278
	leal	(%rax,%rax,4), %eax
	movzbl	%bpl, %r8d
	leal	(%r8,%rax,2), %eax
.L1260:
	movzbl	1(%rbx), %edx
	leaq	1(%rbx), %r8
	leal	-48(%rdx), %ebp
	cmpb	$9, %bpl
	ja	.L1186
	movl	%edi, %r8d
	subl	$8, %r8d
	js	.L1279
	leal	(%rax,%rax,4), %eax
	movzbl	%bpl, %r8d
	leal	(%r8,%rax,2), %eax
.L1262:
	movzbl	2(%rbx), %edx
	leaq	2(%rbx), %r8
	leal	-48(%rdx), %ebp
	cmpb	$9, %bpl
	ja	.L1186
	subl	$12, %edi
	js	.L1280
	leal	(%rax,%rax,4), %eax
	movzbl	%bpl, %ebp
	leal	0(%rbp,%rax,2), %eax
.L1264:
	leaq	3(%rbx), %r8
	cmpq	%r8, %r11
	jne	.L1184
.L1193:
	cmpq	%r8, %r11
	movq	%r8, %rcx
	sete	%r11b
	jmp	.L1182
.L1186:
	cmpq	%r8, %rcx
	jne	.L1193
	jmp	.L1183
	.p2align 4,,10
	.p2align 3
.L1278:
	movl	$10, %edx
	mulw	%dx
	jo	.L1183
	movzbl	%bpl, %ebp
	addw	%ax, %bp
	jc	.L1183
	movl	%ebp, %eax
	jmp	.L1260
.L1187:
	movl	$10, %edx
	mulw	%dx
	jo	.L1183
	movzbl	%bl, %ebp
	addw	%ax, %bp
	jc	.L1183
	movl	%ebp, %eax
	jmp	.L1188
.L1280:
	movl	$10, %r8d
	mulw	%r8w
	jo	.L1183
	movzbl	%bpl, %edx
	addw	%ax, %dx
	jc	.L1183
	movl	%edx, %eax
	jmp	.L1264
.L1279:
	movl	$10, %edx
	mulw	%dx
	jo	.L1183
	movzbl	%bpl, %ebp
	addw	%ax, %bp
	jc	.L1183
	movl	%ebp, %eax
	jmp	.L1262
.L1277:
	movl	$10, %edx
	mulw	%dx
	jo	.L1183
	movzbl	%bpl, %ebx
	addw	%ax, %bx
	jc	.L1183
	movl	%ebx, %eax
	jmp	.L1258
.L1276:
	movl	$10, %edx
	mulw	%dx
	jo	.L1183
	movzbl	%bl, %ebp
	addw	%ax, %bp
	jc	.L1183
	movl	%ebp, %eax
	jmp	.L1256
.L1273:
	call	_ZNSt8__format39__unmatched_left_brace_in_format_stringEv
.L1195:
	call	_ZNSt8__format39__conflicting_indexing_in_format_stringEv
.L1266:
	leaq	.LC22(%rip), %rdi
	call	_ZSt20__throw_format_errorPKc
	.cfi_endproc
.LFE11824:
	.size	_ZNSt8__format5_SpecIcE14_M_parse_widthEPKcS3_RSt26basic_format_parse_contextIcE, .-_ZNSt8__format5_SpecIcE14_M_parse_widthEPKcS3_RSt26basic_format_parse_contextIcE
	.section	.text._ZNSt8__format14__parse_arg_idIcEESt4pairItPKT_ES4_S4_,"axG",@progbits,_ZNSt8__format14__parse_arg_idIcEESt4pairItPKT_ES4_S4_,comdat
	.p2align 4
	.weak	_ZNSt8__format14__parse_arg_idIcEESt4pairItPKT_ES4_S4_
	.type	_ZNSt8__format14__parse_arg_idIcEESt4pairItPKT_ES4_S4_, @function
_ZNSt8__format14__parse_arg_idIcEESt4pairItPKT_ES4_S4_:
.LFB12317:
	.cfi_startproc
	endbr64
	movsbw	(%rdi), %dx
	movq	%rsi, %r8
	movq	%rdi, %rcx
	leaq	1(%rdi), %rsi
	xorl	%eax, %eax
	cmpb	$48, %dl
	je	.L1283
	leal	-49(%rdx), %eax
	cmpb	$8, %al
	ja	.L1294
	leaq	1(%rdi), %rsi
	cmpq	%r8, %rsi
	je	.L1284
	movzbl	1(%rdi), %edi
	subl	$48, %edi
	cmpb	$9, %dil
	ja	.L1284
	movq	%r8, %r9
	movq	%rcx, %rsi
	xorl	%eax, %eax
	movl	$16, %r11d
	subq	%rcx, %r9
	andl	$3, %r9d
	je	.L1285
	cmpq	$1, %r9
	je	.L1314
	cmpq	$2, %r9
	je	.L1315
	subl	$48, %edx
	cmpb	$9, %dl
	ja	.L1286
	movl	$12, %r11d
	movzbl	%dl, %eax
	leaq	1(%rcx), %rsi
.L1315:
	movzbl	(%rsi), %r10d
	leal	-48(%r10), %edi
	cmpb	$9, %dil
	ja	.L1286
	subl	$4, %r11d
	js	.L1333
	leal	(%rax,%rax,4), %eax
	movzbl	%dil, %r10d
	leal	(%r10,%rax,2), %eax
.L1323:
	addq	$1, %rsi
.L1314:
	movzbl	(%rsi), %edi
	leal	-48(%rdi), %r9d
	cmpb	$9, %r9b
	ja	.L1286
	subl	$4, %r11d
	js	.L1334
	leal	(%rax,%rax,4), %eax
	movzbl	%r9b, %edi
	leal	(%rdi,%rax,2), %eax
.L1325:
	addq	$1, %rsi
	cmpq	%rsi, %r8
	je	.L1283
.L1285:
	movzbl	(%rsi), %r9d
	leal	-48(%r9), %r10d
	cmpb	$9, %r10b
	ja	.L1286
	subl	$4, %r11d
	js	.L1287
	leal	(%rax,%rax,4), %eax
	movzbl	%r10b, %r9d
	leal	(%r9,%rax,2), %eax
.L1288:
	movzbl	1(%rsi), %r10d
	leaq	1(%rsi), %rdi
	movq	%rdi, %rsi
	leal	-48(%r10), %r9d
	cmpb	$9, %r9b
	ja	.L1286
	movl	%r11d, %esi
	subl	$4, %esi
	js	.L1335
	leal	(%rax,%rax,4), %eax
	movzbl	%r9b, %r9d
	leal	(%r9,%rax,2), %eax
.L1327:
	movzbl	1(%rdi), %edx
	leaq	1(%rdi), %rsi
	leal	-48(%rdx), %r10d
	cmpb	$9, %r10b
	ja	.L1286
	movl	%r11d, %esi
	subl	$8, %esi
	js	.L1336
	leal	(%rax,%rax,4), %eax
	movzbl	%r10b, %r10d
	leal	(%r10,%rax,2), %eax
.L1329:
	movzbl	2(%rdi), %r9d
	leaq	2(%rdi), %rsi
	leal	-48(%r9), %r10d
	cmpb	$9, %r10b
	ja	.L1286
	subl	$12, %r11d
	js	.L1337
	leal	(%rax,%rax,4), %eax
	movzbl	%r10b, %r9d
	leal	(%r9,%rax,2), %eax
.L1331:
	leaq	3(%rdi), %rsi
	cmpq	%rsi, %r8
	jne	.L1285
.L1283:
	movq	%rsi, %rdx
	movzwl	%ax, %eax
	ret
	.p2align 4,,10
	.p2align 3
.L1294:
	xorl	%eax, %eax
	xorl	%esi, %esi
	movq	%rsi, %rdx
	movzwl	%ax, %eax
	ret
	.p2align 4,,10
	.p2align 3
.L1284:
	leal	-48(%rdx), %eax
	movq	%rsi, %rdx
	movzwl	%ax, %eax
	ret
.L1333:
	movl	$10, %edx
	mulw	%dx
	jo	.L1332
	movzbl	%dil, %r9d
	addw	%ax, %r9w
	jc	.L1332
	movl	%r9d, %eax
	jmp	.L1323
	.p2align 4,,10
	.p2align 3
.L1286:
	cmpq	%rsi, %rcx
	jne	.L1283
.L1332:
	xorl	%esi, %esi
	xorl	%eax, %eax
	jmp	.L1283
	.p2align 4,,10
	.p2align 3
.L1287:
	movl	$10, %edx
	mulw	%dx
	jo	.L1332
	movzbl	%r10b, %edi
	addw	%ax, %di
	jc	.L1332
	movl	%edi, %eax
	jmp	.L1288
	.p2align 4,,10
	.p2align 3
.L1335:
	movl	$10, %edx
	mulw	%dx
	jo	.L1332
	movzbl	%r9b, %r10d
	addw	%ax, %r10w
	jc	.L1332
	movl	%r10d, %eax
	jmp	.L1327
	.p2align 4,,10
	.p2align 3
.L1336:
	movl	$10, %r9d
	mulw	%r9w
	jo	.L1332
	movzbl	%r10b, %edx
	addw	%ax, %dx
	jc	.L1332
	movl	%edx, %eax
	jmp	.L1329
	.p2align 4,,10
	.p2align 3
.L1337:
	movl	$10, %esi
	mulw	%si
	jo	.L1332
	movzbl	%r10b, %edx
	addw	%ax, %dx
	jc	.L1332
	movl	%edx, %eax
	jmp	.L1331
.L1334:
	movl	$10, %edx
	mulw	%dx
	jo	.L1332
	movzbl	%r9b, %r10d
	addw	%ax, %r10w
	jc	.L1332
	movl	%r10d, %eax
	jmp	.L1325
	.cfi_endproc
.LFE12317:
	.size	_ZNSt8__format14__parse_arg_idIcEESt4pairItPKT_ES4_S4_, .-_ZNSt8__format14__parse_arg_idIcEESt4pairItPKT_ES4_S4_
	.section	.rodata._ZNSt8__format15__formatter_strIcE5parseERSt26basic_format_parse_contextIcE.str1.8,"aMS",@progbits,1
	.align 8
.LC24:
	.string	"format error: missing precision after '.' in format string"
	.section	.text._ZNSt8__format15__formatter_strIcE5parseERSt26basic_format_parse_contextIcE,"axG",@progbits,_ZNSt8__format15__formatter_strIcE5parseERSt26basic_format_parse_contextIcE,comdat
	.align 2
	.p2align 4
	.weak	_ZNSt8__format15__formatter_strIcE5parseERSt26basic_format_parse_contextIcE
	.type	_ZNSt8__format15__formatter_strIcE5parseERSt26basic_format_parse_contextIcE, @function
_ZNSt8__format15__formatter_strIcE5parseERSt26basic_format_parse_contextIcE:
.LFB11819:
	.cfi_startproc
	endbr64
	pushq	%r15
	.cfi_def_cfa_offset 16
	.cfi_offset 15, -16
	pushq	%r14
	.cfi_def_cfa_offset 24
	.cfi_offset 14, -24
	movq	%rsi, %r14
	pushq	%r13
	.cfi_def_cfa_offset 32
	.cfi_offset 13, -32
	movq	%rdi, %r13
	pushq	%r12
	.cfi_def_cfa_offset 40
	.cfi_offset 12, -40
	pushq	%rbp
	.cfi_def_cfa_offset 48
	.cfi_offset 6, -48
	pushq	%rbx
	.cfi_def_cfa_offset 56
	.cfi_offset 3, -56
	subq	$40, %rsp
	.cfi_def_cfa_offset 96
	movq	(%rsi), %rcx
	movq	8(%rsi), %r12
	xorl	%esi, %esi
	cmpq	%rcx, %r12
	je	.L1406
	movzbl	(%rcx), %ebp
	cmpb	$125, %bpl
	je	.L1406
	cmpb	$123, %bpl
	je	.L1407
	movq	%r12, %rax
	subq	%rcx, %rax
	cmpq	$1, %rax
	jle	.L1341
	movzbl	1(%rcx), %edx
	cmpb	$62, %dl
	je	.L1408
	cmpb	$94, %dl
	je	.L1409
	movl	$1, %r15d
	cmpb	$60, %dl
	je	.L1342
	cmpb	$62, %bpl
	je	.L1417
	cmpb	$94, %bpl
	je	.L1418
	cmpb	$60, %bpl
	je	.L1419
	xorl	%r15d, %r15d
	movl	$32, %ebp
	jmp	.L1346
	.p2align 4,,10
	.p2align 3
.L1407:
	xorl	%r15d, %r15d
	movl	$32, %ebp
.L1340:
	leaq	1(%rcx), %rdi
	cmpq	%rdi, %r12
	je	.L1398
	movsbw	1(%rcx), %r9w
	cmpb	$125, %r9b
	je	.L1530
	cmpb	$48, %r9b
	je	.L1531
	leal	-49(%r9), %r10d
	cmpb	$8, %r10b
	jbe	.L1369
.L1370:
	call	_ZNSt8__format33__invalid_arg_id_in_format_stringEv
	.p2align 4,,10
	.p2align 3
.L1406:
	movl	$32, %ebp
.L1339:
	movzbl	%bpl, %edi
	movabsq	$-71776119061217281, %rbp
	salq	$48, %rdi
	andq	%rsi, %rbp
	orq	%rdi, %rbp
	movq	%rbp, %rax
	movl	%ebp, 0(%r13)
	shrq	$24, %rax
	movl	%eax, 3(%r13)
	addq	$40, %rsp
	.cfi_remember_state
	.cfi_def_cfa_offset 56
	movq	%rcx, %rax
	popq	%rbx
	.cfi_def_cfa_offset 48
	popq	%rbp
	.cfi_def_cfa_offset 40
	popq	%r12
	.cfi_def_cfa_offset 32
	popq	%r13
	.cfi_def_cfa_offset 24
	popq	%r14
	.cfi_def_cfa_offset 16
	popq	%r15
	.cfi_def_cfa_offset 8
	ret
	.p2align 4,,10
	.p2align 3
.L1408:
	.cfi_restore_state
	movl	$2, %r15d
.L1342:
	addq	$2, %rcx
	cmpq	%rcx, %r12
	je	.L1347
.L1346:
	movzbl	(%rcx), %edi
	cmpb	$125, %dil
	je	.L1347
.L1348:
	cmpb	$48, %dil
	je	.L1532
	movzbl	%dil, %ebx
	leaq	_ZNSt8__detail31__from_chars_alnum_to_val_tableILb0EE5valueE(%rip), %r8
	cmpb	$9, (%r8,%rbx)
	jbe	.L1533
	cmpb	$123, %dil
	je	.L1340
	xorl	%ebx, %ebx
	cmpq	%rcx, %r12
	je	.L1416
	xorl	%r8d, %r8d
.L1404:
	cmpb	$46, %dil
	je	.L1534
	xorl	%r9d, %r9d
	xorl	%esi, %esi
.L1383:
	cmpb	$115, %dil
	je	.L1535
.L1402:
	call	_ZNSt8__format29__failed_to_parse_format_specEv
	.p2align 4,,10
	.p2align 3
.L1417:
	movl	$2, %r15d
.L1345:
	addq	$1, %rcx
	movl	$32, %ebp
	cmpq	%rcx, %r12
	jne	.L1346
.L1347:
	movq	%r15, %rsi
	andl	$3, %esi
	jmp	.L1339
	.p2align 4,,10
	.p2align 3
.L1533:
	cmpq	%rcx, %r12
	je	.L1351
	movq	%r12, %rax
	movq	%rcx, %r8
	xorl	%ebx, %ebx
	movl	$16, %edi
	subq	%rcx, %rax
	andl	$3, %eax
	je	.L1359
	cmpq	$1, %rax
	je	.L1472
	cmpq	$2, %rax
	je	.L1473
	movzbl	(%rcx), %edx
	subl	$48, %edx
	cmpb	$9, %dl
	ja	.L1352
	movl	$12, %edi
	movzbl	%dl, %ebx
	leaq	1(%rcx), %r8
.L1473:
	movzbl	(%r8), %r10d
	leal	-48(%r10), %r9d
	cmpb	$9, %r9b
	ja	.L1352
	subl	$4, %edi
	js	.L1536
	leal	(%rbx,%rbx,4), %edx
	movzbl	%r9b, %r10d
	leal	(%r10,%rdx,2), %ebx
.L1509:
	addq	$1, %r8
.L1472:
	movzbl	(%r8), %r9d
	leal	-48(%r9), %r11d
	cmpb	$9, %r11b
	ja	.L1352
	subl	$4, %edi
	js	.L1537
	leal	(%rbx,%rbx,4), %r10d
	movzbl	%r11b, %r9d
	leal	(%r9,%r10,2), %ebx
.L1511:
	addq	$1, %r8
	cmpq	%r8, %r12
	je	.L1512
.L1359:
	movzbl	(%r8), %r11d
	leal	-48(%r11), %r10d
	cmpb	$9, %r10b
	ja	.L1352
	subl	$4, %edi
	js	.L1353
	leal	(%rbx,%rbx,4), %r11d
	movzbl	%r10b, %r9d
	leal	(%r9,%r11,2), %ebx
.L1354:
	movzbl	1(%r8), %r10d
	leaq	1(%r8), %r11
	movq	%r11, %r8
	leal	-48(%r10), %r9d
	cmpb	$9, %r9b
	ja	.L1352
	movl	%edi, %r8d
	subl	$4, %r8d
	js	.L1538
	leal	(%rbx,%rbx,4), %r10d
	movzbl	%r9b, %r9d
	leal	(%r9,%r10,2), %ebx
.L1514:
	movzbl	1(%r11), %edx
	leaq	1(%r11), %r8
	leal	-48(%rdx), %r10d
	cmpb	$9, %r10b
	ja	.L1352
	movl	%edi, %r8d
	subl	$8, %r8d
	js	.L1539
	leal	(%rbx,%rbx,4), %edx
	movzbl	%r10b, %r10d
	leal	(%r10,%rdx,2), %ebx
.L1516:
	movzbl	2(%r11), %r9d
	leaq	2(%r11), %r8
	leal	-48(%r9), %r10d
	cmpb	$9, %r10b
	ja	.L1352
	subl	$12, %edi
	js	.L1540
	leal	(%rbx,%rbx,4), %edx
	movzbl	%r10b, %r9d
	leal	(%r9,%rdx,2), %ebx
.L1518:
	leaq	3(%r11), %r8
	cmpq	%r8, %r12
	jne	.L1359
.L1512:
	movq	%r12, %rcx
	movl	$1, %r8d
	jmp	.L1360
	.p2align 4,,10
	.p2align 3
.L1352:
	cmpq	%rcx, %r8
	je	.L1351
	movq	%r8, %rcx
	movl	$1, %r8d
.L1382:
	cmpq	%rcx, %r12
	je	.L1360
	movzbl	(%rcx), %edi
	cmpb	$125, %dil
	jne	.L1404
.L1360:
	sall	$7, %r8d
	movzwl	%bx, %ebx
	movabsq	$-4294901761, %r14
	movw	%r8w, %si
	salq	$16, %rbx
	orw	%r15w, %si
	andq	%rsi, %r14
	orq	%rbx, %r14
	movq	%r14, %rsi
	jmp	.L1339
	.p2align 4,,10
	.p2align 3
.L1341:
	cmpb	$62, %bpl
	je	.L1417
	cmpb	$94, %bpl
	je	.L1418
	cmpb	$60, %bpl
	je	.L1419
	movl	%ebp, %edi
	xorl	%r15d, %r15d
	movl	$32, %ebp
	jmp	.L1348
	.p2align 4,,10
	.p2align 3
.L1419:
	movl	$1, %r15d
	jmp	.L1345
	.p2align 4,,10
	.p2align 3
.L1534:
	leaq	1(%rcx), %r9
	cmpq	%r9, %r12
	je	.L1397
	movzbl	1(%rcx), %edi
	leaq	_ZNSt8__detail31__from_chars_alnum_to_val_tableILb0EE5valueE(%rip), %rsi
	cmpb	$9, (%rsi,%rdi)
	ja	.L1386
	movq	%r12, %r14
	movq	%r9, %rcx
	xorl	%esi, %esi
	movl	$16, %r10d
	subq	%r9, %r14
	andl	$3, %r14d
	je	.L1394
	cmpq	$1, %r14
	je	.L1476
	cmpq	$2, %r14
	je	.L1477
	movzbl	(%r9), %eax
	subl	$48, %eax
	cmpb	$9, %al
	ja	.L1387
	movl	$12, %r10d
	movzbl	%al, %esi
	leaq	1(%r9), %rcx
.L1477:
	movzbl	(%rcx), %edx
	leal	-48(%rdx), %edi
	cmpb	$9, %dil
	ja	.L1387
	subl	$4, %r10d
	js	.L1541
	leal	(%rsi,%rsi,4), %r14d
	movzbl	%dil, %edx
	leal	(%rdx,%r14,2), %esi
.L1498:
	addq	$1, %rcx
.L1476:
	movzbl	(%rcx), %edi
	leal	-48(%rdi), %r11d
	cmpb	$9, %r11b
	ja	.L1387
	subl	$4, %r10d
	js	.L1542
	leal	(%rsi,%rsi,4), %edx
	movzbl	%r11b, %edi
	leal	(%rdi,%rdx,2), %esi
.L1500:
	addq	$1, %rcx
	cmpq	%rcx, %r12
	je	.L1501
.L1394:
	movzbl	(%rcx), %r11d
	leal	-48(%r11), %r14d
	cmpb	$9, %r14b
	ja	.L1387
	subl	$4, %r10d
	js	.L1388
	leal	(%rsi,%rsi,4), %r11d
	movzbl	%r14b, %edi
	leal	(%rdi,%r11,2), %esi
.L1389:
	movzbl	1(%rcx), %edx
	leaq	1(%rcx), %r14
	movq	%r14, %rcx
	leal	-48(%rdx), %r11d
	cmpb	$9, %r11b
	ja	.L1387
	movl	%r10d, %ecx
	subl	$4, %ecx
	js	.L1543
	leal	(%rsi,%rsi,4), %edx
	movzbl	%r11b, %r11d
	leal	(%r11,%rdx,2), %esi
.L1503:
	movzbl	1(%r14), %edi
	leaq	1(%r14), %rcx
	leal	-48(%rdi), %r11d
	cmpb	$9, %r11b
	ja	.L1387
	movl	%r10d, %ecx
	subl	$8, %ecx
	js	.L1544
	leal	(%rsi,%rsi,4), %edi
	movzbl	%r11b, %r11d
	leal	(%r11,%rdi,2), %esi
.L1505:
	movzbl	2(%r14), %edx
	leaq	2(%r14), %rcx
	leal	-48(%rdx), %edi
	cmpb	$9, %dil
	ja	.L1387
	subl	$12, %r10d
	js	.L1545
	leal	(%rsi,%rsi,4), %r11d
	movzbl	%dil, %edx
	leal	(%rdx,%r11,2), %esi
.L1507:
	leaq	3(%r14), %rcx
	cmpq	%rcx, %r12
	jne	.L1394
.L1501:
	movl	$1, %r9d
	.p2align 4,,10
	.p2align 3
.L1395:
	andl	$3, %r8d
	andl	$3, %r15d
	andl	$3, %r9d
	movzwl	%bx, %r12d
	salq	$7, %r8
	salq	$9, %r9
	movzwl	%si, %esi
	salq	$16, %r12
	orq	%r8, %r15
	salq	$32, %rsi
	orq	%r9, %r15
	orq	%r12, %r15
	orq	%r15, %rsi
	jmp	.L1339
	.p2align 4,,10
	.p2align 3
.L1409:
	movl	$3, %r15d
	jmp	.L1342
	.p2align 4,,10
	.p2align 3
.L1535:
	leaq	1(%rcx), %r10
	cmpq	%r12, %r10
	je	.L1403
	cmpb	$125, 1(%rcx)
	jne	.L1402
.L1403:
	andl	$3, %r8d
	andl	$3, %r15d
	andl	$3, %r9d
	movzwl	%si, %esi
	salq	$7, %r8
	salq	$9, %r9
	movq	%r10, %rcx
	orq	%r8, %r15
	movzwl	%bx, %r8d
	salq	$32, %rsi
	salq	$16, %r8
	orq	%r9, %r15
	orq	%r8, %r15
	orq	%r15, %rsi
	jmp	.L1339
	.p2align 4,,10
	.p2align 3
.L1418:
	movl	$3, %r15d
	jmp	.L1345
	.p2align 4,,10
	.p2align 3
.L1386:
	cmpb	$123, %dil
	je	.L1546
.L1397:
	leaq	.LC24(%rip), %rdi
	call	_ZSt20__throw_format_errorPKc
	.p2align 4,,10
	.p2align 3
.L1530:
	cmpl	$1, 16(%r14)
	je	.L1381
	movq	24(%r14), %rbx
	movl	$2, 16(%r14)
	leaq	1(%rbx), %r11
	movq	%r11, 24(%r14)
.L1366:
	addq	$1, %rdi
	xorl	%r8d, %r8d
	cmpq	%rcx, %rdi
	je	.L1382
	movq	%rdi, %rcx
	movl	$2, %r8d
	jmp	.L1382
	.p2align 4,,10
	.p2align 3
.L1353:
	movl	$10, %edx
	movl	%ebx, %eax
	mulw	%dx
	jo	.L1351
	movzbl	%r10b, %ebx
	addw	%ax, %bx
	jnc	.L1354
.L1351:
	leaq	.LC23(%rip), %rdi
	call	_ZSt20__throw_format_errorPKc
	.p2align 4,,10
	.p2align 3
.L1538:
	movl	$10, %edx
	movl	%ebx, %eax
	mulw	%dx
	jo	.L1351
	movzbl	%r9b, %ebx
	addw	%ax, %bx
	jnc	.L1514
	jmp	.L1351
	.p2align 4,,10
	.p2align 3
.L1539:
	movl	$10, %r9d
	movl	%ebx, %eax
	mulw	%r9w
	jo	.L1351
	movzbl	%r10b, %ebx
	addw	%ax, %bx
	jnc	.L1516
	jmp	.L1351
	.p2align 4,,10
	.p2align 3
.L1540:
	movl	$10, %r8d
	movl	%ebx, %eax
	mulw	%r8w
	jo	.L1351
	movzbl	%r10b, %ebx
	addw	%ax, %bx
	jnc	.L1518
	jmp	.L1351
	.p2align 4,,10
	.p2align 3
.L1416:
	xorl	%r8d, %r8d
	jmp	.L1360
.L1531:
	leaq	2(%rcx), %rdi
	cmpq	%rdi, %r12
	sete	%r8b
	xorl	%ebx, %ebx
.L1368:
	testb	%r8b, %r8b
	jne	.L1370
.L1372:
	cmpb	$125, (%rdi)
	jne	.L1370
	cmpl	$2, 16(%r14)
	je	.L1381
	movl	$1, 16(%r14)
	jmp	.L1366
.L1369:
	leaq	2(%rcx), %r11
	cmpq	%r11, %r12
	je	.L1370
	movzbl	2(%rcx), %eax
	subl	$48, %eax
	cmpb	$9, %al
	jbe	.L1413
	leal	-48(%r9), %ebx
	movq	%r11, %rdi
	jmp	.L1372
.L1537:
	movl	$10, %edx
	movl	%ebx, %eax
	mulw	%dx
	jo	.L1351
	movzbl	%r11b, %ebx
	addw	%ax, %bx
	jnc	.L1511
	jmp	.L1351
	.p2align 4,,10
	.p2align 3
.L1546:
	leaq	2(%rcx), %rdi
	cmpq	%rdi, %r12
	je	.L1398
	cmpb	$125, 2(%rcx)
	je	.L1547
	movq	%r12, %rsi
	movq	%r9, 16(%rsp)
	movb	%r8b, 15(%rsp)
	call	_ZNSt8__format14__parse_arg_idIcEESt4pairItPKT_ES4_S4_
	movl	%eax, %esi
	movq	%rdx, %rdi
	testq	%rdx, %rdx
	je	.L1370
	cmpq	%rdx, %r12
	je	.L1370
	cmpb	$125, (%rdx)
	jne	.L1370
	cmpl	$2, 16(%r14)
	je	.L1381
	movl	$1, 16(%r14)
	movq	16(%rsp), %r9
	movzbl	15(%rsp), %r8d
.L1400:
	leaq	1(%rdi), %rcx
	cmpq	%rcx, %r9
	je	.L1397
	movl	$2, %r9d
.L1396:
	cmpq	%rcx, %r12
	je	.L1395
	movzbl	(%rcx), %edi
	cmpb	$125, %dil
	je	.L1395
	jmp	.L1383
.L1536:
	movl	$10, %r11d
	movl	%ebx, %eax
	mulw	%r11w
	jo	.L1351
	movzbl	%r9b, %ebx
	addw	%ax, %bx
	jnc	.L1509
	jmp	.L1351
	.p2align 4,,10
	.p2align 3
.L1387:
	cmpq	%rcx, %r9
	je	.L1351
	movl	$1, %r9d
	jmp	.L1396
.L1388:
	movl	$10, %edx
	movl	%esi, %eax
	mulw	%dx
	jo	.L1351
	movzbl	%r14b, %esi
	addw	%ax, %si
	jnc	.L1389
	jmp	.L1351
	.p2align 4,,10
	.p2align 3
.L1543:
	movl	$10, %edi
	movl	%esi, %eax
	mulw	%di
	jo	.L1351
	movzbl	%r11b, %esi
	addw	%ax, %si
	jnc	.L1503
	jmp	.L1351
	.p2align 4,,10
	.p2align 3
.L1544:
	movl	$10, %edx
	movl	%esi, %eax
	mulw	%dx
	jo	.L1351
	movzbl	%r11b, %esi
	addw	%ax, %si
	jnc	.L1505
	jmp	.L1351
	.p2align 4,,10
	.p2align 3
.L1413:
	movq	%r12, %rdx
	movq	%rdi, %r9
	xorl	%ebx, %ebx
	movl	$16, %r8d
	subq	%rdi, %rdx
	andl	$3, %edx
	je	.L1371
	cmpq	$1, %rdx
	je	.L1474
	cmpq	$2, %rdx
	je	.L1475
	movzbl	(%rdi), %r10d
	subl	$48, %r10d
	cmpb	$9, %r10b
	ja	.L1373
	movl	$12, %r8d
	movzbl	%r10b, %ebx
	leaq	1(%rdi), %r9
.L1475:
	movzbl	(%r9), %r11d
	leal	-48(%r11), %r10d
	cmpb	$9, %r10b
	ja	.L1373
	subl	$4, %r8d
	js	.L1548
	leal	(%rbx,%rbx,4), %r11d
	movzbl	%r10b, %r10d
	leal	(%r10,%r11,2), %ebx
.L1520:
	addq	$1, %r9
.L1474:
	movzbl	(%r9), %edx
	leal	-48(%rdx), %r11d
	cmpb	$9, %r11b
	ja	.L1373
	subl	$4, %r8d
	js	.L1549
	leal	(%rbx,%rbx,4), %edx
	movzbl	%r11b, %r11d
	leal	(%r11,%rdx,2), %ebx
.L1522:
	addq	$1, %r9
	cmpq	%r9, %r12
	je	.L1380
.L1371:
	movzbl	(%r9), %r10d
	leal	-48(%r10), %r11d
	cmpb	$9, %r11b
	ja	.L1373
	subl	$4, %r8d
	js	.L1374
	leal	(%rbx,%rbx,4), %edx
	movzbl	%r11b, %r10d
	leal	(%r10,%rdx,2), %ebx
.L1375:
	movzbl	1(%r9), %eax
	leaq	1(%r9), %r11
	movq	%r11, %r9
	leal	-48(%rax), %r10d
	cmpb	$9, %r10b
	ja	.L1373
	movl	%r8d, %r9d
	subl	$4, %r9d
	js	.L1550
	leal	(%rbx,%rbx,4), %r9d
	movzbl	%r10b, %r10d
	leal	(%r10,%r9,2), %ebx
.L1524:
	movzbl	1(%r11), %edx
	leaq	1(%r11), %r9
	leal	-48(%rdx), %r10d
	cmpb	$9, %r10b
	ja	.L1373
	movl	%r8d, %eax
	subl	$8, %eax
	js	.L1551
	leal	(%rbx,%rbx,4), %edx
	movzbl	%r10b, %r10d
	leal	(%r10,%rdx,2), %ebx
.L1526:
	movzbl	2(%r11), %eax
	leaq	2(%r11), %r9
	leal	-48(%rax), %r10d
	cmpb	$9, %r10b
	ja	.L1373
	subl	$12, %r8d
	js	.L1552
	leal	(%rbx,%rbx,4), %edx
	movzbl	%r10b, %r10d
	leal	(%r10,%rdx,2), %ebx
.L1528:
	leaq	3(%r11), %r9
	cmpq	%r9, %r12
	jne	.L1371
.L1380:
	cmpq	%r9, %r12
	movq	%r9, %rdi
	sete	%r8b
	jmp	.L1368
.L1545:
	movl	$10, %ecx
	movl	%esi, %eax
	mulw	%cx
	jo	.L1351
	movzbl	%dil, %esi
	addw	%ax, %si
	jnc	.L1507
	jmp	.L1351
	.p2align 4,,10
	.p2align 3
.L1547:
	cmpl	$1, 16(%r14)
	je	.L1381
	movq	24(%r14), %rsi
	movl	$2, 16(%r14)
	leaq	1(%rsi), %rcx
	movq	%rcx, 24(%r14)
	jmp	.L1400
.L1542:
	movl	$10, %r14d
	movl	%esi, %eax
	mulw	%r14w
	jo	.L1351
	movzbl	%r11b, %esi
	addw	%ax, %si
	jnc	.L1500
	jmp	.L1351
	.p2align 4,,10
	.p2align 3
.L1541:
	movl	$10, %r11d
	movl	%esi, %eax
	mulw	%r11w
	jo	.L1351
	movzbl	%dil, %esi
	addw	%ax, %si
	jnc	.L1498
	jmp	.L1351
	.p2align 4,,10
	.p2align 3
.L1373:
	cmpq	%r9, %rdi
	jne	.L1380
	jmp	.L1370
.L1550:
	movl	$10, %edx
	movl	%ebx, %eax
	mulw	%dx
	jo	.L1370
	movzbl	%r10b, %ebx
	addw	%ax, %bx
	jnc	.L1524
	jmp	.L1370
	.p2align 4,,10
	.p2align 3
.L1374:
	movl	$10, %edx
	movl	%ebx, %eax
	mulw	%dx
	jo	.L1370
	movzbl	%r11b, %ebx
	addw	%ax, %bx
	jnc	.L1375
	jmp	.L1370
.L1552:
	movl	$10, %r9d
	movl	%ebx, %eax
	mulw	%r9w
	jo	.L1370
	movzbl	%r10b, %ebx
	addw	%ax, %bx
	jnc	.L1528
	jmp	.L1370
.L1551:
	movl	$10, %r9d
	movl	%ebx, %eax
	mulw	%r9w
	jo	.L1370
	movzbl	%r10b, %ebx
	addw	%ax, %bx
	jnc	.L1526
	jmp	.L1370
.L1549:
	movl	$10, %r10d
	movl	%ebx, %eax
	mulw	%r10w
	jo	.L1370
	movzbl	%r11b, %ebx
	addw	%ax, %bx
	jnc	.L1522
	jmp	.L1370
.L1548:
	movl	$10, %edx
	movl	%ebx, %eax
	mulw	%dx
	jo	.L1370
	movzbl	%r10b, %ebx
	addw	%ax, %bx
	jnc	.L1520
	jmp	.L1370
.L1381:
	call	_ZNSt8__format39__conflicting_indexing_in_format_stringEv
.L1398:
	call	_ZNSt8__format39__unmatched_left_brace_in_format_stringEv
.L1532:
	leaq	.LC22(%rip), %rdi
	call	_ZSt20__throw_format_errorPKc
	.cfi_endproc
.LFE11819:
	.size	_ZNSt8__format15__formatter_strIcE5parseERSt26basic_format_parse_contextIcE, .-_ZNSt8__format15__formatter_strIcE5parseERSt26basic_format_parse_contextIcE
	.section	.text._ZNSt8__format15__formatter_intIcE11_M_do_parseERSt26basic_format_parse_contextIcENS_10_Pres_typeE,"axG",@progbits,_ZNSt8__format15__formatter_intIcE11_M_do_parseERSt26basic_format_parse_contextIcENS_10_Pres_typeE,comdat
	.align 2
	.p2align 4
	.weak	_ZNSt8__format15__formatter_intIcE11_M_do_parseERSt26basic_format_parse_contextIcENS_10_Pres_typeE
	.type	_ZNSt8__format15__formatter_intIcE11_M_do_parseERSt26basic_format_parse_contextIcENS_10_Pres_typeE, @function
_ZNSt8__format15__formatter_intIcE11_M_do_parseERSt26basic_format_parse_contextIcENS_10_Pres_typeE:
.LFB12357:
	.cfi_startproc
	endbr64
	pushq	%r15
	.cfi_def_cfa_offset 16
	.cfi_offset 15, -16
	movq	%rsi, %r8
	movl	%edx, %r11d
	movq	%rdi, %r9
	pushq	%r14
	.cfi_def_cfa_offset 24
	.cfi_offset 14, -24
	andl	$15, %r11d
	pushq	%r13
	.cfi_def_cfa_offset 32
	.cfi_offset 13, -32
	pushq	%r12
	.cfi_def_cfa_offset 40
	.cfi_offset 12, -40
	pushq	%rbp
	.cfi_def_cfa_offset 48
	.cfi_offset 6, -48
	pushq	%rbx
	.cfi_def_cfa_offset 56
	.cfi_offset 3, -56
	subq	$56, %rsp
	.cfi_def_cfa_offset 112
	movq	8(%rsi), %rbx
	movq	(%rsi), %rsi
	cmpq	%rbx, %rsi
	je	.L1554
	movzbl	(%rsi), %ecx
	cmpb	$125, %cl
	je	.L1554
	movl	%edx, %r10d
	xorl	%edi, %edi
	cmpb	$123, %cl
	je	.L1631
	movq	%rbx, %rax
	subq	%rsi, %rax
	cmpq	$1, %rax
	jle	.L1556
	movzbl	1(%rsi), %r12d
	cmpb	$62, %r12b
	je	.L1632
	cmpb	$94, %r12b
	je	.L1633
	movl	$1, %ebp
	cmpb	$60, %r12b
	je	.L1557
	cmpb	$62, %cl
	je	.L1649
	cmpb	$94, %cl
	je	.L1650
	cmpb	$60, %cl
	je	.L1651
	xorl	%ebp, %ebp
	movl	$32, %ecx
	jmp	.L1561
	.p2align 4,,10
	.p2align 3
.L1631:
	xorl	%r15d, %r15d
	movl	$32, %ecx
	xorl	%ebp, %ebp
.L1555:
	movzbl	(%rsi), %edx
	cmpb	$125, %dl
	jne	.L1627
.L1566:
	andl	$15, %r10d
	movzbl	%r15b, %ebx
	sall	$11, %r10d
	sall	$2, %ebx
	orl	%ebx, %ebp
	movw	%r10w, %di
	orw	%bp, %di
	jmp	.L1563
	.p2align 4,,10
	.p2align 3
.L1554:
	movq	%r11, %rdi
	movl	$32, %ecx
	andl	$15, %edi
	salq	$11, %rdi
.L1563:
	movzbl	%cl, %r10d
	movq	%rsi, %rax
	movabsq	$-71776119061217281, %rcx
	salq	$48, %r10
	andq	%rdi, %rcx
	orq	%r10, %rcx
	movq	%rcx, %r13
	movl	%ecx, (%r9)
	shrq	$24, %r13
	movl	%r13d, 3(%r9)
	addq	$56, %rsp
	.cfi_remember_state
	.cfi_def_cfa_offset 56
	popq	%rbx
	.cfi_def_cfa_offset 48
	popq	%rbp
	.cfi_def_cfa_offset 40
	popq	%r12
	.cfi_def_cfa_offset 32
	popq	%r13
	.cfi_def_cfa_offset 24
	popq	%r14
	.cfi_def_cfa_offset 16
	popq	%r15
	.cfi_def_cfa_offset 8
	ret
	.p2align 4,,10
	.p2align 3
.L1632:
	.cfi_restore_state
	movl	$2, %ebp
.L1557:
	addq	$2, %rsi
	cmpq	%rsi, %rbx
	je	.L1562
.L1561:
	movzbl	(%rsi), %edx
	cmpb	$125, %dl
	je	.L1562
.L1628:
	leal	-32(%rdx), %r13d
	xorl	%r15d, %r15d
	cmpb	$13, %r13b
	ja	.L1565
	leaq	CSWTCH.915(%rip), %r15
	movzbl	%r13b, %r14d
	movl	(%r15,%r14,4), %eax
	xorl	%r15d, %r15d
	testl	%eax, %eax
	jne	.L1759
.L1627:
	cmpb	$35, %dl
	jne	.L1565
	leaq	1(%rsi), %r12
	cmpq	%r12, %rbx
	je	.L1568
	movzbl	1(%rsi), %edx
	cmpb	$125, %dl
	je	.L1568
	movq	%r12, %rsi
	movl	$1, %r14d
	jmp	.L1625
	.p2align 4,,10
	.p2align 3
.L1568:
	movq	%rbp, %rdi
	andl	$3, %r15d
	andl	$15, %r11d
	movq	%r12, %rsi
	salq	$2, %r15
	andl	$3, %edi
	salq	$11, %r11
	orq	%r15, %rdi
	orq	$16, %rdi
	orq	%r11, %rdi
	jmp	.L1563
	.p2align 4,,10
	.p2align 3
.L1759:
	movl	%eax, %r15d
	addq	$1, %rsi
	andl	$3, %r15d
	cmpq	%rsi, %rbx
	je	.L1566
	jmp	.L1555
	.p2align 4,,10
	.p2align 3
.L1649:
	movl	$2, %ebp
.L1560:
	addq	$1, %rsi
	movl	$32, %ecx
	cmpq	%rsi, %rbx
	jne	.L1561
.L1562:
	movq	%rbp, %rdi
	andl	$15, %r11d
	andl	$3, %edi
	salq	$11, %r11
	orq	%r11, %rdi
	jmp	.L1563
	.p2align 4,,10
	.p2align 3
.L1565:
	xorl	%r14d, %r14d
.L1625:
	cmpb	$48, %dl
	je	.L1569
	movb	$0, 8(%rsp)
.L1570:
	movzbl	%dl, %eax
	leaq	_ZNSt8__detail31__from_chars_alnum_to_val_tableILb0EE5valueE(%rip), %r12
	cmpb	$9, (%r12,%rax)
	ja	.L1573
	cmpq	%rsi, %rbx
	je	.L1574
	movq	%rbx, %r13
	movq	%rsi, %r12
	xorl	%eax, %eax
	movl	$16, %r8d
	subq	%rsi, %r13
	andl	$3, %r13d
	je	.L1752
	cmpq	$1, %r13
	je	.L1705
	cmpq	$2, %r13
	je	.L1706
	movzbl	(%rsi), %edx
	subl	$48, %edx
	cmpb	$9, %dl
	ja	.L1575
	movl	$12, %r8d
	movzbl	%dl, %eax
	leaq	1(%rsi), %r12
.L1706:
	movzbl	(%r12), %r13d
	leal	-48(%r13), %r13d
	cmpb	$9, %r13b
	ja	.L1575
	subl	$4, %r8d
	js	.L1760
	leal	(%rax,%rax,4), %eax
	movzbl	%r13b, %edx
	leal	(%rdx,%rax,2), %eax
.L1728:
	addq	$1, %r12
.L1705:
	movzbl	(%r12), %r13d
	leal	-48(%r13), %r13d
	cmpb	$9, %r13b
	ja	.L1575
	subl	$4, %r8d
	js	.L1761
	leal	(%rax,%rax,4), %eax
	movzbl	%r13b, %edx
	leal	(%rdx,%rax,2), %eax
.L1730:
	addq	$1, %r12
	cmpq	%r12, %rbx
	je	.L1731
.L1752:
	movq	%rdi, 16(%rsp)
.L1582:
	movzbl	(%r12), %edi
	leal	-48(%rdi), %edi
	cmpb	$9, %dil
	ja	.L1754
	subl	$4, %r8d
	js	.L1576
	leal	(%rax,%rax,4), %eax
	movzbl	%dil, %edi
	leal	(%rdi,%rax,2), %eax
.L1577:
	movzbl	1(%r12), %r13d
	leaq	1(%r12), %rdi
	movq	%rdi, %r12
	leal	-48(%r13), %r13d
	cmpb	$9, %r13b
	ja	.L1754
	movl	%r8d, %r12d
	subl	$4, %r12d
	js	.L1762
	leal	(%rax,%rax,4), %eax
	movzbl	%r13b, %r12d
	leal	(%r12,%rax,2), %eax
.L1733:
	movzbl	1(%rdi), %edx
	leaq	1(%rdi), %r12
	leal	-48(%rdx), %r13d
	cmpb	$9, %r13b
	ja	.L1754
	movl	%r8d, %r12d
	subl	$8, %r12d
	js	.L1763
	leal	(%rax,%rax,4), %eax
	movzbl	%r13b, %r12d
	leal	(%r12,%rax,2), %eax
.L1735:
	movzbl	2(%rdi), %edx
	leaq	2(%rdi), %r12
	leal	-48(%rdx), %r13d
	cmpb	$9, %r13b
	ja	.L1754
	subl	$12, %r8d
	js	.L1764
	leal	(%rax,%rax,4), %eax
	movzbl	%r13b, %r13d
	leal	0(%r13,%rax,2), %eax
.L1737:
	leaq	3(%rdi), %r12
	cmpq	%r12, %rbx
	jne	.L1582
.L1731:
	movq	%rbx, %rsi
	movl	$1, %r8d
.L1583:
	movq	8(%rsp), %rdx
	movq	%rbp, %rdi
	andl	$3, %r15d
	andl	$1, %r14d
	andl	$3, %edi
	salq	$2, %r15
	andl	$3, %r8d
	andl	$15, %r11d
	salq	$4, %r14
	orq	%r15, %rdi
	andl	$1, %edx
	salq	$7, %r8
	salq	$6, %rdx
	orq	%r14, %rdi
	salq	$11, %r11
	movzwl	%ax, %ebx
	orq	%rdx, %rdi
	salq	$16, %rbx
	orq	%r8, %rdi
	orq	%r11, %rdi
	orq	%rbx, %rdi
	jmp	.L1563
	.p2align 4,,10
	.p2align 3
.L1556:
	cmpb	$62, %cl
	je	.L1649
	cmpb	$94, %cl
	je	.L1650
	cmpb	$60, %cl
	je	.L1651
	movl	%ecx, %edx
	xorl	%ebp, %ebp
	movl	$32, %ecx
	jmp	.L1628
	.p2align 4,,10
	.p2align 3
.L1651:
	movl	$1, %ebp
	jmp	.L1560
	.p2align 4,,10
	.p2align 3
.L1633:
	movl	$3, %ebp
	jmp	.L1557
	.p2align 4,,10
	.p2align 3
.L1569:
	leaq	1(%rsi), %r13
	cmpq	%r13, %rbx
	je	.L1571
	movzbl	1(%rsi), %edx
	cmpb	$125, %dl
	jne	.L1572
.L1571:
	movq	%rbp, %rdi
	andl	$3, %r15d
	andl	$1, %r14d
	andl	$15, %r11d
	salq	$2, %r15
	andl	$3, %edi
	salq	$4, %r14
	movq	%r13, %rsi
	orq	%r15, %rdi
	salq	$11, %r11
	orq	%r14, %rdi
	orq	$64, %rdi
	orq	%r11, %rdi
	jmp	.L1563
	.p2align 4,,10
	.p2align 3
.L1650:
	movl	$3, %ebp
	jmp	.L1560
	.p2align 4,,10
	.p2align 3
.L1573:
	cmpb	$123, %dl
	je	.L1765
	cmpq	%rsi, %rbx
	je	.L1648
	xorl	%r8d, %r8d
	xorl	%eax, %eax
.L1624:
	cmpb	$76, %dl
	je	.L1766
	subl	$66, %edx
	cmpb	$54, %dl
	ja	.L1639
	leaq	.L1612(%rip), %r13
	movzbl	%dl, %edx
	movslq	0(%r13,%rdx,4), %r12
	addq	%r13, %r12
	notrack jmp	*%r12
	.section	.rodata._ZNSt8__format15__formatter_intIcE11_M_do_parseERSt26basic_format_parse_contextIcENS_10_Pres_typeE,"aG",@progbits,_ZNSt8__format15__formatter_intIcE11_M_do_parseERSt26basic_format_parse_contextIcENS_10_Pres_typeE,comdat
	.align 4
	.align 4
.L1612:
	.long	.L1640-.L1612
	.long	.L1639-.L1612
	.long	.L1639-.L1612
	.long	.L1639-.L1612
	.long	.L1639-.L1612
	.long	.L1639-.L1612
	.long	.L1639-.L1612
	.long	.L1639-.L1612
	.long	.L1639-.L1612
	.long	.L1639-.L1612
	.long	.L1639-.L1612
	.long	.L1639-.L1612
	.long	.L1639-.L1612
	.long	.L1639-.L1612
	.long	.L1639-.L1612
	.long	.L1639-.L1612
	.long	.L1639-.L1612
	.long	.L1639-.L1612
	.long	.L1639-.L1612
	.long	.L1639-.L1612
	.long	.L1639-.L1612
	.long	.L1639-.L1612
	.long	.L1641-.L1612
	.long	.L1639-.L1612
	.long	.L1639-.L1612
	.long	.L1639-.L1612
	.long	.L1639-.L1612
	.long	.L1639-.L1612
	.long	.L1639-.L1612
	.long	.L1639-.L1612
	.long	.L1639-.L1612
	.long	.L1639-.L1612
	.long	.L1642-.L1612
	.long	.L1643-.L1612
	.long	.L1644-.L1612
	.long	.L1639-.L1612
	.long	.L1639-.L1612
	.long	.L1639-.L1612
	.long	.L1639-.L1612
	.long	.L1639-.L1612
	.long	.L1639-.L1612
	.long	.L1639-.L1612
	.long	.L1639-.L1612
	.long	.L1639-.L1612
	.long	.L1639-.L1612
	.long	.L1645-.L1612
	.long	.L1639-.L1612
	.long	.L1639-.L1612
	.long	.L1639-.L1612
	.long	.L1646-.L1612
	.long	.L1639-.L1612
	.long	.L1639-.L1612
	.long	.L1639-.L1612
	.long	.L1639-.L1612
	.long	.L1647-.L1612
	.section	.text._ZNSt8__format15__formatter_intIcE11_M_do_parseERSt26basic_format_parse_contextIcENS_10_Pres_typeE,"axG",@progbits,_ZNSt8__format15__formatter_intIcE11_M_do_parseERSt26basic_format_parse_contextIcENS_10_Pres_typeE,comdat
	.p2align 4,,10
	.p2align 3
.L1639:
	xorl	%r13d, %r13d
.L1610:
	cmpq	%rsi, %rbx
	je	.L1621
.L1622:
	cmpb	$125, (%rsi)
	jne	.L1623
.L1621:
	sall	$5, %r13d
	movzbl	%r15b, %r15d
	movzbl	%r14b, %r14d
	sall	$7, %r8d
	sall	$2, %r15d
	sall	$4, %r14d
	orl	%ebp, %r15d
	movzbl	8(%rsp), %ebp
	sall	$11, %r11d
	orl	%r14d, %r15d
	orl	%r13d, %r15d
	sall	$6, %ebp
	orl	%ebp, %r15d
	orl	%r8d, %r15d
	movabsq	$-4294901761, %r8
	movw	%r15w, %di
	orw	%r11w, %di
	movzwl	%ax, %r11d
	andq	%rdi, %r8
	salq	$16, %r11
	orq	%r11, %r8
	movq	%r8, %rdi
	jmp	.L1563
	.p2align 4,,10
	.p2align 3
.L1765:
	leaq	1(%rsi), %r13
	cmpq	%r13, %rbx
	je	.L1767
	movsbw	1(%rsi), %ax
	cmpb	$125, %al
	je	.L1768
	cmpb	$48, %al
	je	.L1769
	leal	-49(%rax), %edx
	cmpb	$8, %dl
	jbe	.L1770
.L1592:
	call	_ZNSt8__format33__invalid_arg_id_in_format_stringEv
	.p2align 4,,10
	.p2align 3
.L1647:
	xorl	%r13d, %r13d
.L1611:
	addq	$1, %rsi
	movl	$5, %r11d
	jmp	.L1610
.L1646:
	xorl	%r13d, %r13d
.L1613:
	testl	%r10d, %r10d
	jne	.L1620
	addq	$1, %rsi
	xorl	%r11d, %r11d
	jmp	.L1610
.L1645:
	xorl	%r13d, %r13d
.L1614:
	addq	$1, %rsi
	movl	$4, %r11d
	jmp	.L1610
.L1644:
	xorl	%r13d, %r13d
.L1615:
	addq	$1, %rsi
	movl	$1, %r11d
	jmp	.L1610
.L1643:
	xorl	%r13d, %r13d
.L1616:
	testl	%r10d, %r10d
	je	.L1620
	addq	$1, %rsi
	movl	$7, %r11d
	jmp	.L1610
.L1642:
	xorl	%r13d, %r13d
.L1617:
	addq	$1, %rsi
	movl	$2, %r11d
	jmp	.L1610
.L1641:
	xorl	%r13d, %r13d
.L1618:
	addq	$1, %rsi
	movl	$6, %r11d
	jmp	.L1610
.L1640:
	xorl	%r13d, %r13d
.L1619:
	addq	$1, %rsi
	movl	$3, %r11d
	jmp	.L1610
	.p2align 4,,10
	.p2align 3
.L1766:
	leaq	1(%rsi), %rdx
	cmpq	%rdx, %rbx
	je	.L1608
	movzbl	1(%rsi), %esi
	cmpb	$125, %sil
	jne	.L1609
.L1608:
	movq	%rbp, %rdi
	andl	$3, %r15d
	movq	8(%rsp), %r12
	andl	$1, %r14d
	andl	$3, %edi
	salq	$2, %r15
	andl	$3, %r8d
	andl	$15, %r11d
	salq	$4, %r14
	orq	%r15, %rdi
	andl	$1, %r12d
	salq	$7, %r8
	orq	%r14, %rdi
	salq	$6, %r12
	movzwl	%ax, %eax
	movq	%rdx, %rsi
	salq	$11, %r11
	orq	$32, %rdi
	salq	$16, %rax
	orq	%r12, %rdi
	orq	%r8, %rdi
	orq	%r11, %rdi
	orq	%rax, %rdi
	jmp	.L1563
	.p2align 4,,10
	.p2align 3
.L1754:
	movq	16(%rsp), %rdi
.L1575:
	cmpq	%rsi, %r12
	je	.L1574
	movq	%r12, %rsi
	movl	$1, %r8d
.L1605:
	cmpq	%rsi, %rbx
	je	.L1583
	movzbl	(%rsi), %edx
	cmpb	$125, %dl
	jne	.L1624
	jmp	.L1583
	.p2align 4,,10
	.p2align 3
.L1576:
	movl	$10, %r13d
	mulw	%r13w
	jo	.L1574
	movzbl	%dil, %edx
	addw	%ax, %dx
	jc	.L1574
	movl	%edx, %eax
	jmp	.L1577
.L1762:
	movl	$10, %edx
	mulw	%dx
	jo	.L1574
	movzbl	%r13b, %r13d
	addw	%ax, %r13w
	jc	.L1574
	movl	%r13d, %eax
	jmp	.L1733
.L1763:
	movl	$10, %edx
	mulw	%dx
	jo	.L1574
	movzbl	%r13b, %r13d
	addw	%ax, %r13w
	jc	.L1574
	movl	%r13d, %eax
	jmp	.L1735
.L1764:
	movl	$10, %r12d
	mulw	%r12w
	jo	.L1574
	movzbl	%r13b, %edx
	addw	%ax, %dx
	jc	.L1574
	movl	%edx, %eax
	jmp	.L1737
.L1648:
	xorl	%r8d, %r8d
	xorl	%eax, %eax
	jmp	.L1583
.L1768:
	cmpl	$1, 16(%r8)
	je	.L1604
	movq	24(%r8), %rax
	movl	$2, 16(%r8)
	leaq	1(%rax), %r12
	movq	%r12, 24(%r8)
.L1589:
	leaq	1(%r13), %rdx
	xorl	%r8d, %r8d
	cmpq	%rsi, %rdx
	je	.L1605
	movq	%rdx, %rsi
	movl	$2, %r8d
	jmp	.L1605
.L1620:
	cmpq	%rsi, %rbx
	je	.L1621
.L1623:
	call	_ZNSt8__format29__failed_to_parse_format_specEv
	.p2align 4,,10
	.p2align 3
.L1769:
	leaq	2(%rsi), %r13
	xorl	%eax, %eax
.L1591:
	cmpq	%r13, %rbx
	je	.L1592
.L1630:
	cmpb	$125, 0(%r13)
	jne	.L1592
	cmpl	$2, 16(%r8)
	je	.L1604
	movl	$1, 16(%r8)
	jmp	.L1589
.L1770:
	leaq	2(%rsi), %rdx
	cmpq	%rdx, %rbx
	je	.L1592
	movzbl	2(%rsi), %r12d
	subl	$48, %r12d
	cmpb	$9, %r12b
	ja	.L1593
	movq	%rbx, %rdx
	movq	%r13, 16(%rsp)
	xorl	%eax, %eax
	subq	%r13, %rdx
	movl	$16, 36(%rsp)
	andl	$3, %edx
	je	.L1750
	cmpq	$1, %rdx
	je	.L1707
	cmpq	$2, %rdx
	je	.L1708
	movzbl	0(%r13), %r12d
	subl	$48, %r12d
	cmpb	$9, %r12b
	ja	.L1594
	leaq	1(%r13), %rdx
	movl	$12, 36(%rsp)
	movzbl	%r12b, %eax
	movq	%rdx, 16(%rsp)
.L1708:
	movq	16(%rsp), %r12
	movzbl	(%r12), %edx
	leal	-48(%rdx), %r12d
	movb	%dl, 34(%rsp)
	cmpb	$9, %r12b
	ja	.L1594
	subl	$4, 36(%rsp)
	js	.L1771
	leal	(%rax,%rax,4), %eax
	movzbl	%r12b, %edx
	leal	(%rdx,%rax,2), %eax
.L1739:
	addq	$1, 16(%rsp)
.L1707:
	movq	16(%rsp), %r12
	movzbl	(%r12), %edx
	leal	-48(%rdx), %r12d
	movb	%dl, 34(%rsp)
	cmpb	$9, %r12b
	ja	.L1594
	subl	$4, 36(%rsp)
	js	.L1772
	leal	(%rax,%rax,4), %eax
	movzbl	%r12b, %edx
	leal	(%rdx,%rax,2), %eax
.L1741:
	addq	$1, 16(%rsp)
	movq	16(%rsp), %r12
	cmpq	%r12, %rbx
	je	.L1602
	movb	%r11b, 34(%rsp)
	movq	16(%rsp), %r12
	movb	%bpl, 35(%rsp)
	movq	%r13, 24(%rsp)
	movl	36(%rsp), %r13d
.L1601:
	movzbl	(%r12), %ebp
	leal	-48(%rbp), %r11d
	cmpb	$9, %r11b
	ja	.L1757
	subl	$4, %r13d
	js	.L1595
	leal	(%rax,%rax,4), %eax
	movzbl	%r11b, %r11d
	leal	(%r11,%rax,2), %eax
.L1596:
	movzbl	1(%r12), %edx
	leaq	1(%r12), %r11
	movq	%r11, %r12
	leal	-48(%rdx), %ebp
	cmpb	$9, %bpl
	ja	.L1757
	movl	%r13d, %r12d
	subl	$4, %r12d
	js	.L1773
	leal	(%rax,%rax,4), %eax
	movzbl	%bpl, %r12d
	leal	(%r12,%rax,2), %eax
.L1743:
	movzbl	1(%r11), %edx
	leaq	1(%r11), %r12
	leal	-48(%rdx), %ebp
	cmpb	$9, %bpl
	ja	.L1757
	movl	%r13d, %r12d
	subl	$8, %r12d
	js	.L1774
	leal	(%rax,%rax,4), %eax
	movzbl	%bpl, %r12d
	leal	(%r12,%rax,2), %eax
.L1745:
	movzbl	2(%r11), %edx
	leaq	2(%r11), %r12
	leal	-48(%rdx), %ebp
	cmpb	$9, %bpl
	ja	.L1757
	subl	$12, %r13d
	js	.L1775
	leal	(%rax,%rax,4), %eax
	movzbl	%bpl, %ebp
	leal	0(%rbp,%rax,2), %eax
.L1747:
	leaq	3(%r11), %r12
	cmpq	%r12, %rbx
	jne	.L1601
	movzbl	34(%rsp), %r11d
	movzbl	35(%rsp), %ebp
	movq	%r12, 16(%rsp)
.L1602:
	movq	16(%rsp), %r13
	jmp	.L1591
.L1761:
	movl	$10, %edx
	mulw	%dx
	jo	.L1574
	movzbl	%r13b, %r13d
	addw	%ax, %r13w
	jc	.L1574
	movl	%r13d, %eax
	jmp	.L1730
.L1760:
	movl	$10, %edx
	mulw	%dx
	jo	.L1574
	movzbl	%r13b, %r13d
	addw	%ax, %r13w
	jc	.L1574
	movl	%r13d, %eax
	jmp	.L1728
.L1593:
	subl	$48, %eax
	movq	%rdx, %r13
	jmp	.L1630
.L1757:
	movzbl	34(%rsp), %r11d
	movq	24(%rsp), %r13
	movq	%r12, 16(%rsp)
	movzbl	35(%rsp), %ebp
.L1594:
	movq	16(%rsp), %rdx
	cmpq	%rdx, %r13
	jne	.L1602
	jmp	.L1592
.L1750:
	movq	%r13, 24(%rsp)
	movq	16(%rsp), %r12
	movl	$16, %r13d
	movb	%r11b, 34(%rsp)
	movb	%bpl, 35(%rsp)
	jmp	.L1601
.L1595:
	movl	$10, %edx
	mulw	%dx
	jo	.L1592
	movzbl	%r11b, %ebp
	addw	%ax, %bp
	jc	.L1592
	movl	%ebp, %eax
	jmp	.L1596
.L1773:
	movl	$10, %edx
	mulw	%dx
	jo	.L1592
	movzbl	%bpl, %ebp
	addw	%bp, %ax
	jnc	.L1743
	jmp	.L1592
.L1775:
	movl	$10, %r12d
	mulw	%r12w
	jo	.L1592
	movzbl	%bpl, %edx
	addw	%dx, %ax
	jnc	.L1747
	jmp	.L1592
.L1774:
	movl	$10, %edx
	mulw	%dx
	jo	.L1592
	movzbl	%bpl, %ebp
	addw	%bp, %ax
	jnc	.L1745
	jmp	.L1592
.L1772:
	movl	$10, %edx
	mulw	%dx
	jo	.L1592
	movzbl	%r12b, %r12d
	addw	%r12w, %ax
	jnc	.L1741
	jmp	.L1592
.L1771:
	movl	$10, %edx
	mulw	%dx
	jo	.L1592
	movzbl	%r12b, %r12d
	addw	%r12w, %ax
	jnc	.L1739
	jmp	.L1592
.L1609:
	subl	$66, %esi
	cmpb	$54, %sil
	ja	.L1652
	leaq	.L1629(%rip), %r12
	movzbl	%sil, %r13d
	movslq	(%r12,%r13,4), %rsi
	addq	%r12, %rsi
	notrack jmp	*%rsi
	.section	.rodata._ZNSt8__format15__formatter_intIcE11_M_do_parseERSt26basic_format_parse_contextIcENS_10_Pres_typeE,"aG",@progbits,_ZNSt8__format15__formatter_intIcE11_M_do_parseERSt26basic_format_parse_contextIcENS_10_Pres_typeE,comdat
	.align 4
	.align 4
.L1629:
	.long	.L1653-.L1629
	.long	.L1652-.L1629
	.long	.L1652-.L1629
	.long	.L1652-.L1629
	.long	.L1652-.L1629
	.long	.L1652-.L1629
	.long	.L1652-.L1629
	.long	.L1652-.L1629
	.long	.L1652-.L1629
	.long	.L1652-.L1629
	.long	.L1652-.L1629
	.long	.L1652-.L1629
	.long	.L1652-.L1629
	.long	.L1652-.L1629
	.long	.L1652-.L1629
	.long	.L1652-.L1629
	.long	.L1652-.L1629
	.long	.L1652-.L1629
	.long	.L1652-.L1629
	.long	.L1652-.L1629
	.long	.L1652-.L1629
	.long	.L1652-.L1629
	.long	.L1654-.L1629
	.long	.L1652-.L1629
	.long	.L1652-.L1629
	.long	.L1652-.L1629
	.long	.L1652-.L1629
	.long	.L1652-.L1629
	.long	.L1652-.L1629
	.long	.L1652-.L1629
	.long	.L1652-.L1629
	.long	.L1652-.L1629
	.long	.L1655-.L1629
	.long	.L1656-.L1629
	.long	.L1657-.L1629
	.long	.L1652-.L1629
	.long	.L1652-.L1629
	.long	.L1652-.L1629
	.long	.L1652-.L1629
	.long	.L1652-.L1629
	.long	.L1652-.L1629
	.long	.L1652-.L1629
	.long	.L1652-.L1629
	.long	.L1652-.L1629
	.long	.L1652-.L1629
	.long	.L1658-.L1629
	.long	.L1652-.L1629
	.long	.L1652-.L1629
	.long	.L1652-.L1629
	.long	.L1659-.L1629
	.long	.L1652-.L1629
	.long	.L1652-.L1629
	.long	.L1652-.L1629
	.long	.L1652-.L1629
	.long	.L1660-.L1629
	.section	.text._ZNSt8__format15__formatter_intIcE11_M_do_parseERSt26basic_format_parse_contextIcENS_10_Pres_typeE,"axG",@progbits,_ZNSt8__format15__formatter_intIcE11_M_do_parseERSt26basic_format_parse_contextIcENS_10_Pres_typeE,comdat
.L1572:
	movb	$1, 8(%rsp)
	movq	%r13, %rsi
	cmpb	$48, %dl
	jne	.L1570
	leaq	.LC22(%rip), %rdi
	call	_ZSt20__throw_format_errorPKc
.L1660:
	movq	%rdx, %rsi
	movl	$1, %r13d
	jmp	.L1611
.L1659:
	movq	%rdx, %rsi
	movl	$1, %r13d
	jmp	.L1613
.L1658:
	movq	%rdx, %rsi
	movl	$1, %r13d
	jmp	.L1614
.L1657:
	movq	%rdx, %rsi
	movl	$1, %r13d
	jmp	.L1615
.L1656:
	movq	%rdx, %rsi
	movl	$1, %r13d
	jmp	.L1616
.L1655:
	movq	%rdx, %rsi
	movl	$1, %r13d
	jmp	.L1617
.L1654:
	movq	%rdx, %rsi
	movl	$1, %r13d
	jmp	.L1618
.L1653:
	movq	%rdx, %rsi
	movl	$1, %r13d
	jmp	.L1619
.L1652:
	movq	%rdx, %rsi
	movl	$1, %r13d
	jmp	.L1622
.L1767:
	call	_ZNSt8__format39__unmatched_left_brace_in_format_stringEv
.L1574:
	leaq	.LC23(%rip), %rdi
	call	_ZSt20__throw_format_errorPKc
.L1604:
	call	_ZNSt8__format39__conflicting_indexing_in_format_stringEv
	.cfi_endproc
.LFE12357:
	.size	_ZNSt8__format15__formatter_intIcE11_M_do_parseERSt26basic_format_parse_contextIcENS_10_Pres_typeE, .-_ZNSt8__format15__formatter_intIcE11_M_do_parseERSt26basic_format_parse_contextIcENS_10_Pres_typeE
	.section	.text._ZNSt8__format14__formatter_fpIcE5parseERSt26basic_format_parse_contextIcE,"axG",@progbits,_ZNSt8__format14__formatter_fpIcE5parseERSt26basic_format_parse_contextIcE,comdat
	.align 2
	.p2align 4
	.weak	_ZNSt8__format14__formatter_fpIcE5parseERSt26basic_format_parse_contextIcE
	.type	_ZNSt8__format14__formatter_fpIcE5parseERSt26basic_format_parse_contextIcE, @function
_ZNSt8__format14__formatter_fpIcE5parseERSt26basic_format_parse_contextIcE:
.LFB12380:
	.cfi_startproc
	endbr64
	pushq	%r13
	.cfi_def_cfa_offset 16
	.cfi_offset 13, -16
	pushq	%r12
	.cfi_def_cfa_offset 24
	.cfi_offset 12, -24
	movq	%rdi, %r12
	pushq	%rbp
	.cfi_def_cfa_offset 32
	.cfi_offset 6, -32
	pushq	%rbx
	.cfi_def_cfa_offset 40
	.cfi_offset 3, -40
	subq	$24, %rsp
	.cfi_def_cfa_offset 64
	movq	8(%rsi), %rbp
	movq	%fs:40, %rax
	movq	%rax, 8(%rsp)
	movabsq	$9007199254740992, %rax
	movq	%rax, (%rsp)
	movq	(%rsi), %rax
	cmpq	%rbp, %rax
	je	.L1777
	movzbl	(%rax), %edx
	cmpb	$125, %dl
	je	.L1777
	movq	%rsi, %rbx
	cmpb	$123, %dl
	je	.L1778
	movq	%rbp, %rcx
	subq	%rax, %rcx
	cmpq	$1, %rcx
	jle	.L1779
	movzbl	1(%rax), %esi
	cmpb	$62, %sil
	je	.L1841
	cmpb	$94, %sil
	je	.L1842
	cmpb	$60, %sil
	jne	.L1781
	movl	$1, %edi
.L1780:
	movb	%dl, 6(%rsp)
	addq	$2, %rax
.L1782:
	movzbl	(%rsp), %r8d
	andl	$-4, %r8d
	orl	%edi, %r8d
	movb	%r8b, (%rsp)
	cmpq	%rax, %rbp
	je	.L1777
.L1784:
	movzbl	(%rax), %edx
	cmpb	$125, %dl
	je	.L1777
.L1838:
	leal	-32(%rdx), %r9d
	cmpb	$13, %r9b
	ja	.L1836
	movzbl	%r9b, %r10d
	leaq	CSWTCH.915(%rip), %r11
	movl	(%r11,%r10,4), %r13d
	testl	%r13d, %r13d
	jne	.L1837
	movq	%rax, %rcx
	cmpb	$35, %dl
	je	.L1789
.L1790:
	cmpb	$46, %dl
	jne	.L1929
.L1791:
	leaq	1(%rax), %r13
	cmpq	%r13, %rbp
	je	.L1808
	movzbl	1(%rax), %edi
	leaq	_ZNSt8__detail31__from_chars_alnum_to_val_tableILb0EE5valueE(%rip), %r9
	cmpb	$9, (%r9,%rdi)
	ja	.L1795
	movq	%rbp, %rdx
	movq	%r13, %rcx
	xorl	%eax, %eax
	movl	$16, %r9d
	subq	%r13, %rdx
	andl	$3, %edx
	je	.L1804
	cmpq	$1, %rdx
	je	.L1895
	cmpq	$2, %rdx
	je	.L1896
	movzbl	0(%r13), %esi
	leal	-48(%rsi), %edi
	cmpb	$9, %dil
	ja	.L1796
	movl	$12, %r9d
	movzbl	%dil, %eax
	leaq	1(%r13), %rcx
.L1896:
	movzbl	(%rcx), %r8d
	leal	-48(%r8), %r10d
	cmpb	$9, %r10b
	ja	.L1796
	subl	$4, %r9d
	js	.L1930
	leal	(%rax,%rax,4), %eax
	movzbl	%r10b, %edx
	leal	(%rdx,%rax,2), %eax
.L1917:
	addq	$1, %rcx
.L1895:
	movzbl	(%rcx), %esi
	leal	-48(%rsi), %edi
	cmpb	$9, %dil
	ja	.L1796
	subl	$4, %r9d
	js	.L1931
	leal	(%rax,%rax,4), %r11d
	movzbl	%dil, %ebx
	leal	(%rbx,%r11,2), %eax
.L1919:
	addq	$1, %rcx
	cmpq	%rcx, %rbp
	je	.L1920
.L1804:
	movzbl	(%rcx), %edx
	leal	-48(%rdx), %esi
	cmpb	$9, %sil
	ja	.L1796
	subl	$4, %r9d
	js	.L1797
	leal	(%rax,%rax,4), %eax
	movzbl	%sil, %r10d
	leal	(%r10,%rax,2), %eax
.L1798:
	movzbl	1(%rcx), %ebx
	leaq	1(%rcx), %r11
	movq	%r11, %rcx
	leal	-48(%rbx), %esi
	cmpb	$9, %sil
	ja	.L1796
	movl	%r9d, %ecx
	subl	$4, %ecx
	js	.L1932
	leal	(%rax,%rax,4), %eax
	movzbl	%sil, %r8d
	leal	(%r8,%rax,2), %eax
.L1922:
	movzbl	1(%r11), %r10d
	leaq	1(%r11), %rcx
	leal	-48(%r10), %esi
	cmpb	$9, %sil
	ja	.L1796
	movl	%r9d, %ebx
	subl	$8, %ebx
	js	.L1933
	leal	(%rax,%rax,4), %edi
	movzbl	%sil, %eax
	leal	(%rax,%rdi,2), %eax
.L1924:
	movzbl	2(%r11), %r8d
	leaq	2(%r11), %rcx
	leal	-48(%r8), %r10d
	cmpb	$9, %r10b
	ja	.L1796
	subl	$12, %r9d
	js	.L1934
	leal	(%rax,%rax,4), %ecx
	movzbl	%r10b, %edx
	leal	(%rdx,%rcx,2), %eax
.L1926:
	leaq	3(%r11), %rcx
	cmpq	%rcx, %rbp
	jne	.L1804
.L1920:
	movzbl	1(%rsp), %ebp
	movw	%ax, 4(%rsp)
	andl	$-7, %ebp
	orl	$2, %ebp
	movb	%bpl, 1(%rsp)
	jmp	.L1849
	.p2align 4,,10
	.p2align 3
.L1837:
	movzbl	(%rsp), %edx
	andl	$3, %r13d
	addq	$1, %rax
	sall	$2, %r13d
	andl	$-13, %edx
	orl	%r13d, %edx
	movb	%dl, (%rsp)
	cmpq	%rax, %rbp
	jne	.L1778
	.p2align 4,,10
	.p2align 3
.L1777:
	movl	(%rsp), %ecx
	movl	3(%rsp), %esi
	movl	%ecx, (%r12)
	movl	%esi, 3(%r12)
	movq	8(%rsp), %rdx
	subq	%fs:40, %rdx
	jne	.L1915
	addq	$24, %rsp
	.cfi_remember_state
	.cfi_def_cfa_offset 40
	popq	%rbx
	.cfi_def_cfa_offset 32
	popq	%rbp
	.cfi_def_cfa_offset 24
	popq	%r12
	.cfi_def_cfa_offset 16
	popq	%r13
	.cfi_def_cfa_offset 8
	ret
	.p2align 4,,10
	.p2align 3
.L1778:
	.cfi_restore_state
	movzbl	(%rax), %edx
	cmpb	$125, %dl
	je	.L1777
	movq	%rax, %rcx
	cmpb	$35, %dl
	jne	.L1836
.L1789:
	addq	$1, %rax
	orb	$16, (%rsp)
	cmpq	%rax, %rbp
	je	.L1777
	movzbl	1(%rcx), %edx
	cmpb	$125, %dl
	je	.L1777
	.p2align 4,,10
	.p2align 3
.L1836:
	cmpb	$48, %dl
	jne	.L1790
	leaq	1(%rax), %rsi
	orb	$64, (%rsp)
	cmpq	%rsi, %rbp
	je	.L1848
	movzbl	1(%rax), %edx
	movq	%rsi, %rax
	cmpb	$125, %dl
	je	.L1777
	jmp	.L1790
	.p2align 4,,10
	.p2align 3
.L1841:
	movl	$2, %edi
	jmp	.L1780
	.p2align 4,,10
	.p2align 3
.L1779:
	cmpb	$62, %dl
	je	.L1851
	cmpb	$94, %dl
	je	.L1852
	cmpb	$60, %dl
	jne	.L1838
.L1853:
	movl	$1, %edi
.L1783:
	addq	$1, %rax
	jmp	.L1782
	.p2align 4,,10
	.p2align 3
.L1781:
	cmpb	$62, %dl
	je	.L1851
	cmpb	$94, %dl
	je	.L1852
	cmpb	$60, %dl
	jne	.L1784
	jmp	.L1853
	.p2align 4,,10
	.p2align 3
.L1851:
	movl	$2, %edi
	jmp	.L1783
	.p2align 4,,10
	.p2align 3
.L1842:
	movl	$3, %edi
	jmp	.L1780
	.p2align 4,,10
	.p2align 3
.L1852:
	movl	$3, %edi
	jmp	.L1783
	.p2align 4,,10
	.p2align 3
.L1929:
	movq	%rbx, %rcx
	movq	%rsp, %rdi
	movq	%rbp, %rdx
	movq	%rax, %rsi
	call	_ZNSt8__format5_SpecIcE14_M_parse_widthEPKcS3_RSt26basic_format_parse_contextIcE
	movq	%rax, %rcx
	cmpq	%rbp, %rax
	je	.L1848
	movzbl	(%rax), %eax
	cmpb	$125, %al
	je	.L1849
	cmpb	$46, %al
	je	.L1935
.L1835:
	cmpb	$76, %al
	je	.L1936
	subl	$65, %eax
	cmpb	$38, %al
	ja	.L1822
	leaq	.L1824(%rip), %r11
	movzbl	%al, %r9d
	movslq	(%r11,%r9,4), %rdi
	addq	%r11, %rdi
	notrack jmp	*%rdi
	.section	.rodata._ZNSt8__format14__formatter_fpIcE5parseERSt26basic_format_parse_contextIcE,"aG",@progbits,_ZNSt8__format14__formatter_fpIcE5parseERSt26basic_format_parse_contextIcE,comdat
	.align 4
	.align 4
.L1824:
	.long	.L1831-.L1824
	.long	.L1822-.L1824
	.long	.L1822-.L1824
	.long	.L1822-.L1824
	.long	.L1830-.L1824
	.long	.L1829-.L1824
	.long	.L1828-.L1824
	.long	.L1822-.L1824
	.long	.L1822-.L1824
	.long	.L1822-.L1824
	.long	.L1822-.L1824
	.long	.L1822-.L1824
	.long	.L1822-.L1824
	.long	.L1822-.L1824
	.long	.L1822-.L1824
	.long	.L1822-.L1824
	.long	.L1822-.L1824
	.long	.L1822-.L1824
	.long	.L1822-.L1824
	.long	.L1822-.L1824
	.long	.L1822-.L1824
	.long	.L1822-.L1824
	.long	.L1822-.L1824
	.long	.L1822-.L1824
	.long	.L1822-.L1824
	.long	.L1822-.L1824
	.long	.L1822-.L1824
	.long	.L1822-.L1824
	.long	.L1822-.L1824
	.long	.L1822-.L1824
	.long	.L1822-.L1824
	.long	.L1822-.L1824
	.long	.L1827-.L1824
	.long	.L1822-.L1824
	.long	.L1822-.L1824
	.long	.L1822-.L1824
	.long	.L1826-.L1824
	.long	.L1825-.L1824
	.long	.L1823-.L1824
	.section	.text._ZNSt8__format14__formatter_fpIcE5parseERSt26basic_format_parse_contextIcE,"axG",@progbits,_ZNSt8__format14__formatter_fpIcE5parseERSt26basic_format_parse_contextIcE,comdat
	.p2align 4,,10
	.p2align 3
.L1848:
	movq	%rbp, %rax
	jmp	.L1777
.L1859:
	movq	%rax, %rcx
.L1827:
	movzbl	1(%rsp), %r9d
	addq	$1, %rcx
	andl	$-121, %r9d
	orl	$8, %r9d
	movb	%r9b, 1(%rsp)
	.p2align 4,,10
	.p2align 3
.L1822:
	cmpq	%rcx, %rbp
	je	.L1849
.L1832:
	cmpb	$125, (%rcx)
	jne	.L1937
.L1849:
	movq	%rcx, %rax
	jmp	.L1777
.L1862:
	movq	%rax, %rcx
.L1823:
	movzbl	1(%rsp), %edx
	addq	$1, %rcx
	andl	$-121, %edx
	orl	$56, %edx
	movb	%dl, 1(%rsp)
	jmp	.L1822
.L1861:
	movq	%rax, %rcx
.L1825:
	movzbl	1(%rsp), %eax
	addq	$1, %rcx
	andl	$-121, %eax
	orl	$40, %eax
	movb	%al, 1(%rsp)
	jmp	.L1822
.L1860:
	movq	%rax, %rcx
.L1826:
	movzbl	1(%rsp), %r13d
	addq	$1, %rcx
	andl	$-121, %r13d
	orl	$24, %r13d
	movb	%r13b, 1(%rsp)
	jmp	.L1822
.L1858:
	movq	%rax, %rcx
.L1828:
	movzbl	1(%rsp), %r11d
	addq	$1, %rcx
	andl	$-121, %r11d
	orl	$64, %r11d
	movb	%r11b, 1(%rsp)
	jmp	.L1822
.L1857:
	movq	%rax, %rcx
.L1829:
	movzbl	1(%rsp), %edi
	addq	$1, %rcx
	andl	$-121, %edi
	orl	$48, %edi
	movb	%dil, 1(%rsp)
	jmp	.L1822
.L1856:
	movq	%rax, %rcx
.L1830:
	movzbl	1(%rsp), %r8d
	addq	$1, %rcx
	andl	$-121, %r8d
	orl	$32, %r8d
	movb	%r8b, 1(%rsp)
	jmp	.L1822
.L1855:
	movq	%rax, %rcx
.L1831:
	movzbl	1(%rsp), %r10d
	addq	$1, %rcx
	andl	$-121, %r10d
	orl	$16, %r10d
	movb	%r10b, 1(%rsp)
	jmp	.L1822
	.p2align 4,,10
	.p2align 3
.L1936:
	leaq	1(%rcx), %rax
	orb	$32, (%rsp)
	cmpq	%rax, %rbp
	je	.L1777
	movzbl	1(%rcx), %r8d
	cmpb	$125, %r8b
	je	.L1777
	subl	$65, %r8d
	cmpb	$38, %r8b
	ja	.L1854
	leaq	.L1839(%rip), %rsi
	movzbl	%r8b, %r10d
	movslq	(%rsi,%r10,4), %rbx
	addq	%rsi, %rbx
	notrack jmp	*%rbx
	.section	.rodata._ZNSt8__format14__formatter_fpIcE5parseERSt26basic_format_parse_contextIcE,"aG",@progbits,_ZNSt8__format14__formatter_fpIcE5parseERSt26basic_format_parse_contextIcE,comdat
	.align 4
	.align 4
.L1839:
	.long	.L1855-.L1839
	.long	.L1854-.L1839
	.long	.L1854-.L1839
	.long	.L1854-.L1839
	.long	.L1856-.L1839
	.long	.L1857-.L1839
	.long	.L1858-.L1839
	.long	.L1854-.L1839
	.long	.L1854-.L1839
	.long	.L1854-.L1839
	.long	.L1854-.L1839
	.long	.L1854-.L1839
	.long	.L1854-.L1839
	.long	.L1854-.L1839
	.long	.L1854-.L1839
	.long	.L1854-.L1839
	.long	.L1854-.L1839
	.long	.L1854-.L1839
	.long	.L1854-.L1839
	.long	.L1854-.L1839
	.long	.L1854-.L1839
	.long	.L1854-.L1839
	.long	.L1854-.L1839
	.long	.L1854-.L1839
	.long	.L1854-.L1839
	.long	.L1854-.L1839
	.long	.L1854-.L1839
	.long	.L1854-.L1839
	.long	.L1854-.L1839
	.long	.L1854-.L1839
	.long	.L1854-.L1839
	.long	.L1854-.L1839
	.long	.L1859-.L1839
	.long	.L1854-.L1839
	.long	.L1854-.L1839
	.long	.L1854-.L1839
	.long	.L1860-.L1839
	.long	.L1861-.L1839
	.long	.L1862-.L1839
	.section	.text._ZNSt8__format14__formatter_fpIcE5parseERSt26basic_format_parse_contextIcE,"axG",@progbits,_ZNSt8__format14__formatter_fpIcE5parseERSt26basic_format_parse_contextIcE,comdat
	.p2align 4,,10
	.p2align 3
.L1795:
	cmpb	$123, %dil
	je	.L1938
.L1808:
	movq	8(%rsp), %rax
	subq	%fs:40, %rax
	jne	.L1915
	leaq	.LC24(%rip), %rdi
	call	_ZSt20__throw_format_errorPKc
	.p2align 4,,10
	.p2align 3
.L1938:
	leaq	2(%rax), %rdi
	cmpq	%rdi, %rbp
	je	.L1939
	cmpb	$125, 2(%rax)
	je	.L1940
	movq	%rbp, %rsi
	call	_ZNSt8__format14__parse_arg_idIcEESt4pairItPKT_ES4_S4_
	movq	%rdx, %rdi
	cmpq	%rdx, %rbp
	je	.L1815
	testq	%rdx, %rdx
	je	.L1815
	cmpb	$125, (%rdx)
	jne	.L1815
	cmpl	$2, 16(%rbx)
	je	.L1818
	movl	$1, 16(%rbx)
	movw	%ax, 4(%rsp)
.L1814:
	leaq	1(%rdi), %rcx
	cmpq	%rcx, %r13
	je	.L1808
	movl	$2, %ebx
.L1806:
	movzbl	1(%rsp), %r13d
	addl	%ebx, %ebx
	andl	$-7, %r13d
	orl	%ebx, %r13d
	movb	%r13b, 1(%rsp)
	cmpq	%rcx, %rbp
	je	.L1849
	movzbl	(%rcx), %eax
	cmpb	$125, %al
	je	.L1849
	jmp	.L1835
.L1796:
	cmpq	%rcx, %r13
	je	.L1801
	movw	%ax, 4(%rsp)
	movl	$1, %ebx
	jmp	.L1806
.L1797:
	movl	$10, %edi
	mulw	%di
	jo	.L1801
	movzbl	%sil, %r8d
	addw	%ax, %r8w
	jc	.L1801
	movl	%r8d, %eax
	jmp	.L1798
.L1932:
	movl	$10, %edx
	mulw	%dx
	jo	.L1801
	movzbl	%sil, %edi
	addw	%ax, %di
	jc	.L1801
	movl	%edi, %eax
	jmp	.L1922
.L1933:
	movl	$10, %ecx
	mulw	%cx
	jo	.L1801
	movzbl	%sil, %edx
	addw	%ax, %dx
	jc	.L1801
	movl	%edx, %eax
	jmp	.L1924
.L1934:
	movl	$10, %esi
	mulw	%si
	jo	.L1801
	movzbl	%r10b, %ebx
	addw	%ax, %bx
	jc	.L1801
	movl	%ebx, %eax
	jmp	.L1926
.L1940:
	cmpl	$1, 16(%rbx)
	je	.L1818
	movq	24(%rbx), %r10
	movl	$2, 16(%rbx)
	leaq	1(%r10), %r11
	movw	%r10w, 4(%rsp)
	movq	%r11, 24(%rbx)
	jmp	.L1814
.L1931:
	movl	$10, %r8d
	mulw	%r8w
	jo	.L1801
	movzbl	%dil, %r10d
	addw	%ax, %r10w
	jc	.L1801
	movl	%r10d, %eax
	jmp	.L1919
.L1930:
	movl	$10, %r11d
	mulw	%r11w
	jo	.L1801
	movzbl	%r10b, %ebx
	addw	%ax, %bx
	jc	.L1801
	movl	%ebx, %eax
	jmp	.L1917
.L1801:
	movq	8(%rsp), %rax
	subq	%fs:40, %rax
	je	.L1807
.L1915:
	call	__stack_chk_fail@PLT
.L1935:
	movq	%rcx, %rax
	jmp	.L1791
.L1854:
	movq	%rax, %rcx
	jmp	.L1832
.L1939:
	movq	8(%rsp), %rax
	subq	%fs:40, %rax
	jne	.L1915
	call	_ZNSt8__format39__unmatched_left_brace_in_format_stringEv
.L1818:
	movq	8(%rsp), %rax
	subq	%fs:40, %rax
	jne	.L1915
	call	_ZNSt8__format39__conflicting_indexing_in_format_stringEv
.L1937:
	movq	8(%rsp), %rax
	subq	%fs:40, %rax
	jne	.L1915
	call	_ZNSt8__format29__failed_to_parse_format_specEv
.L1815:
	movq	8(%rsp), %rax
	subq	%fs:40, %rax
	jne	.L1915
	call	_ZNSt8__format33__invalid_arg_id_in_format_stringEv
.L1807:
	leaq	.LC23(%rip), %rdi
	call	_ZSt20__throw_format_errorPKc
	.cfi_endproc
.LFE12380:
	.size	_ZNSt8__format14__formatter_fpIcE5parseERSt26basic_format_parse_contextIcE, .-_ZNSt8__format14__formatter_fpIcE5parseERSt26basic_format_parse_contextIcE
	.section	.text._ZNSt7__cxx1112basic_stringIcSt11char_traitsIcESaIcEE10_M_disposeEv,"axG",@progbits,_ZNSt7__cxx1112basic_stringIcSt11char_traitsIcESaIcEE10_M_disposeEv,comdat
	.align 2
	.p2align 4
	.weak	_ZNSt7__cxx1112basic_stringIcSt11char_traitsIcESaIcEE10_M_disposeEv
	.type	_ZNSt7__cxx1112basic_stringIcSt11char_traitsIcESaIcEE10_M_disposeEv, @function
_ZNSt7__cxx1112basic_stringIcSt11char_traitsIcESaIcEE10_M_disposeEv:
.LFB12506:
	.cfi_startproc
	endbr64
	movq	(%rdi), %rax
	leaq	16(%rdi), %rdx
	cmpq	%rdx, %rax
	je	.L1943
	movq	16(%rdi), %rsi
	movq	%rax, %rdi
	addq	$1, %rsi
	jmp	_ZdlPvm@PLT
	.p2align 4,,10
	.p2align 3
.L1943:
	ret
	.cfi_endproc
.LFE12506:
	.size	_ZNSt7__cxx1112basic_stringIcSt11char_traitsIcESaIcEE10_M_disposeEv, .-_ZNSt7__cxx1112basic_stringIcSt11char_traitsIcESaIcEE10_M_disposeEv
	.section	.text._ZNSt8__detail13__to_chars_16IjEENSt9enable_ifIXsrSt5__or_IJS2_IJSt7is_sameINSt9remove_cvIT_E4typeEaES3_IS7_sES3_IS7_iES3_IS7_lES3_IS7_xEEES2_IJS3_IS7_hES3_IS7_tES3_IS7_jES3_IS7_mES3_IS7_yEEES3_IS5_nES3_IS5_oES3_IcS7_EEE5valueESt15to_chars_resultE4typeEPcSR_S5_,"axG",@progbits,_ZNSt8__detail13__to_chars_16IjEENSt9enable_ifIXsrSt5__or_IJS2_IJSt7is_sameINSt9remove_cvIT_E4typeEaES3_IS7_sES3_IS7_iES3_IS7_lES3_IS7_xEEES2_IJS3_IS7_hES3_IS7_tES3_IS7_jES3_IS7_mES3_IS7_yEEES3_IS5_nES3_IS5_oES3_IcS7_EEE5valueESt15to_chars_resultE4typeEPcSR_S5_,comdat
	.p2align 4
	.weak	_ZNSt8__detail13__to_chars_16IjEENSt9enable_ifIXsrSt5__or_IJS2_IJSt7is_sameINSt9remove_cvIT_E4typeEaES3_IS7_sES3_IS7_iES3_IS7_lES3_IS7_xEEES2_IJS3_IS7_hES3_IS7_tES3_IS7_jES3_IS7_mES3_IS7_yEEES3_IS5_nES3_IS5_oES3_IcS7_EEE5valueESt15to_chars_resultE4typeEPcSR_S5_
	.type	_ZNSt8__detail13__to_chars_16IjEENSt9enable_ifIXsrSt5__or_IJS2_IJSt7is_sameINSt9remove_cvIT_E4typeEaES3_IS7_sES3_IS7_iES3_IS7_lES3_IS7_xEEES2_IJS3_IS7_hES3_IS7_tES3_IS7_jES3_IS7_mES3_IS7_yEEES3_IS5_nES3_IS5_oES3_IcS7_EEE5valueESt15to_chars_resultE4typeEPcSR_S5_, @function
_ZNSt8__detail13__to_chars_16IjEENSt9enable_ifIXsrSt5__or_IJS2_IJSt7is_sameINSt9remove_cvIT_E4typeEaES3_IS7_sES3_IS7_iES3_IS7_lES3_IS7_xEEES2_IJS3_IS7_hES3_IS7_tES3_IS7_jES3_IS7_mES3_IS7_yEEES3_IS5_nES3_IS5_oES3_IcS7_EEE5valueESt15to_chars_resultE4typeEPcSR_S5_:
.LFB12648:
	.cfi_startproc
	endbr64
	movq	%rdi, %rcx
	subq	$40, %rsp
	.cfi_def_cfa_offset 48
	movl	%edx, %eax
	movq	%rsi, %r8
	movq	%fs:40, %rdx
	movq	%rdx, 24(%rsp)
	xorl	%edx, %edx
	movq	%rsi, %rdi
	subq	%rcx, %r8
	testl	%eax, %eax
	je	.L1945
	bsrl	%eax, %edx
	addl	$4, %edx
	shrl	$2, %edx
	movl	%edx, %esi
	cmpq	%r8, %rsi
	jg	.L1952
	vmovdqa	.LC25(%rip), %xmm0
	subl	$1, %edx
	leaq	(%rcx,%rsi), %rdi
	vmovdqa	%xmm0, (%rsp)
	cmpl	$255, %eax
	jbe	.L1947
	movl	%eax, %r10d
	movl	%eax, %esi
	movl	%edx, %r9d
	shrl	$8, %eax
	andl	$15, %r10d
	shrl	$4, %esi
	leal	-1(%rdx), %r8d
	movzbl	(%rsp,%r10), %r11d
	andl	$15, %esi
	leal	-2(%rdx), %r10d
	movb	%r11b, (%rcx,%r9)
	movzbl	(%rsp,%rsi), %r9d
	movb	%r9b, (%rcx,%r8)
	cmpl	$255, %eax
	jbe	.L1947
	movl	%eax, %r11d
	movl	%eax, %r9d
	leal	-3(%rdx), %r8d
	shrl	$8, %eax
	andl	$15, %r11d
	shrl	$4, %r9d
	movzbl	(%rsp,%r11), %esi
	andl	$15, %r9d
	leal	-4(%rdx), %r11d
	movb	%sil, (%rcx,%r10)
	movzbl	(%rsp,%r9), %r10d
	movb	%r10b, (%rcx,%r8)
	cmpl	$255, %eax
	jbe	.L1947
	movl	%eax, %esi
	movl	%eax, %r10d
	leal	-5(%rdx), %r8d
	shrl	$8, %eax
	andl	$15, %esi
	shrl	$4, %r10d
	movzbl	(%rsp,%rsi), %r9d
	andl	$15, %r10d
	leal	-6(%rdx), %esi
	movb	%r9b, (%rcx,%r11)
	movzbl	(%rsp,%r10), %r11d
	movb	%r11b, (%rcx,%r8)
	cmpl	$255, %eax
	jbe	.L1947
	movl	%eax, %r11d
	movl	%eax, %r9d
	leal	-7(%rdx), %edx
	shrl	$8, %eax
	shrl	$4, %r11d
	andl	$15, %r9d
	andl	$15, %r11d
	movzbl	(%rsp,%r9), %r10d
	movzbl	(%rsp,%r11), %r8d
	movb	%r10b, (%rcx,%rsi)
	movb	%r8b, (%rcx,%rdx)
.L1947:
	cmpl	$15, %eax
	jbe	.L1949
	movl	%eax, %esi
	shrl	$4, %eax
	andl	$15, %esi
	movzbl	(%rsp,%rax), %eax
	movzbl	(%rsp,%rsi), %r9d
	movb	%r9b, 1(%rcx)
.L1950:
	movb	%al, (%rcx)
	xorl	%edx, %edx
.L1946:
	movq	24(%rsp), %rax
	subq	%fs:40, %rax
	jne	.L1963
